
Debug/bin\project.elf:     file format elf32-littlearm


Disassembly of section .text:

00000000 <g_pfnVectors>:
       0:	ac 16 00 10 55 1b 00 00 bd 1b 00 00 bd 1b 00 00     ....U...........
      10:	bd 1b 00 00 bd 1b 00 00 bd 1b 00 00 00 00 00 00     ................
	...
      2c:	bd 1b 00 00 bd 1b 00 00 00 00 00 00 71 25 00 00     ............q%..
      3c:	d9 42 00 00 bd 1b 00 00 61 03 00 00 bd 1b 00 00     .B......a.......
      4c:	bd 1b 00 00 bd 1b 00 00 bd 1b 00 00 bd 1b 00 00     ................
      5c:	bd 1b 00 00 bd 1b 00 00 bd 1b 00 00 bd 1b 00 00     ................
      6c:	bd 1b 00 00 bd 1b 00 00 bd 1b 00 00 bd 1b 00 00     ................
      7c:	bd 1b 00 00 bd 1b 00 00 bd 1b 00 00 19 37 00 00     .............7..
      8c:	bd 1b 00 00 bd 1b 00 00 bd 1b 00 00 49 45 00 00     ............IE..
      9c:	bd 1b 00 00 bd 1b 00 00 bd 1b 00 00 bd 1b 00 00     ................
      ac:	bd 1b 00 00 bd 1b 00 00 bd 1b 00 00 bd 1b 00 00     ................
      bc:	bd 1b 00 00 bd 1b 00 00 bd 1b 00 00 bd 1b 00 00     ................

000000cc <CoCreateKheap>:
      cc:	b480      	push	{r7}
      ce:	af00      	add	r7, sp, #0
      d0:	4a0e      	ldr	r2, [pc, #56]	; (10c <CoCreateKheap+0x40>)
      d2:	4b0f      	ldr	r3, [pc, #60]	; (110 <CoCreateKheap+0x44>)
      d4:	601a      	str	r2, [r3, #0]
      d6:	4b0d      	ldr	r3, [pc, #52]	; (10c <CoCreateKheap+0x40>)
      d8:	f103 02c8 	add.w	r2, r3, #200	; 0xc8
      dc:	4b0c      	ldr	r3, [pc, #48]	; (110 <CoCreateKheap+0x44>)
      de:	605a      	str	r2, [r3, #4]
      e0:	4a0a      	ldr	r2, [pc, #40]	; (10c <CoCreateKheap+0x40>)
      e2:	4b0c      	ldr	r3, [pc, #48]	; (114 <CoCreateKheap+0x48>)
      e4:	601a      	str	r2, [r3, #0]
      e6:	4b0b      	ldr	r3, [pc, #44]	; (114 <CoCreateKheap+0x48>)
      e8:	681b      	ldr	r3, [r3, #0]
      ea:	f04f 0200 	mov.w	r2, #0
      ee:	601a      	str	r2, [r3, #0]
      f0:	4b08      	ldr	r3, [pc, #32]	; (114 <CoCreateKheap+0x48>)
      f2:	681b      	ldr	r3, [r3, #0]
      f4:	f04f 0200 	mov.w	r2, #0
      f8:	605a      	str	r2, [r3, #4]
      fa:	4b06      	ldr	r3, [pc, #24]	; (114 <CoCreateKheap+0x48>)
      fc:	681b      	ldr	r3, [r3, #0]
      fe:	f04f 0200 	mov.w	r2, #0
     102:	609a      	str	r2, [r3, #8]
     104:	46bd      	mov	sp, r7
     106:	bc80      	pop	{r7}
     108:	4770      	bx	lr
     10a:	bf00      	nop
     10c:	10000160 	.word	0x10000160
     110:	1000022c 	.word	0x1000022c
     114:	10000228 	.word	0x10000228

00000118 <TIM_ClearIntPending>:
     118:	b580      	push	{r7, lr}
     11a:	b082      	sub	sp, #8
     11c:	af00      	add	r7, sp, #0
     11e:	6078      	str	r0, [r7, #4]
     120:	460b      	mov	r3, r1
     122:	70fb      	strb	r3, [r7, #3]
     124:	687b      	ldr	r3, [r7, #4]
     126:	f1b3 2f40 	cmp.w	r3, #1073758208	; 0x40004000
     12a:	d010      	beq.n	14e <TIM_ClearIntPending+0x36>
     12c:	687a      	ldr	r2, [r7, #4]
     12e:	4b1a      	ldr	r3, [pc, #104]	; (198 <TIM_ClearIntPending+0x80>)
     130:	429a      	cmp	r2, r3
     132:	d00c      	beq.n	14e <TIM_ClearIntPending+0x36>
     134:	687a      	ldr	r2, [r7, #4]
     136:	4b19      	ldr	r3, [pc, #100]	; (19c <TIM_ClearIntPending+0x84>)
     138:	429a      	cmp	r2, r3
     13a:	d008      	beq.n	14e <TIM_ClearIntPending+0x36>
     13c:	687a      	ldr	r2, [r7, #4]
     13e:	4b18      	ldr	r3, [pc, #96]	; (1a0 <TIM_ClearIntPending+0x88>)
     140:	429a      	cmp	r2, r3
     142:	d004      	beq.n	14e <TIM_ClearIntPending+0x36>
     144:	4817      	ldr	r0, [pc, #92]	; (1a4 <TIM_ClearIntPending+0x8c>)
     146:	f04f 01d6 	mov.w	r1, #214	; 0xd6
     14a:	f001 fd3b 	bl	1bc4 <check_failed>
     14e:	78fb      	ldrb	r3, [r7, #3]
     150:	2b00      	cmp	r3, #0
     152:	d013      	beq.n	17c <TIM_ClearIntPending+0x64>
     154:	78fb      	ldrb	r3, [r7, #3]
     156:	2b01      	cmp	r3, #1
     158:	d010      	beq.n	17c <TIM_ClearIntPending+0x64>
     15a:	78fb      	ldrb	r3, [r7, #3]
     15c:	2b02      	cmp	r3, #2
     15e:	d00d      	beq.n	17c <TIM_ClearIntPending+0x64>
     160:	78fb      	ldrb	r3, [r7, #3]
     162:	2b03      	cmp	r3, #3
     164:	d00a      	beq.n	17c <TIM_ClearIntPending+0x64>
     166:	78fb      	ldrb	r3, [r7, #3]
     168:	2b04      	cmp	r3, #4
     16a:	d007      	beq.n	17c <TIM_ClearIntPending+0x64>
     16c:	78fb      	ldrb	r3, [r7, #3]
     16e:	2b05      	cmp	r3, #5
     170:	d004      	beq.n	17c <TIM_ClearIntPending+0x64>
     172:	480c      	ldr	r0, [pc, #48]	; (1a4 <TIM_ClearIntPending+0x8c>)
     174:	f04f 01d7 	mov.w	r1, #215	; 0xd7
     178:	f001 fd24 	bl	1bc4 <check_failed>
     17c:	687b      	ldr	r3, [r7, #4]
     17e:	681a      	ldr	r2, [r3, #0]
     180:	78fb      	ldrb	r3, [r7, #3]
     182:	f04f 0101 	mov.w	r1, #1
     186:	fa01 f303 	lsl.w	r3, r1, r3
     18a:	431a      	orrs	r2, r3
     18c:	687b      	ldr	r3, [r7, #4]
     18e:	601a      	str	r2, [r3, #0]
     190:	f107 0708 	add.w	r7, r7, #8
     194:	46bd      	mov	sp, r7
     196:	bd80      	pop	{r7, pc}
     198:	40008000 	.word	0x40008000
     19c:	40090000 	.word	0x40090000
     1a0:	40094000 	.word	0x40094000
     1a4:	000071fc 	.word	0x000071fc

000001a8 <CoEnterISR>:
     1a8:	b580      	push	{r7, lr}
     1aa:	af00      	add	r7, sp, #0
     1ac:	4801      	ldr	r0, [pc, #4]	; (1b4 <CoEnterISR+0xc>)
     1ae:	f002 f991 	bl	24d4 <Inc8>
     1b2:	bd80      	pop	{r7, pc}
     1b4:	10000234 	.word	0x10000234

000001b8 <CoExitISR>:
     1b8:	b580      	push	{r7, lr}
     1ba:	af00      	add	r7, sp, #0
     1bc:	480f      	ldr	r0, [pc, #60]	; (1fc <CoExitISR+0x44>)
     1be:	f002 f9a3 	bl	2508 <Dec8>
     1c2:	4b0e      	ldr	r3, [pc, #56]	; (1fc <CoExitISR+0x44>)
     1c4:	781b      	ldrb	r3, [r3, #0]
     1c6:	b2db      	uxtb	r3, r3
     1c8:	2b00      	cmp	r3, #0
     1ca:	d116      	bne.n	1fa <CoExitISR+0x42>
     1cc:	4b0c      	ldr	r3, [pc, #48]	; (200 <CoExitISR+0x48>)
     1ce:	781b      	ldrb	r3, [r3, #0]
     1d0:	b2db      	uxtb	r3, r3
     1d2:	2b01      	cmp	r3, #1
     1d4:	d111      	bne.n	1fa <CoExitISR+0x42>
     1d6:	4b0b      	ldr	r3, [pc, #44]	; (204 <CoExitISR+0x4c>)
     1d8:	781b      	ldrb	r3, [r3, #0]
     1da:	b2db      	uxtb	r3, r3
     1dc:	f103 0301 	add.w	r3, r3, #1
     1e0:	b2da      	uxtb	r2, r3
     1e2:	4b08      	ldr	r3, [pc, #32]	; (204 <CoExitISR+0x4c>)
     1e4:	701a      	strb	r2, [r3, #0]
     1e6:	f000 ff75 	bl	10d4 <Schedule>
     1ea:	4b06      	ldr	r3, [pc, #24]	; (204 <CoExitISR+0x4c>)
     1ec:	781b      	ldrb	r3, [r3, #0]
     1ee:	b2db      	uxtb	r3, r3
     1f0:	f103 33ff 	add.w	r3, r3, #4294967295
     1f4:	b2da      	uxtb	r2, r3
     1f6:	4b03      	ldr	r3, [pc, #12]	; (204 <CoExitISR+0x4c>)
     1f8:	701a      	strb	r2, [r3, #0]
     1fa:	bd80      	pop	{r7, pc}
     1fc:	10000234 	.word	0x10000234
     200:	10000236 	.word	0x10000236
     204:	10000235 	.word	0x10000235

00000208 <OsSchedUnlock>:
     208:	b580      	push	{r7, lr}
     20a:	af00      	add	r7, sp, #0
     20c:	4b0f      	ldr	r3, [pc, #60]	; (24c <OsSchedUnlock+0x44>)
     20e:	781b      	ldrb	r3, [r3, #0]
     210:	b2db      	uxtb	r3, r3
     212:	2b01      	cmp	r3, #1
     214:	d111      	bne.n	23a <OsSchedUnlock+0x32>
     216:	4b0e      	ldr	r3, [pc, #56]	; (250 <OsSchedUnlock+0x48>)
     218:	781b      	ldrb	r3, [r3, #0]
     21a:	2b01      	cmp	r3, #1
     21c:	d101      	bne.n	222 <OsSchedUnlock+0x1a>
     21e:	f001 fb3f 	bl	18a0 <RespondSRQ>
     222:	4b0c      	ldr	r3, [pc, #48]	; (254 <OsSchedUnlock+0x4c>)
     224:	781b      	ldrb	r3, [r3, #0]
     226:	b2db      	uxtb	r3, r3
     228:	2b01      	cmp	r3, #1
     22a:	d101      	bne.n	230 <OsSchedUnlock+0x28>
     22c:	f000 ff52 	bl	10d4 <Schedule>
     230:	4b06      	ldr	r3, [pc, #24]	; (24c <OsSchedUnlock+0x44>)
     232:	f04f 0200 	mov.w	r2, #0
     236:	701a      	strb	r2, [r3, #0]
     238:	e007      	b.n	24a <OsSchedUnlock+0x42>
     23a:	4b04      	ldr	r3, [pc, #16]	; (24c <OsSchedUnlock+0x44>)
     23c:	781b      	ldrb	r3, [r3, #0]
     23e:	b2db      	uxtb	r3, r3
     240:	f103 33ff 	add.w	r3, r3, #4294967295
     244:	b2da      	uxtb	r2, r3
     246:	4b01      	ldr	r3, [pc, #4]	; (24c <OsSchedUnlock+0x44>)
     248:	701a      	strb	r2, [r3, #0]
     24a:	bd80      	pop	{r7, pc}
     24c:	10000235 	.word	0x10000235
     250:	10000644 	.word	0x10000644
     254:	10000236 	.word	0x10000236

00000258 <CoInitOS>:
     258:	b580      	push	{r7, lr}
     25a:	af00      	add	r7, sp, #0
     25c:	4b17      	ldr	r3, [pc, #92]	; (2bc <CoInitOS+0x64>)
     25e:	4a18      	ldr	r2, [pc, #96]	; (2c0 <CoInitOS+0x68>)
     260:	601a      	str	r2, [r3, #0]
     262:	4b18      	ldr	r3, [pc, #96]	; (2c4 <CoInitOS+0x6c>)
     264:	f04f 0207 	mov.w	r2, #7
     268:	601a      	str	r2, [r3, #0]
     26a:	4b17      	ldr	r3, [pc, #92]	; (2c8 <CoInitOS+0x70>)
     26c:	4a16      	ldr	r2, [pc, #88]	; (2c8 <CoInitOS+0x70>)
     26e:	6812      	ldr	r2, [r2, #0]
     270:	f042 427f 	orr.w	r2, r2, #4278190080	; 0xff000000
     274:	601a      	str	r2, [r3, #0]
     276:	4a15      	ldr	r2, [pc, #84]	; (2cc <CoInitOS+0x74>)
     278:	4b14      	ldr	r3, [pc, #80]	; (2cc <CoInitOS+0x74>)
     27a:	681b      	ldr	r3, [r3, #0]
     27c:	ea6f 4303 	mvn.w	r3, r3, lsl #16
     280:	ea6f 4313 	mvn.w	r3, r3, lsr #16
     284:	6013      	str	r3, [r2, #0]
     286:	f000 fd2f 	bl	ce8 <CreateTCBList>
     28a:	f001 fe6b 	bl	1f64 <CreateEventList>
     28e:	f7ff ff1d 	bl	cc <CoCreateKheap>
     292:	4b0f      	ldr	r3, [pc, #60]	; (2d0 <CoInitOS+0x78>)
     294:	781b      	ldrb	r3, [r3, #0]
     296:	b2db      	uxtb	r3, r3
     298:	f103 0301 	add.w	r3, r3, #1
     29c:	b2da      	uxtb	r2, r3
     29e:	4b0c      	ldr	r3, [pc, #48]	; (2d0 <CoInitOS+0x78>)
     2a0:	701a      	strb	r2, [r3, #0]
     2a2:	480c      	ldr	r0, [pc, #48]	; (2d4 <CoInitOS+0x7c>)
     2a4:	f04f 0100 	mov.w	r1, #0
     2a8:	f44f 52ca 	mov.w	r2, #6464	; 0x1940
     2ac:	4b0a      	ldr	r3, [pc, #40]	; (2d8 <CoInitOS+0x80>)
     2ae:	f000 ffeb 	bl	1288 <CreateTask>
     2b2:	4809      	ldr	r0, [pc, #36]	; (2d8 <CoInitOS+0x80>)
     2b4:	f002 f94c 	bl	2550 <SetEnvironment>
     2b8:	bd80      	pop	{r7, pc}
     2ba:	bf00      	nop
     2bc:	e000e014 	.word	0xe000e014
     2c0:	0001869f 	.word	0x0001869f
     2c4:	e000e010 	.word	0xe000e010
     2c8:	e000ed1c 	.word	0xe000ed1c
     2cc:	e000ed20 	.word	0xe000ed20
     2d0:	10000235 	.word	0x10000235
     2d4:	00004a15 	.word	0x00004a15
     2d8:	100005f8 	.word	0x100005f8

000002dc <CoStartOS>:
     2dc:	b580      	push	{r7, lr}
     2de:	af00      	add	r7, sp, #0
     2e0:	4b09      	ldr	r3, [pc, #36]	; (308 <CoStartOS+0x2c>)
     2e2:	4a0a      	ldr	r2, [pc, #40]	; (30c <CoStartOS+0x30>)
     2e4:	601a      	str	r2, [r3, #0]
     2e6:	4b08      	ldr	r3, [pc, #32]	; (308 <CoStartOS+0x2c>)
     2e8:	681a      	ldr	r2, [r3, #0]
     2ea:	4b09      	ldr	r3, [pc, #36]	; (310 <CoStartOS+0x34>)
     2ec:	601a      	str	r2, [r3, #0]
     2ee:	4b06      	ldr	r3, [pc, #24]	; (308 <CoStartOS+0x2c>)
     2f0:	681b      	ldr	r3, [r3, #0]
     2f2:	f04f 0201 	mov.w	r2, #1
     2f6:	715a      	strb	r2, [r3, #5]
     2f8:	4b03      	ldr	r3, [pc, #12]	; (308 <CoStartOS+0x2c>)
     2fa:	681b      	ldr	r3, [r3, #0]
     2fc:	4618      	mov	r0, r3
     2fe:	f000 fdb1 	bl	e64 <RemoveFromTCBRdyList>
     302:	f7ff ff81 	bl	208 <OsSchedUnlock>
     306:	bd80      	pop	{r7, pc}
     308:	10000608 	.word	0x10000608
     30c:	10000490 	.word	0x10000490
     310:	10000604 	.word	0x10000604

00000314 <drv_buzz_load>:
     314:	b480      	push	{r7}
     316:	af00      	add	r7, sp, #0
     318:	4b0c      	ldr	r3, [pc, #48]	; (34c <drv_buzz_load+0x38>)
     31a:	f04f 0200 	mov.w	r2, #0
     31e:	611a      	str	r2, [r3, #16]
     320:	4a0b      	ldr	r2, [pc, #44]	; (350 <drv_buzz_load+0x3c>)
     322:	4b0b      	ldr	r3, [pc, #44]	; (350 <drv_buzz_load+0x3c>)
     324:	69db      	ldr	r3, [r3, #28]
     326:	ea4f 4313 	mov.w	r3, r3, lsr #16
     32a:	ea4f 4303 	mov.w	r3, r3, lsl #16
     32e:	61d3      	str	r3, [r2, #28]
     330:	4b06      	ldr	r3, [pc, #24]	; (34c <drv_buzz_load+0x38>)
     332:	f04f 6280 	mov.w	r2, #67108864	; 0x4000000
     336:	619a      	str	r2, [r3, #24]
     338:	4b04      	ldr	r3, [pc, #16]	; (34c <drv_buzz_load+0x38>)
     33a:	4a04      	ldr	r2, [pc, #16]	; (34c <drv_buzz_load+0x38>)
     33c:	6812      	ldr	r2, [r2, #0]
     33e:	f042 6280 	orr.w	r2, r2, #67108864	; 0x4000000
     342:	601a      	str	r2, [r3, #0]
     344:	46bd      	mov	sp, r7
     346:	bc80      	pop	{r7}
     348:	4770      	bx	lr
     34a:	bf00      	nop
     34c:	2009c060 	.word	0x2009c060
     350:	4002c000 	.word	0x4002c000

00000354 <drv_buzz_open>:
     354:	b480      	push	{r7}
     356:	af00      	add	r7, sp, #0
     358:	46bd      	mov	sp, r7
     35a:	bc80      	pop	{r7}
     35c:	4770      	bx	lr
     35e:	bf00      	nop

00000360 <TIMER0_IRQHandler>:
     360:	b580      	push	{r7, lr}
     362:	af00      	add	r7, sp, #0
     364:	f04f 2040 	mov.w	r0, #1073758208	; 0x40004000
     368:	f04f 0100 	mov.w	r1, #0
     36c:	f7ff fed4 	bl	118 <TIM_ClearIntPending>
     370:	4b0b      	ldr	r3, [pc, #44]	; (3a0 <TIMER0_IRQHandler+0x40>)
     372:	681a      	ldr	r2, [r3, #0]
     374:	4b0b      	ldr	r3, [pc, #44]	; (3a4 <TIMER0_IRQHandler+0x44>)
     376:	681b      	ldr	r3, [r3, #0]
     378:	429a      	cmp	r2, r3
     37a:	d20a      	bcs.n	392 <TIMER0_IRQHandler+0x32>
     37c:	4b0a      	ldr	r3, [pc, #40]	; (3a8 <TIMER0_IRQHandler+0x48>)
     37e:	4a0a      	ldr	r2, [pc, #40]	; (3a8 <TIMER0_IRQHandler+0x48>)
     380:	6952      	ldr	r2, [r2, #20]
     382:	f082 6280 	eor.w	r2, r2, #67108864	; 0x4000000
     386:	615a      	str	r2, [r3, #20]
     388:	4b06      	ldr	r3, [pc, #24]	; (3a4 <TIMER0_IRQHandler+0x44>)
     38a:	f04f 0200 	mov.w	r2, #0
     38e:	601a      	str	r2, [r3, #0]
     390:	e005      	b.n	39e <TIMER0_IRQHandler+0x3e>
     392:	4b04      	ldr	r3, [pc, #16]	; (3a4 <TIMER0_IRQHandler+0x44>)
     394:	681b      	ldr	r3, [r3, #0]
     396:	f103 0201 	add.w	r2, r3, #1
     39a:	4b02      	ldr	r3, [pc, #8]	; (3a4 <TIMER0_IRQHandler+0x44>)
     39c:	601a      	str	r2, [r3, #0]
     39e:	bd80      	pop	{r7, pc}
     3a0:	10000238 	.word	0x10000238
     3a4:	1000023c 	.word	0x1000023c
     3a8:	2009c060 	.word	0x2009c060

000003ac <InsertTmrList>:
     3ac:	b590      	push	{r4, r7, lr}
     3ae:	b087      	sub	sp, #28
     3b0:	af00      	add	r7, sp, #0
     3b2:	4603      	mov	r3, r0
     3b4:	71fb      	strb	r3, [r7, #7]
     3b6:	79fa      	ldrb	r2, [r7, #7]
     3b8:	498b      	ldr	r1, [pc, #556]	; (5e8 <InsertTmrList+0x23c>)
     3ba:	4613      	mov	r3, r2
     3bc:	ea4f 0343 	mov.w	r3, r3, lsl #1
     3c0:	189b      	adds	r3, r3, r2
     3c2:	ea4f 03c3 	mov.w	r3, r3, lsl #3
     3c6:	18cb      	adds	r3, r1, r3
     3c8:	f103 0304 	add.w	r3, r3, #4
     3cc:	681b      	ldr	r3, [r3, #0]
     3ce:	60fb      	str	r3, [r7, #12]
     3d0:	68fb      	ldr	r3, [r7, #12]
     3d2:	2b00      	cmp	r3, #0
     3d4:	f000 8103 	beq.w	5de <InsertTmrList+0x232>
     3d8:	4b84      	ldr	r3, [pc, #528]	; (5ec <InsertTmrList+0x240>)
     3da:	781b      	ldrb	r3, [r3, #0]
     3dc:	b2db      	uxtb	r3, r3
     3de:	f103 0301 	add.w	r3, r3, #1
     3e2:	b2da      	uxtb	r2, r3
     3e4:	4b81      	ldr	r3, [pc, #516]	; (5ec <InsertTmrList+0x240>)
     3e6:	701a      	strb	r2, [r3, #0]
     3e8:	4b81      	ldr	r3, [pc, #516]	; (5f0 <InsertTmrList+0x244>)
     3ea:	681b      	ldr	r3, [r3, #0]
     3ec:	2b00      	cmp	r3, #0
     3ee:	d10c      	bne.n	40a <InsertTmrList+0x5e>
     3f0:	79fa      	ldrb	r2, [r7, #7]
     3f2:	4613      	mov	r3, r2
     3f4:	ea4f 0343 	mov.w	r3, r3, lsl #1
     3f8:	189b      	adds	r3, r3, r2
     3fa:	ea4f 03c3 	mov.w	r3, r3, lsl #3
     3fe:	461a      	mov	r2, r3
     400:	4b79      	ldr	r3, [pc, #484]	; (5e8 <InsertTmrList+0x23c>)
     402:	18d2      	adds	r2, r2, r3
     404:	4b7a      	ldr	r3, [pc, #488]	; (5f0 <InsertTmrList+0x244>)
     406:	601a      	str	r2, [r3, #0]
     408:	e0e6      	b.n	5d8 <InsertTmrList+0x22c>
     40a:	4b79      	ldr	r3, [pc, #484]	; (5f0 <InsertTmrList+0x244>)
     40c:	681b      	ldr	r3, [r3, #0]
     40e:	617b      	str	r3, [r7, #20]
     410:	68fb      	ldr	r3, [r7, #12]
     412:	613b      	str	r3, [r7, #16]
     414:	e0dc      	b.n	5d0 <InsertTmrList+0x224>
     416:	693a      	ldr	r2, [r7, #16]
     418:	697b      	ldr	r3, [r7, #20]
     41a:	685b      	ldr	r3, [r3, #4]
     41c:	1ad3      	subs	r3, r2, r3
     41e:	613b      	str	r3, [r7, #16]
     420:	693b      	ldr	r3, [r7, #16]
     422:	2b00      	cmp	r3, #0
     424:	f280 80a3 	bge.w	56e <InsertTmrList+0x1c2>
     428:	697b      	ldr	r3, [r7, #20]
     42a:	695b      	ldr	r3, [r3, #20]
     42c:	2b00      	cmp	r3, #0
     42e:	d034      	beq.n	49a <InsertTmrList+0xee>
     430:	697b      	ldr	r3, [r7, #20]
     432:	6959      	ldr	r1, [r3, #20]
     434:	79fa      	ldrb	r2, [r7, #7]
     436:	4613      	mov	r3, r2
     438:	ea4f 0343 	mov.w	r3, r3, lsl #1
     43c:	189b      	adds	r3, r3, r2
     43e:	ea4f 03c3 	mov.w	r3, r3, lsl #3
     442:	461a      	mov	r2, r3
     444:	4b68      	ldr	r3, [pc, #416]	; (5e8 <InsertTmrList+0x23c>)
     446:	18d3      	adds	r3, r2, r3
     448:	610b      	str	r3, [r1, #16]
     44a:	79fa      	ldrb	r2, [r7, #7]
     44c:	697b      	ldr	r3, [r7, #20]
     44e:	6959      	ldr	r1, [r3, #20]
     450:	4865      	ldr	r0, [pc, #404]	; (5e8 <InsertTmrList+0x23c>)
     452:	4613      	mov	r3, r2
     454:	ea4f 0343 	mov.w	r3, r3, lsl #1
     458:	189b      	adds	r3, r3, r2
     45a:	ea4f 03c3 	mov.w	r3, r3, lsl #3
     45e:	18c3      	adds	r3, r0, r3
     460:	f103 0314 	add.w	r3, r3, #20
     464:	6019      	str	r1, [r3, #0]
     466:	79fa      	ldrb	r2, [r7, #7]
     468:	495f      	ldr	r1, [pc, #380]	; (5e8 <InsertTmrList+0x23c>)
     46a:	4613      	mov	r3, r2
     46c:	ea4f 0343 	mov.w	r3, r3, lsl #1
     470:	189b      	adds	r3, r3, r2
     472:	ea4f 03c3 	mov.w	r3, r3, lsl #3
     476:	18cb      	adds	r3, r1, r3
     478:	f103 0310 	add.w	r3, r3, #16
     47c:	697a      	ldr	r2, [r7, #20]
     47e:	601a      	str	r2, [r3, #0]
     480:	79fa      	ldrb	r2, [r7, #7]
     482:	4613      	mov	r3, r2
     484:	ea4f 0343 	mov.w	r3, r3, lsl #1
     488:	189b      	adds	r3, r3, r2
     48a:	ea4f 03c3 	mov.w	r3, r3, lsl #3
     48e:	461a      	mov	r2, r3
     490:	4b55      	ldr	r3, [pc, #340]	; (5e8 <InsertTmrList+0x23c>)
     492:	18d2      	adds	r2, r2, r3
     494:	697b      	ldr	r3, [r7, #20]
     496:	615a      	str	r2, [r3, #20]
     498:	e026      	b.n	4e8 <InsertTmrList+0x13c>
     49a:	79fa      	ldrb	r2, [r7, #7]
     49c:	4b54      	ldr	r3, [pc, #336]	; (5f0 <InsertTmrList+0x244>)
     49e:	6819      	ldr	r1, [r3, #0]
     4a0:	4851      	ldr	r0, [pc, #324]	; (5e8 <InsertTmrList+0x23c>)
     4a2:	4613      	mov	r3, r2
     4a4:	ea4f 0343 	mov.w	r3, r3, lsl #1
     4a8:	189b      	adds	r3, r3, r2
     4aa:	ea4f 03c3 	mov.w	r3, r3, lsl #3
     4ae:	18c3      	adds	r3, r0, r3
     4b0:	f103 0310 	add.w	r3, r3, #16
     4b4:	6019      	str	r1, [r3, #0]
     4b6:	4b4e      	ldr	r3, [pc, #312]	; (5f0 <InsertTmrList+0x244>)
     4b8:	6819      	ldr	r1, [r3, #0]
     4ba:	79fa      	ldrb	r2, [r7, #7]
     4bc:	4613      	mov	r3, r2
     4be:	ea4f 0343 	mov.w	r3, r3, lsl #1
     4c2:	189b      	adds	r3, r3, r2
     4c4:	ea4f 03c3 	mov.w	r3, r3, lsl #3
     4c8:	461a      	mov	r2, r3
     4ca:	4b47      	ldr	r3, [pc, #284]	; (5e8 <InsertTmrList+0x23c>)
     4cc:	18d3      	adds	r3, r2, r3
     4ce:	614b      	str	r3, [r1, #20]
     4d0:	79fa      	ldrb	r2, [r7, #7]
     4d2:	4613      	mov	r3, r2
     4d4:	ea4f 0343 	mov.w	r3, r3, lsl #1
     4d8:	189b      	adds	r3, r3, r2
     4da:	ea4f 03c3 	mov.w	r3, r3, lsl #3
     4de:	461a      	mov	r2, r3
     4e0:	4b41      	ldr	r3, [pc, #260]	; (5e8 <InsertTmrList+0x23c>)
     4e2:	18d2      	adds	r2, r2, r3
     4e4:	4b42      	ldr	r3, [pc, #264]	; (5f0 <InsertTmrList+0x244>)
     4e6:	601a      	str	r2, [r3, #0]
     4e8:	79fa      	ldrb	r2, [r7, #7]
     4ea:	79f9      	ldrb	r1, [r7, #7]
     4ec:	483e      	ldr	r0, [pc, #248]	; (5e8 <InsertTmrList+0x23c>)
     4ee:	460b      	mov	r3, r1
     4f0:	ea4f 0343 	mov.w	r3, r3, lsl #1
     4f4:	185b      	adds	r3, r3, r1
     4f6:	ea4f 03c3 	mov.w	r3, r3, lsl #3
     4fa:	18c3      	adds	r3, r0, r3
     4fc:	f103 0310 	add.w	r3, r3, #16
     500:	681b      	ldr	r3, [r3, #0]
     502:	6859      	ldr	r1, [r3, #4]
     504:	693b      	ldr	r3, [r7, #16]
     506:	18c9      	adds	r1, r1, r3
     508:	4837      	ldr	r0, [pc, #220]	; (5e8 <InsertTmrList+0x23c>)
     50a:	4613      	mov	r3, r2
     50c:	ea4f 0343 	mov.w	r3, r3, lsl #1
     510:	189b      	adds	r3, r3, r2
     512:	ea4f 03c3 	mov.w	r3, r3, lsl #3
     516:	18c3      	adds	r3, r0, r3
     518:	f103 0304 	add.w	r3, r3, #4
     51c:	6019      	str	r1, [r3, #0]
     51e:	79fa      	ldrb	r2, [r7, #7]
     520:	4931      	ldr	r1, [pc, #196]	; (5e8 <InsertTmrList+0x23c>)
     522:	4613      	mov	r3, r2
     524:	ea4f 0343 	mov.w	r3, r3, lsl #1
     528:	189b      	adds	r3, r3, r2
     52a:	ea4f 03c3 	mov.w	r3, r3, lsl #3
     52e:	18cb      	adds	r3, r1, r3
     530:	f103 0310 	add.w	r3, r3, #16
     534:	6819      	ldr	r1, [r3, #0]
     536:	79fa      	ldrb	r2, [r7, #7]
     538:	482b      	ldr	r0, [pc, #172]	; (5e8 <InsertTmrList+0x23c>)
     53a:	4613      	mov	r3, r2
     53c:	ea4f 0343 	mov.w	r3, r3, lsl #1
     540:	189b      	adds	r3, r3, r2
     542:	ea4f 03c3 	mov.w	r3, r3, lsl #3
     546:	18c3      	adds	r3, r0, r3
     548:	f103 0310 	add.w	r3, r3, #16
     54c:	681b      	ldr	r3, [r3, #0]
     54e:	6858      	ldr	r0, [r3, #4]
     550:	79fa      	ldrb	r2, [r7, #7]
     552:	4c25      	ldr	r4, [pc, #148]	; (5e8 <InsertTmrList+0x23c>)
     554:	4613      	mov	r3, r2
     556:	ea4f 0343 	mov.w	r3, r3, lsl #1
     55a:	189b      	adds	r3, r3, r2
     55c:	ea4f 03c3 	mov.w	r3, r3, lsl #3
     560:	18e3      	adds	r3, r4, r3
     562:	f103 0304 	add.w	r3, r3, #4
     566:	681b      	ldr	r3, [r3, #0]
     568:	1ac3      	subs	r3, r0, r3
     56a:	604b      	str	r3, [r1, #4]
     56c:	e034      	b.n	5d8 <InsertTmrList+0x22c>
     56e:	693b      	ldr	r3, [r7, #16]
     570:	2b00      	cmp	r3, #0
     572:	db2a      	blt.n	5ca <InsertTmrList+0x21e>
     574:	697b      	ldr	r3, [r7, #20]
     576:	691b      	ldr	r3, [r3, #16]
     578:	2b00      	cmp	r3, #0
     57a:	d126      	bne.n	5ca <InsertTmrList+0x21e>
     57c:	79fa      	ldrb	r2, [r7, #7]
     57e:	491a      	ldr	r1, [pc, #104]	; (5e8 <InsertTmrList+0x23c>)
     580:	4613      	mov	r3, r2
     582:	ea4f 0343 	mov.w	r3, r3, lsl #1
     586:	189b      	adds	r3, r3, r2
     588:	ea4f 03c3 	mov.w	r3, r3, lsl #3
     58c:	18cb      	adds	r3, r1, r3
     58e:	f103 0314 	add.w	r3, r3, #20
     592:	697a      	ldr	r2, [r7, #20]
     594:	601a      	str	r2, [r3, #0]
     596:	79fa      	ldrb	r2, [r7, #7]
     598:	4613      	mov	r3, r2
     59a:	ea4f 0343 	mov.w	r3, r3, lsl #1
     59e:	189b      	adds	r3, r3, r2
     5a0:	ea4f 03c3 	mov.w	r3, r3, lsl #3
     5a4:	461a      	mov	r2, r3
     5a6:	4b10      	ldr	r3, [pc, #64]	; (5e8 <InsertTmrList+0x23c>)
     5a8:	18d2      	adds	r2, r2, r3
     5aa:	697b      	ldr	r3, [r7, #20]
     5ac:	611a      	str	r2, [r3, #16]
     5ae:	79fa      	ldrb	r2, [r7, #7]
     5b0:	6939      	ldr	r1, [r7, #16]
     5b2:	480d      	ldr	r0, [pc, #52]	; (5e8 <InsertTmrList+0x23c>)
     5b4:	4613      	mov	r3, r2
     5b6:	ea4f 0343 	mov.w	r3, r3, lsl #1
     5ba:	189b      	adds	r3, r3, r2
     5bc:	ea4f 03c3 	mov.w	r3, r3, lsl #3
     5c0:	18c3      	adds	r3, r0, r3
     5c2:	f103 0304 	add.w	r3, r3, #4
     5c6:	6019      	str	r1, [r3, #0]
     5c8:	e006      	b.n	5d8 <InsertTmrList+0x22c>
     5ca:	697b      	ldr	r3, [r7, #20]
     5cc:	691b      	ldr	r3, [r3, #16]
     5ce:	617b      	str	r3, [r7, #20]
     5d0:	697b      	ldr	r3, [r7, #20]
     5d2:	2b00      	cmp	r3, #0
     5d4:	f47f af1f 	bne.w	416 <InsertTmrList+0x6a>
     5d8:	f7ff fe16 	bl	208 <OsSchedUnlock>
     5dc:	e000      	b.n	5e0 <InsertTmrList+0x234>
     5de:	bf00      	nop
     5e0:	f107 071c 	add.w	r7, r7, #28
     5e4:	46bd      	mov	sp, r7
     5e6:	bd90      	pop	{r4, r7, pc}
     5e8:	10000240 	.word	0x10000240
     5ec:	10000235 	.word	0x10000235
     5f0:	10000270 	.word	0x10000270

000005f4 <RemoveTmrList>:
     5f4:	b580      	push	{r7, lr}
     5f6:	b084      	sub	sp, #16
     5f8:	af00      	add	r7, sp, #0
     5fa:	4603      	mov	r3, r0
     5fc:	71fb      	strb	r3, [r7, #7]
     5fe:	79fa      	ldrb	r2, [r7, #7]
     600:	4613      	mov	r3, r2
     602:	ea4f 0343 	mov.w	r3, r3, lsl #1
     606:	189b      	adds	r3, r3, r2
     608:	ea4f 03c3 	mov.w	r3, r3, lsl #3
     60c:	461a      	mov	r2, r3
     60e:	4b31      	ldr	r3, [pc, #196]	; (6d4 <RemoveTmrList+0xe0>)
     610:	18d3      	adds	r3, r2, r3
     612:	60fb      	str	r3, [r7, #12]
     614:	4b30      	ldr	r3, [pc, #192]	; (6d8 <RemoveTmrList+0xe4>)
     616:	781b      	ldrb	r3, [r3, #0]
     618:	b2db      	uxtb	r3, r3
     61a:	f103 0301 	add.w	r3, r3, #1
     61e:	b2da      	uxtb	r2, r3
     620:	4b2d      	ldr	r3, [pc, #180]	; (6d8 <RemoveTmrList+0xe4>)
     622:	701a      	strb	r2, [r3, #0]
     624:	68fb      	ldr	r3, [r7, #12]
     626:	695b      	ldr	r3, [r3, #20]
     628:	2b00      	cmp	r3, #0
     62a:	d108      	bne.n	63e <RemoveTmrList+0x4a>
     62c:	68fb      	ldr	r3, [r7, #12]
     62e:	691b      	ldr	r3, [r3, #16]
     630:	2b00      	cmp	r3, #0
     632:	d104      	bne.n	63e <RemoveTmrList+0x4a>
     634:	4b29      	ldr	r3, [pc, #164]	; (6dc <RemoveTmrList+0xe8>)
     636:	f04f 0200 	mov.w	r2, #0
     63a:	601a      	str	r2, [r3, #0]
     63c:	e043      	b.n	6c6 <RemoveTmrList+0xd2>
     63e:	68fb      	ldr	r3, [r7, #12]
     640:	695b      	ldr	r3, [r3, #20]
     642:	2b00      	cmp	r3, #0
     644:	d116      	bne.n	674 <RemoveTmrList+0x80>
     646:	68fb      	ldr	r3, [r7, #12]
     648:	691a      	ldr	r2, [r3, #16]
     64a:	4b24      	ldr	r3, [pc, #144]	; (6dc <RemoveTmrList+0xe8>)
     64c:	601a      	str	r2, [r3, #0]
     64e:	4b23      	ldr	r3, [pc, #140]	; (6dc <RemoveTmrList+0xe8>)
     650:	681b      	ldr	r3, [r3, #0]
     652:	f04f 0200 	mov.w	r2, #0
     656:	615a      	str	r2, [r3, #20]
     658:	68fb      	ldr	r3, [r7, #12]
     65a:	691b      	ldr	r3, [r3, #16]
     65c:	68fa      	ldr	r2, [r7, #12]
     65e:	6912      	ldr	r2, [r2, #16]
     660:	6851      	ldr	r1, [r2, #4]
     662:	68fa      	ldr	r2, [r7, #12]
     664:	6852      	ldr	r2, [r2, #4]
     666:	188a      	adds	r2, r1, r2
     668:	605a      	str	r2, [r3, #4]
     66a:	68fb      	ldr	r3, [r7, #12]
     66c:	f04f 0200 	mov.w	r2, #0
     670:	611a      	str	r2, [r3, #16]
     672:	e028      	b.n	6c6 <RemoveTmrList+0xd2>
     674:	68fb      	ldr	r3, [r7, #12]
     676:	691b      	ldr	r3, [r3, #16]
     678:	2b00      	cmp	r3, #0
     67a:	d109      	bne.n	690 <RemoveTmrList+0x9c>
     67c:	68fb      	ldr	r3, [r7, #12]
     67e:	695b      	ldr	r3, [r3, #20]
     680:	f04f 0200 	mov.w	r2, #0
     684:	611a      	str	r2, [r3, #16]
     686:	68fb      	ldr	r3, [r7, #12]
     688:	f04f 0200 	mov.w	r2, #0
     68c:	615a      	str	r2, [r3, #20]
     68e:	e01a      	b.n	6c6 <RemoveTmrList+0xd2>
     690:	68fb      	ldr	r3, [r7, #12]
     692:	695b      	ldr	r3, [r3, #20]
     694:	68fa      	ldr	r2, [r7, #12]
     696:	6912      	ldr	r2, [r2, #16]
     698:	611a      	str	r2, [r3, #16]
     69a:	68fb      	ldr	r3, [r7, #12]
     69c:	691b      	ldr	r3, [r3, #16]
     69e:	68fa      	ldr	r2, [r7, #12]
     6a0:	6952      	ldr	r2, [r2, #20]
     6a2:	615a      	str	r2, [r3, #20]
     6a4:	68fb      	ldr	r3, [r7, #12]
     6a6:	691b      	ldr	r3, [r3, #16]
     6a8:	68fa      	ldr	r2, [r7, #12]
     6aa:	6912      	ldr	r2, [r2, #16]
     6ac:	6851      	ldr	r1, [r2, #4]
     6ae:	68fa      	ldr	r2, [r7, #12]
     6b0:	6852      	ldr	r2, [r2, #4]
     6b2:	188a      	adds	r2, r1, r2
     6b4:	605a      	str	r2, [r3, #4]
     6b6:	68fb      	ldr	r3, [r7, #12]
     6b8:	f04f 0200 	mov.w	r2, #0
     6bc:	611a      	str	r2, [r3, #16]
     6be:	68fb      	ldr	r3, [r7, #12]
     6c0:	f04f 0200 	mov.w	r2, #0
     6c4:	615a      	str	r2, [r3, #20]
     6c6:	f7ff fd9f 	bl	208 <OsSchedUnlock>
     6ca:	f107 0710 	add.w	r7, r7, #16
     6ce:	46bd      	mov	sp, r7
     6d0:	bd80      	pop	{r7, pc}
     6d2:	bf00      	nop
     6d4:	10000240 	.word	0x10000240
     6d8:	10000235 	.word	0x10000235
     6dc:	10000270 	.word	0x10000270

000006e0 <TmrDispose>:
     6e0:	b580      	push	{r7, lr}
     6e2:	b082      	sub	sp, #8
     6e4:	af00      	add	r7, sp, #0
     6e6:	4b1c      	ldr	r3, [pc, #112]	; (758 <TmrDispose+0x78>)
     6e8:	681b      	ldr	r3, [r3, #0]
     6ea:	607b      	str	r3, [r7, #4]
     6ec:	e028      	b.n	740 <TmrDispose+0x60>
     6ee:	687b      	ldr	r3, [r7, #4]
     6f0:	785b      	ldrb	r3, [r3, #1]
     6f2:	2b00      	cmp	r3, #0
     6f4:	d10c      	bne.n	710 <TmrDispose+0x30>
     6f6:	687b      	ldr	r3, [r7, #4]
     6f8:	781b      	ldrb	r3, [r3, #0]
     6fa:	4618      	mov	r0, r3
     6fc:	f7ff ff7a 	bl	5f4 <RemoveTmrList>
     700:	687b      	ldr	r3, [r7, #4]
     702:	f04f 0201 	mov.w	r2, #1
     706:	709a      	strb	r2, [r3, #2]
     708:	687b      	ldr	r3, [r7, #4]
     70a:	68db      	ldr	r3, [r3, #12]
     70c:	4798      	blx	r3
     70e:	e014      	b.n	73a <TmrDispose+0x5a>
     710:	687b      	ldr	r3, [r7, #4]
     712:	785b      	ldrb	r3, [r3, #1]
     714:	2b01      	cmp	r3, #1
     716:	d110      	bne.n	73a <TmrDispose+0x5a>
     718:	687b      	ldr	r3, [r7, #4]
     71a:	781b      	ldrb	r3, [r3, #0]
     71c:	4618      	mov	r0, r3
     71e:	f7ff ff69 	bl	5f4 <RemoveTmrList>
     722:	687b      	ldr	r3, [r7, #4]
     724:	689a      	ldr	r2, [r3, #8]
     726:	687b      	ldr	r3, [r7, #4]
     728:	605a      	str	r2, [r3, #4]
     72a:	687b      	ldr	r3, [r7, #4]
     72c:	781b      	ldrb	r3, [r3, #0]
     72e:	4618      	mov	r0, r3
     730:	f7ff fe3c 	bl	3ac <InsertTmrList>
     734:	687b      	ldr	r3, [r7, #4]
     736:	68db      	ldr	r3, [r3, #12]
     738:	4798      	blx	r3
     73a:	4b07      	ldr	r3, [pc, #28]	; (758 <TmrDispose+0x78>)
     73c:	681b      	ldr	r3, [r3, #0]
     73e:	607b      	str	r3, [r7, #4]
     740:	687b      	ldr	r3, [r7, #4]
     742:	2b00      	cmp	r3, #0
     744:	d003      	beq.n	74e <TmrDispose+0x6e>
     746:	687b      	ldr	r3, [r7, #4]
     748:	685b      	ldr	r3, [r3, #4]
     74a:	2b00      	cmp	r3, #0
     74c:	d0cf      	beq.n	6ee <TmrDispose+0xe>
     74e:	f107 0708 	add.w	r7, r7, #8
     752:	46bd      	mov	sp, r7
     754:	bd80      	pop	{r7, pc}
     756:	bf00      	nop
     758:	10000270 	.word	0x10000270

0000075c <isr_TmrDispose>:
     75c:	b580      	push	{r7, lr}
     75e:	af00      	add	r7, sp, #0
     760:	4b08      	ldr	r3, [pc, #32]	; (784 <isr_TmrDispose+0x28>)
     762:	781b      	ldrb	r3, [r3, #0]
     764:	b2db      	uxtb	r3, r3
     766:	2b01      	cmp	r3, #1
     768:	d908      	bls.n	77c <isr_TmrDispose+0x20>
     76a:	4b07      	ldr	r3, [pc, #28]	; (788 <isr_TmrDispose+0x2c>)
     76c:	f04f 0201 	mov.w	r2, #1
     770:	701a      	strb	r2, [r3, #0]
     772:	4b06      	ldr	r3, [pc, #24]	; (78c <isr_TmrDispose+0x30>)
     774:	f04f 0201 	mov.w	r2, #1
     778:	701a      	strb	r2, [r3, #0]
     77a:	e001      	b.n	780 <isr_TmrDispose+0x24>
     77c:	f7ff ffb0 	bl	6e0 <TmrDispose>
     780:	bd80      	pop	{r7, pc}
     782:	bf00      	nop
     784:	10000235 	.word	0x10000235
     788:	10000644 	.word	0x10000644
     78c:	10000646 	.word	0x10000646

00000790 <CLKPWR_GetPCLKSEL>:
     790:	b480      	push	{r7}
     792:	b085      	sub	sp, #20
     794:	af00      	add	r7, sp, #0
     796:	6078      	str	r0, [r7, #4]
     798:	687b      	ldr	r3, [r7, #4]
     79a:	2b1f      	cmp	r3, #31
     79c:	d806      	bhi.n	7ac <CLKPWR_GetPCLKSEL+0x1c>
     79e:	687b      	ldr	r3, [r7, #4]
     7a0:	60fb      	str	r3, [r7, #12]
     7a2:	4b0d      	ldr	r3, [pc, #52]	; (7d8 <CLKPWR_GetPCLKSEL+0x48>)
     7a4:	f8d3 31a8 	ldr.w	r3, [r3, #424]	; 0x1a8
     7a8:	60bb      	str	r3, [r7, #8]
     7aa:	e007      	b.n	7bc <CLKPWR_GetPCLKSEL+0x2c>
     7ac:	687b      	ldr	r3, [r7, #4]
     7ae:	f1a3 0320 	sub.w	r3, r3, #32
     7b2:	60fb      	str	r3, [r7, #12]
     7b4:	4b08      	ldr	r3, [pc, #32]	; (7d8 <CLKPWR_GetPCLKSEL+0x48>)
     7b6:	f8d3 31ac 	ldr.w	r3, [r3, #428]	; 0x1ac
     7ba:	60bb      	str	r3, [r7, #8]
     7bc:	68fb      	ldr	r3, [r7, #12]
     7be:	68ba      	ldr	r2, [r7, #8]
     7c0:	fa22 f303 	lsr.w	r3, r2, r3
     7c4:	f003 0303 	and.w	r3, r3, #3
     7c8:	60bb      	str	r3, [r7, #8]
     7ca:	68bb      	ldr	r3, [r7, #8]
     7cc:	4618      	mov	r0, r3
     7ce:	f107 0714 	add.w	r7, r7, #20
     7d2:	46bd      	mov	sp, r7
     7d4:	bc80      	pop	{r7}
     7d6:	4770      	bx	lr
     7d8:	400fc000 	.word	0x400fc000

000007dc <CLKPWR_GetPCLK>:
     7dc:	b580      	push	{r7, lr}
     7de:	b084      	sub	sp, #16
     7e0:	af00      	add	r7, sp, #0
     7e2:	6078      	str	r0, [r7, #4]
     7e4:	4b18      	ldr	r3, [pc, #96]	; (848 <CLKPWR_GetPCLK+0x6c>)
     7e6:	681b      	ldr	r3, [r3, #0]
     7e8:	60bb      	str	r3, [r7, #8]
     7ea:	6878      	ldr	r0, [r7, #4]
     7ec:	f7ff ffd0 	bl	790 <CLKPWR_GetPCLKSEL>
     7f0:	60f8      	str	r0, [r7, #12]
     7f2:	68fb      	ldr	r3, [r7, #12]
     7f4:	2b03      	cmp	r3, #3
     7f6:	d81b      	bhi.n	830 <CLKPWR_GetPCLK+0x54>
     7f8:	a201      	add	r2, pc, #4	; (adr r2, 800 <CLKPWR_GetPCLK+0x24>)
     7fa:	f852 f023 	ldr.w	pc, [r2, r3, lsl #2]
     7fe:	bf00      	nop
     800:	00000811 	.word	0x00000811
     804:	00000819 	.word	0x00000819
     808:	00000821 	.word	0x00000821
     80c:	00000829 	.word	0x00000829
     810:	f04f 0304 	mov.w	r3, #4
     814:	60fb      	str	r3, [r7, #12]
     816:	e00b      	b.n	830 <CLKPWR_GetPCLK+0x54>
     818:	f04f 0301 	mov.w	r3, #1
     81c:	60fb      	str	r3, [r7, #12]
     81e:	e007      	b.n	830 <CLKPWR_GetPCLK+0x54>
     820:	f04f 0302 	mov.w	r3, #2
     824:	60fb      	str	r3, [r7, #12]
     826:	e003      	b.n	830 <CLKPWR_GetPCLK+0x54>
     828:	f04f 0308 	mov.w	r3, #8
     82c:	60fb      	str	r3, [r7, #12]
     82e:	bf00      	nop
     830:	68ba      	ldr	r2, [r7, #8]
     832:	68fb      	ldr	r3, [r7, #12]
     834:	fbb2 f3f3 	udiv	r3, r2, r3
     838:	60bb      	str	r3, [r7, #8]
     83a:	68bb      	ldr	r3, [r7, #8]
     83c:	4618      	mov	r0, r3
     83e:	f107 0710 	add.w	r7, r7, #16
     842:	46bd      	mov	sp, r7
     844:	bd80      	pop	{r7, pc}
     846:	bf00      	nop
     848:	10000000 	.word	0x10000000

0000084c <CLKPWR_ConfigPPWR>:
     84c:	b480      	push	{r7}
     84e:	b083      	sub	sp, #12
     850:	af00      	add	r7, sp, #0
     852:	6078      	str	r0, [r7, #4]
     854:	460b      	mov	r3, r1
     856:	70fb      	strb	r3, [r7, #3]
     858:	78fb      	ldrb	r3, [r7, #3]
     85a:	2b01      	cmp	r3, #1
     85c:	d10c      	bne.n	878 <CLKPWR_ConfigPPWR+0x2c>
     85e:	4a11      	ldr	r2, [pc, #68]	; (8a4 <CLKPWR_ConfigPPWR+0x58>)
     860:	4b10      	ldr	r3, [pc, #64]	; (8a4 <CLKPWR_ConfigPPWR+0x58>)
     862:	f8d3 10c4 	ldr.w	r1, [r3, #196]	; 0xc4
     866:	6878      	ldr	r0, [r7, #4]
     868:	4b0f      	ldr	r3, [pc, #60]	; (8a8 <CLKPWR_ConfigPPWR+0x5c>)
     86a:	ea00 0303 	and.w	r3, r0, r3
     86e:	ea41 0303 	orr.w	r3, r1, r3
     872:	f8c2 30c4 	str.w	r3, [r2, #196]	; 0xc4
     876:	e00f      	b.n	898 <CLKPWR_ConfigPPWR+0x4c>
     878:	78fb      	ldrb	r3, [r7, #3]
     87a:	2b00      	cmp	r3, #0
     87c:	d10c      	bne.n	898 <CLKPWR_ConfigPPWR+0x4c>
     87e:	4a09      	ldr	r2, [pc, #36]	; (8a4 <CLKPWR_ConfigPPWR+0x58>)
     880:	4b08      	ldr	r3, [pc, #32]	; (8a4 <CLKPWR_ConfigPPWR+0x58>)
     882:	f8d3 10c4 	ldr.w	r1, [r3, #196]	; 0xc4
     886:	687b      	ldr	r3, [r7, #4]
     888:	ea6f 0303 	mvn.w	r3, r3
     88c:	4019      	ands	r1, r3
     88e:	4b06      	ldr	r3, [pc, #24]	; (8a8 <CLKPWR_ConfigPPWR+0x5c>)
     890:	ea01 0303 	and.w	r3, r1, r3
     894:	f8c2 30c4 	str.w	r3, [r2, #196]	; 0xc4
     898:	f107 070c 	add.w	r7, r7, #12
     89c:	46bd      	mov	sp, r7
     89e:	bc80      	pop	{r7}
     8a0:	4770      	bx	lr
     8a2:	bf00      	nop
     8a4:	400fc000 	.word	0x400fc000
     8a8:	efeff7de 	.word	0xefeff7de

000008ac <mdw_log_error>:
     8ac:	b480      	push	{r7}
     8ae:	b085      	sub	sp, #20
     8b0:	af00      	add	r7, sp, #0
     8b2:	60f8      	str	r0, [r7, #12]
     8b4:	60b9      	str	r1, [r7, #8]
     8b6:	607a      	str	r2, [r7, #4]
     8b8:	603b      	str	r3, [r7, #0]
     8ba:	be00      	bkpt	0x0000
     8bc:	e7fe      	b.n	8bc <mdw_log_error+0x10>
     8be:	bf00      	nop

000008c0 <SystemInit>:
     8c0:	b480      	push	{r7}
     8c2:	af00      	add	r7, sp, #0
     8c4:	4b5a      	ldr	r3, [pc, #360]	; (a30 <SystemInit+0x170>)
     8c6:	f04f 0220 	mov.w	r2, #32
     8ca:	f8c3 21a0 	str.w	r2, [r3, #416]	; 0x1a0
     8ce:	4b58      	ldr	r3, [pc, #352]	; (a30 <SystemInit+0x170>)
     8d0:	f8d3 31a0 	ldr.w	r3, [r3, #416]	; 0x1a0
     8d4:	f003 0320 	and.w	r3, r3, #32
     8d8:	2b00      	cmp	r3, #0
     8da:	d007      	beq.n	8ec <SystemInit+0x2c>
     8dc:	bf00      	nop
     8de:	4b54      	ldr	r3, [pc, #336]	; (a30 <SystemInit+0x170>)
     8e0:	f8d3 31a0 	ldr.w	r3, [r3, #416]	; 0x1a0
     8e4:	f003 0340 	and.w	r3, r3, #64	; 0x40
     8e8:	2b00      	cmp	r3, #0
     8ea:	d0f8      	beq.n	8de <SystemInit+0x1e>
     8ec:	4b50      	ldr	r3, [pc, #320]	; (a30 <SystemInit+0x170>)
     8ee:	f04f 0203 	mov.w	r2, #3
     8f2:	f8c3 2104 	str.w	r2, [r3, #260]	; 0x104
     8f6:	4b4e      	ldr	r3, [pc, #312]	; (a30 <SystemInit+0x170>)
     8f8:	f04f 0200 	mov.w	r2, #0
     8fc:	f8c3 21a8 	str.w	r2, [r3, #424]	; 0x1a8
     900:	4b4b      	ldr	r3, [pc, #300]	; (a30 <SystemInit+0x170>)
     902:	f04f 0200 	mov.w	r2, #0
     906:	f8c3 21ac 	str.w	r2, [r3, #428]	; 0x1ac
     90a:	4b49      	ldr	r3, [pc, #292]	; (a30 <SystemInit+0x170>)
     90c:	f04f 0201 	mov.w	r2, #1
     910:	f8c3 210c 	str.w	r2, [r3, #268]	; 0x10c
     914:	4b46      	ldr	r3, [pc, #280]	; (a30 <SystemInit+0x170>)
     916:	4a47      	ldr	r2, [pc, #284]	; (a34 <SystemInit+0x174>)
     918:	f8c3 2084 	str.w	r2, [r3, #132]	; 0x84
     91c:	4b44      	ldr	r3, [pc, #272]	; (a30 <SystemInit+0x170>)
     91e:	f04f 02aa 	mov.w	r2, #170	; 0xaa
     922:	f8c3 208c 	str.w	r2, [r3, #140]	; 0x8c
     926:	4b42      	ldr	r3, [pc, #264]	; (a30 <SystemInit+0x170>)
     928:	f04f 0255 	mov.w	r2, #85	; 0x55
     92c:	f8c3 208c 	str.w	r2, [r3, #140]	; 0x8c
     930:	4b3f      	ldr	r3, [pc, #252]	; (a30 <SystemInit+0x170>)
     932:	f04f 0201 	mov.w	r2, #1
     936:	f8c3 2080 	str.w	r2, [r3, #128]	; 0x80
     93a:	4b3d      	ldr	r3, [pc, #244]	; (a30 <SystemInit+0x170>)
     93c:	f04f 02aa 	mov.w	r2, #170	; 0xaa
     940:	f8c3 208c 	str.w	r2, [r3, #140]	; 0x8c
     944:	4b3a      	ldr	r3, [pc, #232]	; (a30 <SystemInit+0x170>)
     946:	f04f 0255 	mov.w	r2, #85	; 0x55
     94a:	f8c3 208c 	str.w	r2, [r3, #140]	; 0x8c
     94e:	bf00      	nop
     950:	4b37      	ldr	r3, [pc, #220]	; (a30 <SystemInit+0x170>)
     952:	f8d3 3088 	ldr.w	r3, [r3, #136]	; 0x88
     956:	f003 6380 	and.w	r3, r3, #67108864	; 0x4000000
     95a:	2b00      	cmp	r3, #0
     95c:	d0f8      	beq.n	950 <SystemInit+0x90>
     95e:	4b34      	ldr	r3, [pc, #208]	; (a30 <SystemInit+0x170>)
     960:	f04f 0203 	mov.w	r2, #3
     964:	f8c3 2080 	str.w	r2, [r3, #128]	; 0x80
     968:	4b31      	ldr	r3, [pc, #196]	; (a30 <SystemInit+0x170>)
     96a:	f04f 02aa 	mov.w	r2, #170	; 0xaa
     96e:	f8c3 208c 	str.w	r2, [r3, #140]	; 0x8c
     972:	4b2f      	ldr	r3, [pc, #188]	; (a30 <SystemInit+0x170>)
     974:	f04f 0255 	mov.w	r2, #85	; 0x55
     978:	f8c3 208c 	str.w	r2, [r3, #140]	; 0x8c
     97c:	bf00      	nop
     97e:	4b2c      	ldr	r3, [pc, #176]	; (a30 <SystemInit+0x170>)
     980:	f8d3 3088 	ldr.w	r3, [r3, #136]	; 0x88
     984:	f003 7340 	and.w	r3, r3, #50331648	; 0x3000000
     988:	2b00      	cmp	r3, #0
     98a:	d0f8      	beq.n	97e <SystemInit+0xbe>
     98c:	4b28      	ldr	r3, [pc, #160]	; (a30 <SystemInit+0x170>)
     98e:	f04f 0223 	mov.w	r2, #35	; 0x23
     992:	f8c3 20a4 	str.w	r2, [r3, #164]	; 0xa4
     996:	4b26      	ldr	r3, [pc, #152]	; (a30 <SystemInit+0x170>)
     998:	f04f 02aa 	mov.w	r2, #170	; 0xaa
     99c:	f8c3 20ac 	str.w	r2, [r3, #172]	; 0xac
     9a0:	4b23      	ldr	r3, [pc, #140]	; (a30 <SystemInit+0x170>)
     9a2:	f04f 0255 	mov.w	r2, #85	; 0x55
     9a6:	f8c3 20ac 	str.w	r2, [r3, #172]	; 0xac
     9aa:	4b21      	ldr	r3, [pc, #132]	; (a30 <SystemInit+0x170>)
     9ac:	f04f 0201 	mov.w	r2, #1
     9b0:	f8c3 20a0 	str.w	r2, [r3, #160]	; 0xa0
     9b4:	4b1e      	ldr	r3, [pc, #120]	; (a30 <SystemInit+0x170>)
     9b6:	f04f 02aa 	mov.w	r2, #170	; 0xaa
     9ba:	f8c3 20ac 	str.w	r2, [r3, #172]	; 0xac
     9be:	4b1c      	ldr	r3, [pc, #112]	; (a30 <SystemInit+0x170>)
     9c0:	f04f 0255 	mov.w	r2, #85	; 0x55
     9c4:	f8c3 20ac 	str.w	r2, [r3, #172]	; 0xac
     9c8:	bf00      	nop
     9ca:	4b19      	ldr	r3, [pc, #100]	; (a30 <SystemInit+0x170>)
     9cc:	f8d3 30a8 	ldr.w	r3, [r3, #168]	; 0xa8
     9d0:	f403 6380 	and.w	r3, r3, #1024	; 0x400
     9d4:	2b00      	cmp	r3, #0
     9d6:	d0f8      	beq.n	9ca <SystemInit+0x10a>
     9d8:	4b15      	ldr	r3, [pc, #84]	; (a30 <SystemInit+0x170>)
     9da:	f04f 0203 	mov.w	r2, #3
     9de:	f8c3 20a0 	str.w	r2, [r3, #160]	; 0xa0
     9e2:	4b13      	ldr	r3, [pc, #76]	; (a30 <SystemInit+0x170>)
     9e4:	f04f 02aa 	mov.w	r2, #170	; 0xaa
     9e8:	f8c3 20ac 	str.w	r2, [r3, #172]	; 0xac
     9ec:	4b10      	ldr	r3, [pc, #64]	; (a30 <SystemInit+0x170>)
     9ee:	f04f 0255 	mov.w	r2, #85	; 0x55
     9f2:	f8c3 20ac 	str.w	r2, [r3, #172]	; 0xac
     9f6:	bf00      	nop
     9f8:	4b0d      	ldr	r3, [pc, #52]	; (a30 <SystemInit+0x170>)
     9fa:	f8d3 30a8 	ldr.w	r3, [r3, #168]	; 0xa8
     9fe:	f403 7340 	and.w	r3, r3, #768	; 0x300
     a02:	2b00      	cmp	r3, #0
     a04:	d0f8      	beq.n	9f8 <SystemInit+0x138>
     a06:	4b0a      	ldr	r3, [pc, #40]	; (a30 <SystemInit+0x170>)
     a08:	4a0b      	ldr	r2, [pc, #44]	; (a38 <SystemInit+0x178>)
     a0a:	f8c3 20c4 	str.w	r2, [r3, #196]	; 0xc4
     a0e:	4b08      	ldr	r3, [pc, #32]	; (a30 <SystemInit+0x170>)
     a10:	f04f 0200 	mov.w	r2, #0
     a14:	f8c3 21c8 	str.w	r2, [r3, #456]	; 0x1c8
     a18:	4b05      	ldr	r3, [pc, #20]	; (a30 <SystemInit+0x170>)
     a1a:	f243 023a 	movw	r2, #12346	; 0x303a
     a1e:	601a      	str	r2, [r3, #0]
     a20:	4b06      	ldr	r3, [pc, #24]	; (a3c <SystemInit+0x17c>)
     a22:	f04f 0200 	mov.w	r2, #0
     a26:	609a      	str	r2, [r3, #8]
     a28:	46bd      	mov	sp, r7
     a2a:	bc80      	pop	{r7}
     a2c:	4770      	bx	lr
     a2e:	bf00      	nop
     a30:	400fc000 	.word	0x400fc000
     a34:	00050063 	.word	0x00050063
     a38:	042887de 	.word	0x042887de
     a3c:	e000ed00 	.word	0xe000ed00

00000a40 <drv_led_load>:
     a40:	b480      	push	{r7}
     a42:	af00      	add	r7, sp, #0
     a44:	4b0c      	ldr	r3, [pc, #48]	; (a78 <drv_led_load+0x38>)
     a46:	f04f 0200 	mov.w	r2, #0
     a4a:	611a      	str	r2, [r3, #16]
     a4c:	4a0b      	ldr	r2, [pc, #44]	; (a7c <drv_led_load+0x3c>)
     a4e:	4b0b      	ldr	r3, [pc, #44]	; (a7c <drv_led_load+0x3c>)
     a50:	691b      	ldr	r3, [r3, #16]
     a52:	ea4f 4313 	mov.w	r3, r3, lsr #16
     a56:	ea4f 4303 	mov.w	r3, r3, lsl #16
     a5a:	6113      	str	r3, [r2, #16]
     a5c:	4b06      	ldr	r3, [pc, #24]	; (a78 <drv_led_load+0x38>)
     a5e:	4a06      	ldr	r2, [pc, #24]	; (a78 <drv_led_load+0x38>)
     a60:	6812      	ldr	r2, [r2, #0]
     a62:	f042 02ff 	orr.w	r2, r2, #255	; 0xff
     a66:	601a      	str	r2, [r3, #0]
     a68:	4b03      	ldr	r3, [pc, #12]	; (a78 <drv_led_load+0x38>)
     a6a:	f04f 02ff 	mov.w	r2, #255	; 0xff
     a6e:	61da      	str	r2, [r3, #28]
     a70:	46bd      	mov	sp, r7
     a72:	bc80      	pop	{r7}
     a74:	4770      	bx	lr
     a76:	bf00      	nop
     a78:	2009c040 	.word	0x2009c040
     a7c:	4002c000 	.word	0x4002c000

00000a80 <drv_led_open>:
     a80:	b580      	push	{r7, lr}
     a82:	b082      	sub	sp, #8
     a84:	af02      	add	r7, sp, #8
     a86:	4b0d      	ldr	r3, [pc, #52]	; (abc <drv_led_open+0x3c>)
     a88:	f04f 0200 	mov.w	r2, #0
     a8c:	701a      	strb	r2, [r3, #0]
     a8e:	f001 fdef 	bl	2670 <CoCreateMutex>
     a92:	4603      	mov	r3, r0
     a94:	461a      	mov	r2, r3
     a96:	4b0a      	ldr	r3, [pc, #40]	; (ac0 <drv_led_open+0x40>)
     a98:	701a      	strb	r2, [r3, #0]
     a9a:	4b09      	ldr	r3, [pc, #36]	; (ac0 <drv_led_open+0x40>)
     a9c:	781b      	ldrb	r3, [r3, #0]
     a9e:	2bff      	cmp	r3, #255	; 0xff
     aa0:	d10a      	bne.n	ab8 <drv_led_open+0x38>
     aa2:	f04f 0312 	mov.w	r3, #18
     aa6:	9300      	str	r3, [sp, #0]
     aa8:	4806      	ldr	r0, [pc, #24]	; (ac4 <drv_led_open+0x44>)
     aaa:	f04f 010c 	mov.w	r1, #12
     aae:	f04f 0229 	mov.w	r2, #41	; 0x29
     ab2:	4b05      	ldr	r3, [pc, #20]	; (ac8 <drv_led_open+0x48>)
     ab4:	f7ff fefa 	bl	8ac <mdw_log_error>
     ab8:	46bd      	mov	sp, r7
     aba:	bd80      	pop	{r7, pc}
     abc:	1000047c 	.word	0x1000047c
     ac0:	10000278 	.word	0x10000278
     ac4:	000072a0 	.word	0x000072a0
     ac8:	00007244 	.word	0x00007244

00000acc <drv_led_start>:
     acc:	b580      	push	{r7, lr}
     ace:	b082      	sub	sp, #8
     ad0:	af00      	add	r7, sp, #0
     ad2:	4603      	mov	r3, r0
     ad4:	6039      	str	r1, [r7, #0]
     ad6:	71fb      	strb	r3, [r7, #7]
     ad8:	4b14      	ldr	r3, [pc, #80]	; (b2c <drv_led_start+0x60>)
     ada:	781b      	ldrb	r3, [r3, #0]
     adc:	4618      	mov	r0, r3
     ade:	f001 fe0d 	bl	26fc <CoEnterMutexSection>
     ae2:	4b13      	ldr	r3, [pc, #76]	; (b30 <drv_led_start+0x64>)
     ae4:	79fa      	ldrb	r2, [r7, #7]
     ae6:	701a      	strb	r2, [r3, #0]
     ae8:	4b11      	ldr	r3, [pc, #68]	; (b30 <drv_led_start+0x64>)
     aea:	683a      	ldr	r2, [r7, #0]
     aec:	605a      	str	r2, [r3, #4]
     aee:	4b0f      	ldr	r3, [pc, #60]	; (b2c <drv_led_start+0x60>)
     af0:	781b      	ldrb	r3, [r3, #0]
     af2:	4618      	mov	r0, r3
     af4:	f001 fece 	bl	2894 <CoLeaveMutexSection>
     af8:	4b0e      	ldr	r3, [pc, #56]	; (b34 <drv_led_start+0x68>)
     afa:	781b      	ldrb	r3, [r3, #0]
     afc:	2b00      	cmp	r3, #0
     afe:	d000      	beq.n	b02 <drv_led_start+0x36>
     b00:	e7fe      	b.n	b00 <drv_led_start+0x34>
     b02:	480d      	ldr	r0, [pc, #52]	; (b38 <drv_led_start+0x6c>)
     b04:	490a      	ldr	r1, [pc, #40]	; (b30 <drv_led_start+0x64>)
     b06:	f44f 4200 	mov.w	r2, #32768	; 0x8000
     b0a:	4b0c      	ldr	r3, [pc, #48]	; (b3c <drv_led_start+0x70>)
     b0c:	f000 fbbc 	bl	1288 <CreateTask>
     b10:	4603      	mov	r3, r0
     b12:	461a      	mov	r2, r3
     b14:	4b07      	ldr	r3, [pc, #28]	; (b34 <drv_led_start+0x68>)
     b16:	701a      	strb	r2, [r3, #0]
     b18:	4b06      	ldr	r3, [pc, #24]	; (b34 <drv_led_start+0x68>)
     b1a:	781b      	ldrb	r3, [r3, #0]
     b1c:	2bff      	cmp	r3, #255	; 0xff
     b1e:	d100      	bne.n	b22 <drv_led_start+0x56>
     b20:	e7fe      	b.n	b20 <drv_led_start+0x54>
     b22:	f107 0708 	add.w	r7, r7, #8
     b26:	46bd      	mov	sp, r7
     b28:	bd80      	pop	{r7, pc}
     b2a:	bf00      	nop
     b2c:	10000278 	.word	0x10000278
     b30:	10000480 	.word	0x10000480
     b34:	1000047c 	.word	0x1000047c
     b38:	00000c01 	.word	0x00000c01
     b3c:	10000478 	.word	0x10000478

00000b40 <drv_led_stop>:
     b40:	b580      	push	{r7, lr}
     b42:	b084      	sub	sp, #16
     b44:	af02      	add	r7, sp, #8
     b46:	4b0e      	ldr	r3, [pc, #56]	; (b80 <drv_led_stop+0x40>)
     b48:	781b      	ldrb	r3, [r3, #0]
     b4a:	4618      	mov	r0, r3
     b4c:	f000 fc42 	bl	13d4 <CoDelTask>
     b50:	4603      	mov	r3, r0
     b52:	71fb      	strb	r3, [r7, #7]
     b54:	79fb      	ldrb	r3, [r7, #7]
     b56:	2b00      	cmp	r3, #0
     b58:	d00a      	beq.n	b70 <drv_led_stop+0x30>
     b5a:	f04f 0311 	mov.w	r3, #17
     b5e:	9300      	str	r3, [sp, #0]
     b60:	4808      	ldr	r0, [pc, #32]	; (b84 <drv_led_stop+0x44>)
     b62:	f04f 010c 	mov.w	r1, #12
     b66:	f04f 0245 	mov.w	r2, #69	; 0x45
     b6a:	4b07      	ldr	r3, [pc, #28]	; (b88 <drv_led_stop+0x48>)
     b6c:	f7ff fe9e 	bl	8ac <mdw_log_error>
     b70:	4b03      	ldr	r3, [pc, #12]	; (b80 <drv_led_stop+0x40>)
     b72:	f04f 0200 	mov.w	r2, #0
     b76:	701a      	strb	r2, [r3, #0]
     b78:	f107 0708 	add.w	r7, r7, #8
     b7c:	46bd      	mov	sp, r7
     b7e:	bd80      	pop	{r7, pc}
     b80:	1000047c 	.word	0x1000047c
     b84:	00007290 	.word	0x00007290
     b88:	00007258 	.word	0x00007258

00000b8c <drv_led_speed>:
     b8c:	b580      	push	{r7, lr}
     b8e:	b082      	sub	sp, #8
     b90:	af00      	add	r7, sp, #0
     b92:	6078      	str	r0, [r7, #4]
     b94:	4b08      	ldr	r3, [pc, #32]	; (bb8 <drv_led_speed+0x2c>)
     b96:	781b      	ldrb	r3, [r3, #0]
     b98:	4618      	mov	r0, r3
     b9a:	f001 fdaf 	bl	26fc <CoEnterMutexSection>
     b9e:	4b07      	ldr	r3, [pc, #28]	; (bbc <drv_led_speed+0x30>)
     ba0:	687a      	ldr	r2, [r7, #4]
     ba2:	605a      	str	r2, [r3, #4]
     ba4:	4b04      	ldr	r3, [pc, #16]	; (bb8 <drv_led_speed+0x2c>)
     ba6:	781b      	ldrb	r3, [r3, #0]
     ba8:	4618      	mov	r0, r3
     baa:	f001 fe73 	bl	2894 <CoLeaveMutexSection>
     bae:	f107 0708 	add.w	r7, r7, #8
     bb2:	46bd      	mov	sp, r7
     bb4:	bd80      	pop	{r7, pc}
     bb6:	bf00      	nop
     bb8:	10000278 	.word	0x10000278
     bbc:	10000480 	.word	0x10000480

00000bc0 <drv_led_set>:
     bc0:	b480      	push	{r7}
     bc2:	b083      	sub	sp, #12
     bc4:	af00      	add	r7, sp, #0
     bc6:	4603      	mov	r3, r0
     bc8:	71fb      	strb	r3, [r7, #7]
     bca:	4b04      	ldr	r3, [pc, #16]	; (bdc <drv_led_set+0x1c>)
     bcc:	79fa      	ldrb	r2, [r7, #7]
     bce:	619a      	str	r2, [r3, #24]
     bd0:	f107 070c 	add.w	r7, r7, #12
     bd4:	46bd      	mov	sp, r7
     bd6:	bc80      	pop	{r7}
     bd8:	4770      	bx	lr
     bda:	bf00      	nop
     bdc:	2009c040 	.word	0x2009c040

00000be0 <drv_led_clear>:
     be0:	b480      	push	{r7}
     be2:	b083      	sub	sp, #12
     be4:	af00      	add	r7, sp, #0
     be6:	4603      	mov	r3, r0
     be8:	71fb      	strb	r3, [r7, #7]
     bea:	4b04      	ldr	r3, [pc, #16]	; (bfc <drv_led_clear+0x1c>)
     bec:	79fa      	ldrb	r2, [r7, #7]
     bee:	61da      	str	r2, [r3, #28]
     bf0:	f107 070c 	add.w	r7, r7, #12
     bf4:	46bd      	mov	sp, r7
     bf6:	bc80      	pop	{r7}
     bf8:	4770      	bx	lr
     bfa:	bf00      	nop
     bfc:	2009c040 	.word	0x2009c040

00000c00 <led_task>:
     c00:	b580      	push	{r7, lr}
     c02:	b086      	sub	sp, #24
     c04:	af02      	add	r7, sp, #8
     c06:	6078      	str	r0, [r7, #4]
     c08:	687b      	ldr	r3, [r7, #4]
     c0a:	60fb      	str	r3, [r7, #12]
     c0c:	f04f 00ff 	mov.w	r0, #255	; 0xff
     c10:	f7ff ffe6 	bl	be0 <drv_led_clear>
     c14:	68fb      	ldr	r3, [r7, #12]
     c16:	781b      	ldrb	r3, [r3, #0]
     c18:	2b00      	cmp	r3, #0
     c1a:	d002      	beq.n	c22 <led_task+0x22>
     c1c:	2b01      	cmp	r3, #1
     c1e:	d015      	beq.n	c4c <led_task+0x4c>
     c20:	e047      	b.n	cb2 <led_task+0xb2>
     c22:	4b2e      	ldr	r3, [pc, #184]	; (cdc <led_task+0xdc>)
     c24:	681b      	ldr	r3, [r3, #0]
     c26:	b2db      	uxtb	r3, r3
     c28:	4618      	mov	r0, r3
     c2a:	f7ff ffc9 	bl	bc0 <drv_led_set>
     c2e:	4b2b      	ldr	r3, [pc, #172]	; (cdc <led_task+0xdc>)
     c30:	681b      	ldr	r3, [r3, #0]
     c32:	ea4f 0243 	mov.w	r2, r3, lsl #1
     c36:	4b29      	ldr	r3, [pc, #164]	; (cdc <led_task+0xdc>)
     c38:	601a      	str	r2, [r3, #0]
     c3a:	4b28      	ldr	r3, [pc, #160]	; (cdc <led_task+0xdc>)
     c3c:	681b      	ldr	r3, [r3, #0]
     c3e:	2b80      	cmp	r3, #128	; 0x80
     c40:	d943      	bls.n	cca <led_task+0xca>
     c42:	4b26      	ldr	r3, [pc, #152]	; (cdc <led_task+0xdc>)
     c44:	f04f 0201 	mov.w	r2, #1
     c48:	601a      	str	r2, [r3, #0]
     c4a:	e041      	b.n	cd0 <led_task+0xd0>
     c4c:	4b23      	ldr	r3, [pc, #140]	; (cdc <led_task+0xdc>)
     c4e:	681b      	ldr	r3, [r3, #0]
     c50:	4618      	mov	r0, r3
     c52:	f005 f9e5 	bl	6020 <__aeabi_ui2d>
     c56:	4602      	mov	r2, r0
     c58:	460b      	mov	r3, r1
     c5a:	f04f 0000 	mov.w	r0, #0
     c5e:	f04f 4180 	mov.w	r1, #1073741824	; 0x40000000
     c62:	f003 fee3 	bl	4a2c <pow>
     c66:	4602      	mov	r2, r0
     c68:	460b      	mov	r3, r1
     c6a:	4610      	mov	r0, r2
     c6c:	4619      	mov	r1, r3
     c6e:	f04f 0200 	mov.w	r2, #0
     c72:	f04f 537e 	mov.w	r3, #1065353216	; 0x3f800000
     c76:	f503 03e0 	add.w	r3, r3, #7340032	; 0x700000
     c7a:	f005 f893 	bl	5da4 <__aeabi_dsub>
     c7e:	4602      	mov	r2, r0
     c80:	460b      	mov	r3, r1
     c82:	4610      	mov	r0, r2
     c84:	4619      	mov	r1, r3
     c86:	f005 fd03 	bl	6690 <__aeabi_d2uiz>
     c8a:	4603      	mov	r3, r0
     c8c:	b2db      	uxtb	r3, r3
     c8e:	4618      	mov	r0, r3
     c90:	f7ff ff96 	bl	bc0 <drv_led_set>
     c94:	4b11      	ldr	r3, [pc, #68]	; (cdc <led_task+0xdc>)
     c96:	681b      	ldr	r3, [r3, #0]
     c98:	f103 0201 	add.w	r2, r3, #1
     c9c:	4b0f      	ldr	r3, [pc, #60]	; (cdc <led_task+0xdc>)
     c9e:	601a      	str	r2, [r3, #0]
     ca0:	4b0e      	ldr	r3, [pc, #56]	; (cdc <led_task+0xdc>)
     ca2:	681b      	ldr	r3, [r3, #0]
     ca4:	2b08      	cmp	r3, #8
     ca6:	d912      	bls.n	cce <led_task+0xce>
     ca8:	4b0c      	ldr	r3, [pc, #48]	; (cdc <led_task+0xdc>)
     caa:	f04f 0201 	mov.w	r2, #1
     cae:	601a      	str	r2, [r3, #0]
     cb0:	e00e      	b.n	cd0 <led_task+0xd0>
     cb2:	f04f 0314 	mov.w	r3, #20
     cb6:	9300      	str	r3, [sp, #0]
     cb8:	4809      	ldr	r0, [pc, #36]	; (ce0 <led_task+0xe0>)
     cba:	f04f 0108 	mov.w	r1, #8
     cbe:	f04f 028b 	mov.w	r2, #139	; 0x8b
     cc2:	4b08      	ldr	r3, [pc, #32]	; (ce4 <led_task+0xe4>)
     cc4:	f7ff fdf2 	bl	8ac <mdw_log_error>
     cc8:	e002      	b.n	cd0 <led_task+0xd0>
     cca:	bf00      	nop
     ccc:	e000      	b.n	cd0 <led_task+0xd0>
     cce:	bf00      	nop
     cd0:	68fb      	ldr	r3, [r7, #12]
     cd2:	685b      	ldr	r3, [r3, #4]
     cd4:	4618      	mov	r0, r3
     cd6:	f001 f855 	bl	1d84 <CoTickDelay>
     cda:	e797      	b.n	c0c <led_task+0xc>
     cdc:	10000004 	.word	0x10000004
     ce0:	00007284 	.word	0x00007284
     ce4:	0000726c 	.word	0x0000726c

00000ce8 <CreateTCBList>:
     ce8:	b480      	push	{r7}
     cea:	b085      	sub	sp, #20
     cec:	af00      	add	r7, sp, #0
     cee:	4b18      	ldr	r3, [pc, #96]	; (d50 <CreateTCBList+0x68>)
     cf0:	60bb      	str	r3, [r7, #8]
     cf2:	4b18      	ldr	r3, [pc, #96]	; (d54 <CreateTCBList+0x6c>)
     cf4:	607b      	str	r3, [r7, #4]
     cf6:	f04f 0300 	mov.w	r3, #0
     cfa:	73fb      	strb	r3, [r7, #15]
     cfc:	e015      	b.n	d2a <CreateTCBList+0x42>
     cfe:	68bb      	ldr	r3, [r7, #8]
     d00:	7bfa      	ldrb	r2, [r7, #15]
     d02:	719a      	strb	r2, [r3, #6]
     d04:	68bb      	ldr	r3, [r7, #8]
     d06:	f04f 0203 	mov.w	r2, #3
     d0a:	715a      	strb	r2, [r3, #5]
     d0c:	68bb      	ldr	r3, [r7, #8]
     d0e:	687a      	ldr	r2, [r7, #4]
     d10:	625a      	str	r2, [r3, #36]	; 0x24
     d12:	68bb      	ldr	r3, [r7, #8]
     d14:	f103 032c 	add.w	r3, r3, #44	; 0x2c
     d18:	60bb      	str	r3, [r7, #8]
     d1a:	687b      	ldr	r3, [r7, #4]
     d1c:	f103 032c 	add.w	r3, r3, #44	; 0x2c
     d20:	607b      	str	r3, [r7, #4]
     d22:	7bfb      	ldrb	r3, [r7, #15]
     d24:	f103 0301 	add.w	r3, r3, #1
     d28:	73fb      	strb	r3, [r7, #15]
     d2a:	7bfb      	ldrb	r3, [r7, #15]
     d2c:	2b04      	cmp	r3, #4
     d2e:	d9e6      	bls.n	cfe <CreateTCBList+0x16>
     d30:	68bb      	ldr	r3, [r7, #8]
     d32:	7bfa      	ldrb	r2, [r7, #15]
     d34:	719a      	strb	r2, [r3, #6]
     d36:	68bb      	ldr	r3, [r7, #8]
     d38:	f04f 0200 	mov.w	r2, #0
     d3c:	625a      	str	r2, [r3, #36]	; 0x24
     d3e:	4b06      	ldr	r3, [pc, #24]	; (d58 <CreateTCBList+0x70>)
     d40:	4a03      	ldr	r2, [pc, #12]	; (d50 <CreateTCBList+0x68>)
     d42:	601a      	str	r2, [r3, #0]
     d44:	f107 0714 	add.w	r7, r7, #20
     d48:	46bd      	mov	sp, r7
     d4a:	bc80      	pop	{r7}
     d4c:	4770      	bx	lr
     d4e:	bf00      	nop
     d50:	10000490 	.word	0x10000490
     d54:	100004bc 	.word	0x100004bc
     d58:	100005fc 	.word	0x100005fc

00000d5c <InsertToTCBRdyList>:
     d5c:	b480      	push	{r7}
     d5e:	b087      	sub	sp, #28
     d60:	af00      	add	r7, sp, #0
     d62:	6078      	str	r0, [r7, #4]
     d64:	687b      	ldr	r3, [r7, #4]
     d66:	791b      	ldrb	r3, [r3, #4]
     d68:	73fb      	strb	r3, [r7, #15]
     d6a:	687b      	ldr	r3, [r7, #4]
     d6c:	f04f 0200 	mov.w	r2, #0
     d70:	715a      	strb	r2, [r3, #5]
     d72:	4b37      	ldr	r3, [pc, #220]	; (e50 <InsertToTCBRdyList+0xf4>)
     d74:	681b      	ldr	r3, [r3, #0]
     d76:	613b      	str	r3, [r7, #16]
     d78:	693b      	ldr	r3, [r7, #16]
     d7a:	791b      	ldrb	r3, [r3, #4]
     d7c:	7bfa      	ldrb	r2, [r7, #15]
     d7e:	429a      	cmp	r2, r3
     d80:	d11e      	bne.n	dc0 <InsertToTCBRdyList+0x64>
     d82:	693a      	ldr	r2, [r7, #16]
     d84:	687b      	ldr	r3, [r7, #4]
     d86:	429a      	cmp	r2, r3
     d88:	d01a      	beq.n	dc0 <InsertToTCBRdyList+0x64>
     d8a:	693b      	ldr	r3, [r7, #16]
     d8c:	2b00      	cmp	r3, #0
     d8e:	d017      	beq.n	dc0 <InsertToTCBRdyList+0x64>
     d90:	4b30      	ldr	r3, [pc, #192]	; (e54 <InsertToTCBRdyList+0xf8>)
     d92:	e9d3 0100 	ldrd	r0, r1, [r3]
     d96:	4b30      	ldr	r3, [pc, #192]	; (e58 <InsertToTCBRdyList+0xfc>)
     d98:	e9d3 2300 	ldrd	r2, r3, [r3]
     d9c:	4290      	cmp	r0, r2
     d9e:	eb71 0c03 	sbcs.w	ip, r1, r3
     da2:	d20d      	bcs.n	dc0 <InsertToTCBRdyList+0x64>
     da4:	693b      	ldr	r3, [r7, #16]
     da6:	895b      	ldrh	r3, [r3, #10]
     da8:	4618      	mov	r0, r3
     daa:	f04f 0100 	mov.w	r1, #0
     dae:	4b2a      	ldr	r3, [pc, #168]	; (e58 <InsertToTCBRdyList+0xfc>)
     db0:	e9d3 2300 	ldrd	r2, r3, [r3]
     db4:	1812      	adds	r2, r2, r0
     db6:	eb43 0301 	adc.w	r3, r3, r1
     dba:	4926      	ldr	r1, [pc, #152]	; (e54 <InsertToTCBRdyList+0xf8>)
     dbc:	e9c1 2300 	strd	r2, r3, [r1]
     dc0:	4b26      	ldr	r3, [pc, #152]	; (e5c <InsertToTCBRdyList+0x100>)
     dc2:	681b      	ldr	r3, [r3, #0]
     dc4:	613b      	str	r3, [r7, #16]
     dc6:	693b      	ldr	r3, [r7, #16]
     dc8:	2b00      	cmp	r3, #0
     dca:	d107      	bne.n	ddc <InsertToTCBRdyList+0x80>
     dcc:	4b24      	ldr	r3, [pc, #144]	; (e60 <InsertToTCBRdyList+0x104>)
     dce:	f04f 0201 	mov.w	r2, #1
     dd2:	701a      	strb	r2, [r3, #0]
     dd4:	4b21      	ldr	r3, [pc, #132]	; (e5c <InsertToTCBRdyList+0x100>)
     dd6:	687a      	ldr	r2, [r7, #4]
     dd8:	601a      	str	r2, [r3, #0]
     dda:	e034      	b.n	e46 <InsertToTCBRdyList+0xea>
     ddc:	693b      	ldr	r3, [r7, #16]
     dde:	791b      	ldrb	r3, [r3, #4]
     de0:	7bfa      	ldrb	r2, [r7, #15]
     de2:	429a      	cmp	r2, r3
     de4:	d20d      	bcs.n	e02 <InsertToTCBRdyList+0xa6>
     de6:	4b1e      	ldr	r3, [pc, #120]	; (e60 <InsertToTCBRdyList+0x104>)
     de8:	f04f 0201 	mov.w	r2, #1
     dec:	701a      	strb	r2, [r3, #0]
     dee:	687b      	ldr	r3, [r7, #4]
     df0:	693a      	ldr	r2, [r7, #16]
     df2:	625a      	str	r2, [r3, #36]	; 0x24
     df4:	693b      	ldr	r3, [r7, #16]
     df6:	687a      	ldr	r2, [r7, #4]
     df8:	629a      	str	r2, [r3, #40]	; 0x28
     dfa:	4b18      	ldr	r3, [pc, #96]	; (e5c <InsertToTCBRdyList+0x100>)
     dfc:	687a      	ldr	r2, [r7, #4]
     dfe:	601a      	str	r2, [r3, #0]
     e00:	e021      	b.n	e46 <InsertToTCBRdyList+0xea>
     e02:	693b      	ldr	r3, [r7, #16]
     e04:	6a5b      	ldr	r3, [r3, #36]	; 0x24
     e06:	617b      	str	r3, [r7, #20]
     e08:	e009      	b.n	e1e <InsertToTCBRdyList+0xc2>
     e0a:	697b      	ldr	r3, [r7, #20]
     e0c:	791b      	ldrb	r3, [r3, #4]
     e0e:	7bfa      	ldrb	r2, [r7, #15]
     e10:	429a      	cmp	r2, r3
     e12:	d308      	bcc.n	e26 <InsertToTCBRdyList+0xca>
     e14:	697b      	ldr	r3, [r7, #20]
     e16:	613b      	str	r3, [r7, #16]
     e18:	697b      	ldr	r3, [r7, #20]
     e1a:	6a5b      	ldr	r3, [r3, #36]	; 0x24
     e1c:	617b      	str	r3, [r7, #20]
     e1e:	697b      	ldr	r3, [r7, #20]
     e20:	2b00      	cmp	r3, #0
     e22:	d1f2      	bne.n	e0a <InsertToTCBRdyList+0xae>
     e24:	e000      	b.n	e28 <InsertToTCBRdyList+0xcc>
     e26:	bf00      	nop
     e28:	687b      	ldr	r3, [r7, #4]
     e2a:	697a      	ldr	r2, [r7, #20]
     e2c:	625a      	str	r2, [r3, #36]	; 0x24
     e2e:	693b      	ldr	r3, [r7, #16]
     e30:	687a      	ldr	r2, [r7, #4]
     e32:	625a      	str	r2, [r3, #36]	; 0x24
     e34:	687b      	ldr	r3, [r7, #4]
     e36:	693a      	ldr	r2, [r7, #16]
     e38:	629a      	str	r2, [r3, #40]	; 0x28
     e3a:	697b      	ldr	r3, [r7, #20]
     e3c:	2b00      	cmp	r3, #0
     e3e:	d002      	beq.n	e46 <InsertToTCBRdyList+0xea>
     e40:	697b      	ldr	r3, [r7, #20]
     e42:	687a      	ldr	r2, [r7, #4]
     e44:	629a      	str	r2, [r3, #40]	; 0x28
     e46:	f107 071c 	add.w	r7, r7, #28
     e4a:	46bd      	mov	sp, r7
     e4c:	bc80      	pop	{r7}
     e4e:	4770      	bx	lr
     e50:	10000608 	.word	0x10000608
     e54:	10000610 	.word	0x10000610
     e58:	10001098 	.word	0x10001098
     e5c:	10000600 	.word	0x10000600
     e60:	10000236 	.word	0x10000236

00000e64 <RemoveFromTCBRdyList>:
     e64:	b480      	push	{r7}
     e66:	b083      	sub	sp, #12
     e68:	af00      	add	r7, sp, #0
     e6a:	6078      	str	r0, [r7, #4]
     e6c:	687b      	ldr	r3, [r7, #4]
     e6e:	6a5b      	ldr	r3, [r3, #36]	; 0x24
     e70:	2b00      	cmp	r3, #0
     e72:	d108      	bne.n	e86 <RemoveFromTCBRdyList+0x22>
     e74:	687b      	ldr	r3, [r7, #4]
     e76:	6a9b      	ldr	r3, [r3, #40]	; 0x28
     e78:	2b00      	cmp	r3, #0
     e7a:	d104      	bne.n	e86 <RemoveFromTCBRdyList+0x22>
     e7c:	4b1d      	ldr	r3, [pc, #116]	; (ef4 <RemoveFromTCBRdyList+0x90>)
     e7e:	f04f 0200 	mov.w	r2, #0
     e82:	601a      	str	r2, [r3, #0]
     e84:	e031      	b.n	eea <RemoveFromTCBRdyList+0x86>
     e86:	687b      	ldr	r3, [r7, #4]
     e88:	6a9b      	ldr	r3, [r3, #40]	; 0x28
     e8a:	2b00      	cmp	r3, #0
     e8c:	d10d      	bne.n	eaa <RemoveFromTCBRdyList+0x46>
     e8e:	687b      	ldr	r3, [r7, #4]
     e90:	6a5a      	ldr	r2, [r3, #36]	; 0x24
     e92:	4b18      	ldr	r3, [pc, #96]	; (ef4 <RemoveFromTCBRdyList+0x90>)
     e94:	601a      	str	r2, [r3, #0]
     e96:	687b      	ldr	r3, [r7, #4]
     e98:	f04f 0200 	mov.w	r2, #0
     e9c:	625a      	str	r2, [r3, #36]	; 0x24
     e9e:	4b15      	ldr	r3, [pc, #84]	; (ef4 <RemoveFromTCBRdyList+0x90>)
     ea0:	681b      	ldr	r3, [r3, #0]
     ea2:	f04f 0200 	mov.w	r2, #0
     ea6:	629a      	str	r2, [r3, #40]	; 0x28
     ea8:	e01f      	b.n	eea <RemoveFromTCBRdyList+0x86>
     eaa:	687b      	ldr	r3, [r7, #4]
     eac:	6a5b      	ldr	r3, [r3, #36]	; 0x24
     eae:	2b00      	cmp	r3, #0
     eb0:	d109      	bne.n	ec6 <RemoveFromTCBRdyList+0x62>
     eb2:	687b      	ldr	r3, [r7, #4]
     eb4:	6a9b      	ldr	r3, [r3, #40]	; 0x28
     eb6:	f04f 0200 	mov.w	r2, #0
     eba:	625a      	str	r2, [r3, #36]	; 0x24
     ebc:	687b      	ldr	r3, [r7, #4]
     ebe:	f04f 0200 	mov.w	r2, #0
     ec2:	629a      	str	r2, [r3, #40]	; 0x28
     ec4:	e011      	b.n	eea <RemoveFromTCBRdyList+0x86>
     ec6:	687b      	ldr	r3, [r7, #4]
     ec8:	6a9b      	ldr	r3, [r3, #40]	; 0x28
     eca:	687a      	ldr	r2, [r7, #4]
     ecc:	6a52      	ldr	r2, [r2, #36]	; 0x24
     ece:	625a      	str	r2, [r3, #36]	; 0x24
     ed0:	687b      	ldr	r3, [r7, #4]
     ed2:	6a5b      	ldr	r3, [r3, #36]	; 0x24
     ed4:	687a      	ldr	r2, [r7, #4]
     ed6:	6a92      	ldr	r2, [r2, #40]	; 0x28
     ed8:	629a      	str	r2, [r3, #40]	; 0x28
     eda:	687b      	ldr	r3, [r7, #4]
     edc:	f04f 0200 	mov.w	r2, #0
     ee0:	625a      	str	r2, [r3, #36]	; 0x24
     ee2:	687b      	ldr	r3, [r7, #4]
     ee4:	f04f 0200 	mov.w	r2, #0
     ee8:	629a      	str	r2, [r3, #40]	; 0x28
     eea:	f107 070c 	add.w	r7, r7, #12
     eee:	46bd      	mov	sp, r7
     ef0:	bc80      	pop	{r7}
     ef2:	4770      	bx	lr
     ef4:	10000600 	.word	0x10000600

00000ef8 <CoSetPriority>:
     ef8:	b580      	push	{r7, lr}
     efa:	b086      	sub	sp, #24
     efc:	af00      	add	r7, sp, #0
     efe:	4602      	mov	r2, r0
     f00:	460b      	mov	r3, r1
     f02:	71fa      	strb	r2, [r7, #7]
     f04:	71bb      	strb	r3, [r7, #6]
     f06:	79fb      	ldrb	r3, [r7, #7]
     f08:	2b00      	cmp	r3, #0
     f0a:	d102      	bne.n	f12 <CoSetPriority+0x1a>
     f0c:	f04f 0314 	mov.w	r3, #20
     f10:	e0cf      	b.n	10b2 <CoSetPriority+0x1ba>
     f12:	79fb      	ldrb	r3, [r7, #7]
     f14:	2b05      	cmp	r3, #5
     f16:	d902      	bls.n	f1e <CoSetPriority+0x26>
     f18:	f04f 0301 	mov.w	r3, #1
     f1c:	e0c9      	b.n	10b2 <CoSetPriority+0x1ba>
     f1e:	79fb      	ldrb	r3, [r7, #7]
     f20:	f04f 022c 	mov.w	r2, #44	; 0x2c
     f24:	fb02 f203 	mul.w	r2, r2, r3
     f28:	4b64      	ldr	r3, [pc, #400]	; (10bc <CoSetPriority+0x1c4>)
     f2a:	18d3      	adds	r3, r2, r3
     f2c:	617b      	str	r3, [r7, #20]
     f2e:	697b      	ldr	r3, [r7, #20]
     f30:	795b      	ldrb	r3, [r3, #5]
     f32:	2b03      	cmp	r3, #3
     f34:	d102      	bne.n	f3c <CoSetPriority+0x44>
     f36:	f04f 0301 	mov.w	r3, #1
     f3a:	e0ba      	b.n	10b2 <CoSetPriority+0x1ba>
     f3c:	79bb      	ldrb	r3, [r7, #6]
     f3e:	2b40      	cmp	r3, #64	; 0x40
     f40:	d902      	bls.n	f48 <CoSetPriority+0x50>
     f42:	f04f 0301 	mov.w	r3, #1
     f46:	e0b4      	b.n	10b2 <CoSetPriority+0x1ba>
     f48:	697b      	ldr	r3, [r7, #20]
     f4a:	791b      	ldrb	r3, [r3, #4]
     f4c:	79ba      	ldrb	r2, [r7, #6]
     f4e:	429a      	cmp	r2, r3
     f50:	f000 80ad 	beq.w	10ae <CoSetPriority+0x1b6>
     f54:	697b      	ldr	r3, [r7, #20]
     f56:	79db      	ldrb	r3, [r3, #7]
     f58:	2bff      	cmp	r3, #255	; 0xff
     f5a:	d017      	beq.n	f8c <CoSetPriority+0x94>
     f5c:	697b      	ldr	r3, [r7, #20]
     f5e:	79db      	ldrb	r3, [r3, #7]
     f60:	ea4f 02c3 	mov.w	r2, r3, lsl #3
     f64:	4b56      	ldr	r3, [pc, #344]	; (10c0 <CoSetPriority+0x1c8>)
     f66:	18d3      	adds	r3, r2, r3
     f68:	60fb      	str	r3, [r7, #12]
     f6a:	68fb      	ldr	r3, [r7, #12]
     f6c:	789a      	ldrb	r2, [r3, #2]
     f6e:	697b      	ldr	r3, [r7, #20]
     f70:	799b      	ldrb	r3, [r3, #6]
     f72:	429a      	cmp	r2, r3
     f74:	d10a      	bne.n	f8c <CoSetPriority+0x94>
     f76:	68fb      	ldr	r3, [r7, #12]
     f78:	79ba      	ldrb	r2, [r7, #6]
     f7a:	701a      	strb	r2, [r3, #0]
     f7c:	697b      	ldr	r3, [r7, #20]
     f7e:	791b      	ldrb	r3, [r3, #4]
     f80:	79ba      	ldrb	r2, [r7, #6]
     f82:	429a      	cmp	r2, r3
     f84:	d902      	bls.n	f8c <CoSetPriority+0x94>
     f86:	f04f 0300 	mov.w	r3, #0
     f8a:	e092      	b.n	10b2 <CoSetPriority+0x1ba>
     f8c:	697b      	ldr	r3, [r7, #20]
     f8e:	79ba      	ldrb	r2, [r7, #6]
     f90:	711a      	strb	r2, [r3, #4]
     f92:	697b      	ldr	r3, [r7, #20]
     f94:	795b      	ldrb	r3, [r3, #5]
     f96:	2b00      	cmp	r3, #0
     f98:	d110      	bne.n	fbc <CoSetPriority+0xc4>
     f9a:	4b4a      	ldr	r3, [pc, #296]	; (10c4 <CoSetPriority+0x1cc>)
     f9c:	781b      	ldrb	r3, [r3, #0]
     f9e:	b2db      	uxtb	r3, r3
     fa0:	f103 0301 	add.w	r3, r3, #1
     fa4:	b2da      	uxtb	r2, r3
     fa6:	4b47      	ldr	r3, [pc, #284]	; (10c4 <CoSetPriority+0x1cc>)
     fa8:	701a      	strb	r2, [r3, #0]
     faa:	6978      	ldr	r0, [r7, #20]
     fac:	f7ff ff5a 	bl	e64 <RemoveFromTCBRdyList>
     fb0:	6978      	ldr	r0, [r7, #20]
     fb2:	f7ff fed3 	bl	d5c <InsertToTCBRdyList>
     fb6:	f7ff f927 	bl	208 <OsSchedUnlock>
     fba:	e078      	b.n	10ae <CoSetPriority+0x1b6>
     fbc:	697b      	ldr	r3, [r7, #20]
     fbe:	795b      	ldrb	r3, [r3, #5]
     fc0:	2b01      	cmp	r3, #1
     fc2:	d115      	bne.n	ff0 <CoSetPriority+0xf8>
     fc4:	697b      	ldr	r3, [r7, #20]
     fc6:	791a      	ldrb	r2, [r3, #4]
     fc8:	4b3f      	ldr	r3, [pc, #252]	; (10c8 <CoSetPriority+0x1d0>)
     fca:	681b      	ldr	r3, [r3, #0]
     fcc:	791b      	ldrb	r3, [r3, #4]
     fce:	429a      	cmp	r2, r3
     fd0:	d96d      	bls.n	10ae <CoSetPriority+0x1b6>
     fd2:	4b3c      	ldr	r3, [pc, #240]	; (10c4 <CoSetPriority+0x1cc>)
     fd4:	781b      	ldrb	r3, [r3, #0]
     fd6:	b2db      	uxtb	r3, r3
     fd8:	f103 0301 	add.w	r3, r3, #1
     fdc:	b2da      	uxtb	r2, r3
     fde:	4b39      	ldr	r3, [pc, #228]	; (10c4 <CoSetPriority+0x1cc>)
     fe0:	701a      	strb	r2, [r3, #0]
     fe2:	4b3a      	ldr	r3, [pc, #232]	; (10cc <CoSetPriority+0x1d4>)
     fe4:	f04f 0201 	mov.w	r2, #1
     fe8:	701a      	strb	r2, [r3, #0]
     fea:	f7ff f90d 	bl	208 <OsSchedUnlock>
     fee:	e05e      	b.n	10ae <CoSetPriority+0x1b6>
     ff0:	697b      	ldr	r3, [r7, #20]
     ff2:	79db      	ldrb	r3, [r3, #7]
     ff4:	2bff      	cmp	r3, #255	; 0xff
     ff6:	d039      	beq.n	106c <CoSetPriority+0x174>
     ff8:	4b32      	ldr	r3, [pc, #200]	; (10c4 <CoSetPriority+0x1cc>)
     ffa:	781b      	ldrb	r3, [r3, #0]
     ffc:	b2db      	uxtb	r3, r3
     ffe:	f103 0301 	add.w	r3, r3, #1
    1002:	b2da      	uxtb	r2, r3
    1004:	4b2f      	ldr	r3, [pc, #188]	; (10c4 <CoSetPriority+0x1cc>)
    1006:	701a      	strb	r2, [r3, #0]
    1008:	697b      	ldr	r3, [r7, #20]
    100a:	79db      	ldrb	r3, [r3, #7]
    100c:	ea4f 02c3 	mov.w	r2, r3, lsl #3
    1010:	4b2b      	ldr	r3, [pc, #172]	; (10c0 <CoSetPriority+0x1c8>)
    1012:	18d3      	adds	r3, r2, r3
    1014:	60fb      	str	r3, [r7, #12]
    1016:	68fb      	ldr	r3, [r7, #12]
    1018:	685b      	ldr	r3, [r3, #4]
    101a:	617b      	str	r3, [r7, #20]
    101c:	68fb      	ldr	r3, [r7, #12]
    101e:	781b      	ldrb	r3, [r3, #0]
    1020:	74fb      	strb	r3, [r7, #19]
    1022:	68fb      	ldr	r3, [r7, #12]
    1024:	789a      	ldrb	r2, [r3, #2]
    1026:	68fb      	ldr	r3, [r7, #12]
    1028:	70da      	strb	r2, [r3, #3]
    102a:	e00e      	b.n	104a <CoSetPriority+0x152>
    102c:	697b      	ldr	r3, [r7, #20]
    102e:	791b      	ldrb	r3, [r3, #4]
    1030:	7cfa      	ldrb	r2, [r7, #19]
    1032:	429a      	cmp	r2, r3
    1034:	d906      	bls.n	1044 <CoSetPriority+0x14c>
    1036:	697b      	ldr	r3, [r7, #20]
    1038:	791b      	ldrb	r3, [r3, #4]
    103a:	74fb      	strb	r3, [r7, #19]
    103c:	697b      	ldr	r3, [r7, #20]
    103e:	799a      	ldrb	r2, [r3, #6]
    1040:	68fb      	ldr	r3, [r7, #12]
    1042:	70da      	strb	r2, [r3, #3]
    1044:	697b      	ldr	r3, [r7, #20]
    1046:	6a5b      	ldr	r3, [r3, #36]	; 0x24
    1048:	617b      	str	r3, [r7, #20]
    104a:	697b      	ldr	r3, [r7, #20]
    104c:	2b00      	cmp	r3, #0
    104e:	d1ed      	bne.n	102c <CoSetPriority+0x134>
    1050:	f7ff f8da 	bl	208 <OsSchedUnlock>
    1054:	68fb      	ldr	r3, [r7, #12]
    1056:	781b      	ldrb	r3, [r3, #0]
    1058:	7cfa      	ldrb	r2, [r7, #19]
    105a:	429a      	cmp	r2, r3
    105c:	d006      	beq.n	106c <CoSetPriority+0x174>
    105e:	68fb      	ldr	r3, [r7, #12]
    1060:	789a      	ldrb	r2, [r3, #2]
    1062:	7cfb      	ldrb	r3, [r7, #19]
    1064:	4610      	mov	r0, r2
    1066:	4619      	mov	r1, r3
    1068:	f7ff ff46 	bl	ef8 <CoSetPriority>
    106c:	79fb      	ldrb	r3, [r7, #7]
    106e:	f04f 022c 	mov.w	r2, #44	; 0x2c
    1072:	fb02 f203 	mul.w	r2, r2, r3
    1076:	4b11      	ldr	r3, [pc, #68]	; (10bc <CoSetPriority+0x1c4>)
    1078:	18d3      	adds	r3, r2, r3
    107a:	617b      	str	r3, [r7, #20]
    107c:	697b      	ldr	r3, [r7, #20]
    107e:	7a1b      	ldrb	r3, [r3, #8]
    1080:	2bff      	cmp	r3, #255	; 0xff
    1082:	d014      	beq.n	10ae <CoSetPriority+0x1b6>
    1084:	697b      	ldr	r3, [r7, #20]
    1086:	7a1b      	ldrb	r3, [r3, #8]
    1088:	ea4f 1203 	mov.w	r2, r3, lsl #4
    108c:	4b10      	ldr	r3, [pc, #64]	; (10d0 <CoSetPriority+0x1d8>)
    108e:	18d3      	adds	r3, r2, r3
    1090:	60bb      	str	r3, [r7, #8]
    1092:	68bb      	ldr	r3, [r7, #8]
    1094:	795b      	ldrb	r3, [r3, #5]
    1096:	f023 030f 	bic.w	r3, r3, #15
    109a:	b2db      	uxtb	r3, r3
    109c:	2b20      	cmp	r3, #32
    109e:	d106      	bne.n	10ae <CoSetPriority+0x1b6>
    10a0:	6978      	ldr	r0, [r7, #20]
    10a2:	f001 f8bd 	bl	2220 <RemoveEventWaittingList>
    10a6:	68b8      	ldr	r0, [r7, #8]
    10a8:	6979      	ldr	r1, [r7, #20]
    10aa:	f000 ff9f 	bl	1fec <EventTaskToWait>
    10ae:	f04f 0300 	mov.w	r3, #0
    10b2:	4618      	mov	r0, r3
    10b4:	f107 0718 	add.w	r7, r7, #24
    10b8:	46bd      	mov	sp, r7
    10ba:	bd80      	pop	{r7, pc}
    10bc:	10000490 	.word	0x10000490
    10c0:	10000998 	.word	0x10000998
    10c4:	10000235 	.word	0x10000235
    10c8:	10000600 	.word	0x10000600
    10cc:	10000236 	.word	0x10000236
    10d0:	10000850 	.word	0x10000850

000010d4 <Schedule>:
    10d4:	b580      	push	{r7, lr}
    10d6:	b084      	sub	sp, #16
    10d8:	af00      	add	r7, sp, #0
    10da:	4b4e      	ldr	r3, [pc, #312]	; (1214 <Schedule+0x140>)
    10dc:	681b      	ldr	r3, [r3, #0]
    10de:	60fb      	str	r3, [r7, #12]
    10e0:	4b4d      	ldr	r3, [pc, #308]	; (1218 <Schedule+0x144>)
    10e2:	681b      	ldr	r3, [r3, #0]
    10e4:	60bb      	str	r3, [r7, #8]
    10e6:	68bb      	ldr	r3, [r7, #8]
    10e8:	2b00      	cmp	r3, #0
    10ea:	f000 8083 	beq.w	11f4 <Schedule+0x120>
    10ee:	4b4b      	ldr	r3, [pc, #300]	; (121c <Schedule+0x148>)
    10f0:	681b      	ldr	r3, [r3, #0]
    10f2:	68fa      	ldr	r2, [r7, #12]
    10f4:	429a      	cmp	r2, r3
    10f6:	d17f      	bne.n	11f8 <Schedule+0x124>
    10f8:	4b49      	ldr	r3, [pc, #292]	; (1220 <Schedule+0x14c>)
    10fa:	781b      	ldrb	r3, [r3, #0]
    10fc:	b2db      	uxtb	r3, r3
    10fe:	2b01      	cmp	r3, #1
    1100:	d87c      	bhi.n	11fc <Schedule+0x128>
    1102:	4b48      	ldr	r3, [pc, #288]	; (1224 <Schedule+0x150>)
    1104:	781b      	ldrb	r3, [r3, #0]
    1106:	b2db      	uxtb	r3, r3
    1108:	2b00      	cmp	r3, #0
    110a:	d179      	bne.n	1200 <Schedule+0x12c>
    110c:	4b46      	ldr	r3, [pc, #280]	; (1228 <Schedule+0x154>)
    110e:	f04f 0200 	mov.w	r2, #0
    1112:	701a      	strb	r2, [r3, #0]
    1114:	68fb      	ldr	r3, [r7, #12]
    1116:	791b      	ldrb	r3, [r3, #4]
    1118:	71fb      	strb	r3, [r7, #7]
    111a:	68bb      	ldr	r3, [r7, #8]
    111c:	791b      	ldrb	r3, [r3, #4]
    111e:	71bb      	strb	r3, [r7, #6]
    1120:	68fb      	ldr	r3, [r7, #12]
    1122:	795b      	ldrb	r3, [r3, #5]
    1124:	2b01      	cmp	r3, #1
    1126:	d00a      	beq.n	113e <Schedule+0x6a>
    1128:	4b3c      	ldr	r3, [pc, #240]	; (121c <Schedule+0x148>)
    112a:	68ba      	ldr	r2, [r7, #8]
    112c:	601a      	str	r2, [r3, #0]
    112e:	68bb      	ldr	r3, [r7, #8]
    1130:	f04f 0201 	mov.w	r2, #1
    1134:	715a      	strb	r2, [r3, #5]
    1136:	68b8      	ldr	r0, [r7, #8]
    1138:	f7ff fe94 	bl	e64 <RemoveFromTCBRdyList>
    113c:	e02f      	b.n	119e <Schedule+0xca>
    113e:	79ba      	ldrb	r2, [r7, #6]
    1140:	79fb      	ldrb	r3, [r7, #7]
    1142:	429a      	cmp	r2, r3
    1144:	d20d      	bcs.n	1162 <Schedule+0x8e>
    1146:	4b35      	ldr	r3, [pc, #212]	; (121c <Schedule+0x148>)
    1148:	68ba      	ldr	r2, [r7, #8]
    114a:	601a      	str	r2, [r3, #0]
    114c:	68f8      	ldr	r0, [r7, #12]
    114e:	f7ff fe05 	bl	d5c <InsertToTCBRdyList>
    1152:	68b8      	ldr	r0, [r7, #8]
    1154:	f7ff fe86 	bl	e64 <RemoveFromTCBRdyList>
    1158:	68bb      	ldr	r3, [r7, #8]
    115a:	f04f 0201 	mov.w	r2, #1
    115e:	715a      	strb	r2, [r3, #5]
    1160:	e01d      	b.n	119e <Schedule+0xca>
    1162:	79fa      	ldrb	r2, [r7, #7]
    1164:	79bb      	ldrb	r3, [r7, #6]
    1166:	429a      	cmp	r2, r3
    1168:	d14c      	bne.n	1204 <Schedule+0x130>
    116a:	4b30      	ldr	r3, [pc, #192]	; (122c <Schedule+0x158>)
    116c:	e9d3 0100 	ldrd	r0, r1, [r3]
    1170:	4b2f      	ldr	r3, [pc, #188]	; (1230 <Schedule+0x15c>)
    1172:	e9d3 2300 	ldrd	r2, r3, [r3]
    1176:	ea82 0200 	eor.w	r2, r2, r0
    117a:	ea83 0301 	eor.w	r3, r3, r1
    117e:	ea52 0103 	orrs.w	r1, r2, r3
    1182:	d141      	bne.n	1208 <Schedule+0x134>
    1184:	4b25      	ldr	r3, [pc, #148]	; (121c <Schedule+0x148>)
    1186:	68ba      	ldr	r2, [r7, #8]
    1188:	601a      	str	r2, [r3, #0]
    118a:	68f8      	ldr	r0, [r7, #12]
    118c:	f7ff fde6 	bl	d5c <InsertToTCBRdyList>
    1190:	68b8      	ldr	r0, [r7, #8]
    1192:	f7ff fe67 	bl	e64 <RemoveFromTCBRdyList>
    1196:	68bb      	ldr	r3, [r7, #8]
    1198:	f04f 0201 	mov.w	r2, #1
    119c:	715a      	strb	r2, [r3, #5]
    119e:	4b1f      	ldr	r3, [pc, #124]	; (121c <Schedule+0x148>)
    11a0:	681b      	ldr	r3, [r3, #0]
    11a2:	791a      	ldrb	r2, [r3, #4]
    11a4:	4b1c      	ldr	r3, [pc, #112]	; (1218 <Schedule+0x144>)
    11a6:	681b      	ldr	r3, [r3, #0]
    11a8:	791b      	ldrb	r3, [r3, #4]
    11aa:	429a      	cmp	r2, r3
    11ac:	d10e      	bne.n	11cc <Schedule+0xf8>
    11ae:	4b1b      	ldr	r3, [pc, #108]	; (121c <Schedule+0x148>)
    11b0:	681b      	ldr	r3, [r3, #0]
    11b2:	895b      	ldrh	r3, [r3, #10]
    11b4:	4618      	mov	r0, r3
    11b6:	f04f 0100 	mov.w	r1, #0
    11ba:	4b1d      	ldr	r3, [pc, #116]	; (1230 <Schedule+0x15c>)
    11bc:	e9d3 2300 	ldrd	r2, r3, [r3]
    11c0:	1812      	adds	r2, r2, r0
    11c2:	eb43 0301 	adc.w	r3, r3, r1
    11c6:	4919      	ldr	r1, [pc, #100]	; (122c <Schedule+0x158>)
    11c8:	e9c1 2300 	strd	r2, r3, [r1]
    11cc:	68fb      	ldr	r3, [r7, #12]
    11ce:	681a      	ldr	r2, [r3, #0]
    11d0:	68fb      	ldr	r3, [r7, #12]
    11d2:	68db      	ldr	r3, [r3, #12]
    11d4:	429a      	cmp	r2, r3
    11d6:	d305      	bcc.n	11e4 <Schedule+0x110>
    11d8:	68fb      	ldr	r3, [r7, #12]
    11da:	68db      	ldr	r3, [r3, #12]
    11dc:	681a      	ldr	r2, [r3, #0]
    11de:	4b15      	ldr	r3, [pc, #84]	; (1234 <Schedule+0x160>)
    11e0:	429a      	cmp	r2, r3
    11e2:	d004      	beq.n	11ee <Schedule+0x11a>
    11e4:	68fb      	ldr	r3, [r7, #12]
    11e6:	799b      	ldrb	r3, [r3, #6]
    11e8:	4618      	mov	r0, r3
    11ea:	f003 fc19 	bl	4a20 <CoStkOverflowHook>
    11ee:	f001 f9b5 	bl	255c <SwitchContext>
    11f2:	e00a      	b.n	120a <Schedule+0x136>
    11f4:	bf00      	nop
    11f6:	e008      	b.n	120a <Schedule+0x136>
    11f8:	bf00      	nop
    11fa:	e006      	b.n	120a <Schedule+0x136>
    11fc:	bf00      	nop
    11fe:	e004      	b.n	120a <Schedule+0x136>
    1200:	bf00      	nop
    1202:	e002      	b.n	120a <Schedule+0x136>
    1204:	bf00      	nop
    1206:	e000      	b.n	120a <Schedule+0x136>
    1208:	bf00      	nop
    120a:	f107 0710 	add.w	r7, r7, #16
    120e:	46bd      	mov	sp, r7
    1210:	bd80      	pop	{r7, pc}
    1212:	bf00      	nop
    1214:	10000608 	.word	0x10000608
    1218:	10000600 	.word	0x10000600
    121c:	10000604 	.word	0x10000604
    1220:	10000235 	.word	0x10000235
    1224:	10000234 	.word	0x10000234
    1228:	10000236 	.word	0x10000236
    122c:	10000610 	.word	0x10000610
    1230:	10001098 	.word	0x10001098
    1234:	5a5aa5a5 	.word	0x5a5aa5a5

00001238 <AssignTCB>:
    1238:	b580      	push	{r7, lr}
    123a:	b082      	sub	sp, #8
    123c:	af00      	add	r7, sp, #0
    123e:	4b10      	ldr	r3, [pc, #64]	; (1280 <AssignTCB+0x48>)
    1240:	781b      	ldrb	r3, [r3, #0]
    1242:	b2db      	uxtb	r3, r3
    1244:	f103 0301 	add.w	r3, r3, #1
    1248:	b2da      	uxtb	r2, r3
    124a:	4b0d      	ldr	r3, [pc, #52]	; (1280 <AssignTCB+0x48>)
    124c:	701a      	strb	r2, [r3, #0]
    124e:	4b0d      	ldr	r3, [pc, #52]	; (1284 <AssignTCB+0x4c>)
    1250:	681b      	ldr	r3, [r3, #0]
    1252:	2b00      	cmp	r3, #0
    1254:	d104      	bne.n	1260 <AssignTCB+0x28>
    1256:	f7fe ffd7 	bl	208 <OsSchedUnlock>
    125a:	f04f 0300 	mov.w	r3, #0
    125e:	e00a      	b.n	1276 <AssignTCB+0x3e>
    1260:	4b08      	ldr	r3, [pc, #32]	; (1284 <AssignTCB+0x4c>)
    1262:	681b      	ldr	r3, [r3, #0]
    1264:	607b      	str	r3, [r7, #4]
    1266:	4b07      	ldr	r3, [pc, #28]	; (1284 <AssignTCB+0x4c>)
    1268:	681b      	ldr	r3, [r3, #0]
    126a:	6a5a      	ldr	r2, [r3, #36]	; 0x24
    126c:	4b05      	ldr	r3, [pc, #20]	; (1284 <AssignTCB+0x4c>)
    126e:	601a      	str	r2, [r3, #0]
    1270:	f7fe ffca 	bl	208 <OsSchedUnlock>
    1274:	687b      	ldr	r3, [r7, #4]
    1276:	4618      	mov	r0, r3
    1278:	f107 0708 	add.w	r7, r7, #8
    127c:	46bd      	mov	sp, r7
    127e:	bd80      	pop	{r7, pc}
    1280:	10000235 	.word	0x10000235
    1284:	100005fc 	.word	0x100005fc

00001288 <CreateTask>:
    1288:	b580      	push	{r7, lr}
    128a:	b088      	sub	sp, #32
    128c:	af00      	add	r7, sp, #0
    128e:	60f8      	str	r0, [r7, #12]
    1290:	60b9      	str	r1, [r7, #8]
    1292:	607a      	str	r2, [r7, #4]
    1294:	603b      	str	r3, [r7, #0]
    1296:	687a      	ldr	r2, [r7, #4]
    1298:	4b4a      	ldr	r3, [pc, #296]	; (13c4 <CreateTask+0x13c>)
    129a:	ea02 0303 	and.w	r3, r2, r3
    129e:	ea4f 2313 	mov.w	r3, r3, lsr #8
    12a2:	83bb      	strh	r3, [r7, #28]
    12a4:	687b      	ldr	r3, [r7, #4]
    12a6:	76fb      	strb	r3, [r7, #27]
    12a8:	68fb      	ldr	r3, [r7, #12]
    12aa:	2b00      	cmp	r3, #0
    12ac:	d102      	bne.n	12b4 <CreateTask+0x2c>
    12ae:	f04f 03ff 	mov.w	r3, #255	; 0xff
    12b2:	e082      	b.n	13ba <CreateTask+0x132>
    12b4:	683b      	ldr	r3, [r7, #0]
    12b6:	2b00      	cmp	r3, #0
    12b8:	d102      	bne.n	12c0 <CreateTask+0x38>
    12ba:	f04f 03ff 	mov.w	r3, #255	; 0xff
    12be:	e07c      	b.n	13ba <CreateTask+0x132>
    12c0:	7efb      	ldrb	r3, [r7, #27]
    12c2:	2b40      	cmp	r3, #64	; 0x40
    12c4:	d902      	bls.n	12cc <CreateTask+0x44>
    12c6:	f04f 03ff 	mov.w	r3, #255	; 0xff
    12ca:	e076      	b.n	13ba <CreateTask+0x132>
    12cc:	8bbb      	ldrh	r3, [r7, #28]
    12ce:	2b13      	cmp	r3, #19
    12d0:	d802      	bhi.n	12d8 <CreateTask+0x50>
    12d2:	f04f 03ff 	mov.w	r3, #255	; 0xff
    12d6:	e070      	b.n	13ba <CreateTask+0x132>
    12d8:	68f8      	ldr	r0, [r7, #12]
    12da:	68b9      	ldr	r1, [r7, #8]
    12dc:	683a      	ldr	r2, [r7, #0]
    12de:	f002 ffcd 	bl	427c <InitTaskContext>
    12e2:	6178      	str	r0, [r7, #20]
    12e4:	f7ff ffa8 	bl	1238 <AssignTCB>
    12e8:	6138      	str	r0, [r7, #16]
    12ea:	693b      	ldr	r3, [r7, #16]
    12ec:	2b00      	cmp	r3, #0
    12ee:	d102      	bne.n	12f6 <CreateTask+0x6e>
    12f0:	f04f 03ff 	mov.w	r3, #255	; 0xff
    12f4:	e061      	b.n	13ba <CreateTask+0x132>
    12f6:	693b      	ldr	r3, [r7, #16]
    12f8:	697a      	ldr	r2, [r7, #20]
    12fa:	601a      	str	r2, [r3, #0]
    12fc:	693b      	ldr	r3, [r7, #16]
    12fe:	7efa      	ldrb	r2, [r7, #27]
    1300:	711a      	strb	r2, [r3, #4]
    1302:	8bba      	ldrh	r2, [r7, #28]
    1304:	4613      	mov	r3, r2
    1306:	ea4f 7383 	mov.w	r3, r3, lsl #30
    130a:	1a9b      	subs	r3, r3, r2
    130c:	ea4f 0383 	mov.w	r3, r3, lsl #2
    1310:	f103 0304 	add.w	r3, r3, #4
    1314:	683a      	ldr	r2, [r7, #0]
    1316:	18d2      	adds	r2, r2, r3
    1318:	693b      	ldr	r3, [r7, #16]
    131a:	60da      	str	r2, [r3, #12]
    131c:	693b      	ldr	r3, [r7, #16]
    131e:	68db      	ldr	r3, [r3, #12]
    1320:	4a29      	ldr	r2, [pc, #164]	; (13c8 <CreateTask+0x140>)
    1322:	601a      	str	r2, [r3, #0]
    1324:	693b      	ldr	r3, [r7, #16]
    1326:	f04f 32ff 	mov.w	r2, #4294967295
    132a:	621a      	str	r2, [r3, #32]
    132c:	693b      	ldr	r3, [r7, #16]
    132e:	f04f 0200 	mov.w	r2, #0
    1332:	625a      	str	r2, [r3, #36]	; 0x24
    1334:	693b      	ldr	r3, [r7, #16]
    1336:	f04f 0200 	mov.w	r2, #0
    133a:	629a      	str	r2, [r3, #40]	; 0x28
    133c:	687a      	ldr	r2, [r7, #4]
    133e:	4b23      	ldr	r3, [pc, #140]	; (13cc <CreateTask+0x144>)
    1340:	ea02 0303 	and.w	r3, r2, r3
    1344:	ea4f 5313 	mov.w	r3, r3, lsr #20
    1348:	83fb      	strh	r3, [r7, #30]
    134a:	8bfb      	ldrh	r3, [r7, #30]
    134c:	2b00      	cmp	r3, #0
    134e:	d102      	bne.n	1356 <CreateTask+0xce>
    1350:	f04f 030a 	mov.w	r3, #10
    1354:	83fb      	strh	r3, [r7, #30]
    1356:	693b      	ldr	r3, [r7, #16]
    1358:	8bfa      	ldrh	r2, [r7, #30]
    135a:	815a      	strh	r2, [r3, #10]
    135c:	693b      	ldr	r3, [r7, #16]
    135e:	f04f 0200 	mov.w	r2, #0
    1362:	61da      	str	r2, [r3, #28]
    1364:	693b      	ldr	r3, [r7, #16]
    1366:	f04f 02ff 	mov.w	r2, #255	; 0xff
    136a:	721a      	strb	r2, [r3, #8]
    136c:	693b      	ldr	r3, [r7, #16]
    136e:	f04f 0200 	mov.w	r2, #0
    1372:	611a      	str	r2, [r3, #16]
    1374:	693b      	ldr	r3, [r7, #16]
    1376:	f04f 0200 	mov.w	r2, #0
    137a:	615a      	str	r2, [r3, #20]
    137c:	693b      	ldr	r3, [r7, #16]
    137e:	f04f 0200 	mov.w	r2, #0
    1382:	619a      	str	r2, [r3, #24]
    1384:	693b      	ldr	r3, [r7, #16]
    1386:	f04f 02ff 	mov.w	r2, #255	; 0xff
    138a:	71da      	strb	r2, [r3, #7]
    138c:	687b      	ldr	r3, [r7, #4]
    138e:	2b00      	cmp	r3, #0
    1390:	db0d      	blt.n	13ae <CreateTask+0x126>
    1392:	4b0f      	ldr	r3, [pc, #60]	; (13d0 <CreateTask+0x148>)
    1394:	781b      	ldrb	r3, [r3, #0]
    1396:	b2db      	uxtb	r3, r3
    1398:	f103 0301 	add.w	r3, r3, #1
    139c:	b2da      	uxtb	r2, r3
    139e:	4b0c      	ldr	r3, [pc, #48]	; (13d0 <CreateTask+0x148>)
    13a0:	701a      	strb	r2, [r3, #0]
    13a2:	6938      	ldr	r0, [r7, #16]
    13a4:	f7ff fcda 	bl	d5c <InsertToTCBRdyList>
    13a8:	f7fe ff2e 	bl	208 <OsSchedUnlock>
    13ac:	e003      	b.n	13b6 <CreateTask+0x12e>
    13ae:	693b      	ldr	r3, [r7, #16]
    13b0:	f04f 0202 	mov.w	r2, #2
    13b4:	715a      	strb	r2, [r3, #5]
    13b6:	693b      	ldr	r3, [r7, #16]
    13b8:	799b      	ldrb	r3, [r3, #6]
    13ba:	4618      	mov	r0, r3
    13bc:	f107 0720 	add.w	r7, r7, #32
    13c0:	46bd      	mov	sp, r7
    13c2:	bd80      	pop	{r7, pc}
    13c4:	000fff00 	.word	0x000fff00
    13c8:	5a5aa5a5 	.word	0x5a5aa5a5
    13cc:	7fff0000 	.word	0x7fff0000
    13d0:	10000235 	.word	0x10000235

000013d4 <CoDelTask>:
    13d4:	b580      	push	{r7, lr}
    13d6:	b084      	sub	sp, #16
    13d8:	af00      	add	r7, sp, #0
    13da:	4603      	mov	r3, r0
    13dc:	71fb      	strb	r3, [r7, #7]
    13de:	79fb      	ldrb	r3, [r7, #7]
    13e0:	2b05      	cmp	r3, #5
    13e2:	d902      	bls.n	13ea <CoDelTask+0x16>
    13e4:	f04f 0301 	mov.w	r3, #1
    13e8:	e07a      	b.n	14e0 <CoDelTask+0x10c>
    13ea:	79fb      	ldrb	r3, [r7, #7]
    13ec:	f04f 022c 	mov.w	r2, #44	; 0x2c
    13f0:	fb02 f203 	mul.w	r2, r2, r3
    13f4:	4b3d      	ldr	r3, [pc, #244]	; (14ec <CoDelTask+0x118>)
    13f6:	18d3      	adds	r3, r2, r3
    13f8:	60fb      	str	r3, [r7, #12]
    13fa:	68fb      	ldr	r3, [r7, #12]
    13fc:	795b      	ldrb	r3, [r3, #5]
    13fe:	2b03      	cmp	r3, #3
    1400:	d102      	bne.n	1408 <CoDelTask+0x34>
    1402:	f04f 0301 	mov.w	r3, #1
    1406:	e06b      	b.n	14e0 <CoDelTask+0x10c>
    1408:	79fb      	ldrb	r3, [r7, #7]
    140a:	2b00      	cmp	r3, #0
    140c:	d102      	bne.n	1414 <CoDelTask+0x40>
    140e:	f04f 0314 	mov.w	r3, #20
    1412:	e065      	b.n	14e0 <CoDelTask+0x10c>
    1414:	68fb      	ldr	r3, [r7, #12]
    1416:	795b      	ldrb	r3, [r3, #5]
    1418:	2b01      	cmp	r3, #1
    141a:	d107      	bne.n	142c <CoDelTask+0x58>
    141c:	4b34      	ldr	r3, [pc, #208]	; (14f0 <CoDelTask+0x11c>)
    141e:	781b      	ldrb	r3, [r3, #0]
    1420:	b2db      	uxtb	r3, r3
    1422:	2b00      	cmp	r3, #0
    1424:	d002      	beq.n	142c <CoDelTask+0x58>
    1426:	f04f 0315 	mov.w	r3, #21
    142a:	e059      	b.n	14e0 <CoDelTask+0x10c>
    142c:	68fb      	ldr	r3, [r7, #12]
    142e:	79db      	ldrb	r3, [r3, #7]
    1430:	2bff      	cmp	r3, #255	; 0xff
    1432:	d00f      	beq.n	1454 <CoDelTask+0x80>
    1434:	68fb      	ldr	r3, [r7, #12]
    1436:	79db      	ldrb	r3, [r3, #7]
    1438:	4a2e      	ldr	r2, [pc, #184]	; (14f4 <CoDelTask+0x120>)
    143a:	ea4f 03c3 	mov.w	r3, r3, lsl #3
    143e:	18d3      	adds	r3, r2, r3
    1440:	789a      	ldrb	r2, [r3, #2]
    1442:	68fb      	ldr	r3, [r7, #12]
    1444:	799b      	ldrb	r3, [r3, #6]
    1446:	429a      	cmp	r2, r3
    1448:	d104      	bne.n	1454 <CoDelTask+0x80>
    144a:	68fb      	ldr	r3, [r7, #12]
    144c:	79db      	ldrb	r3, [r3, #7]
    144e:	4618      	mov	r0, r3
    1450:	f001 fa20 	bl	2894 <CoLeaveMutexSection>
    1454:	4b26      	ldr	r3, [pc, #152]	; (14f0 <CoDelTask+0x11c>)
    1456:	781b      	ldrb	r3, [r3, #0]
    1458:	b2db      	uxtb	r3, r3
    145a:	f103 0301 	add.w	r3, r3, #1
    145e:	b2da      	uxtb	r2, r3
    1460:	4b23      	ldr	r3, [pc, #140]	; (14f0 <CoDelTask+0x11c>)
    1462:	701a      	strb	r2, [r3, #0]
    1464:	68fb      	ldr	r3, [r7, #12]
    1466:	795b      	ldrb	r3, [r3, #5]
    1468:	2b00      	cmp	r3, #0
    146a:	d103      	bne.n	1474 <CoDelTask+0xa0>
    146c:	68f8      	ldr	r0, [r7, #12]
    146e:	f7ff fcf9 	bl	e64 <RemoveFromTCBRdyList>
    1472:	e022      	b.n	14ba <CoDelTask+0xe6>
    1474:	68fb      	ldr	r3, [r7, #12]
    1476:	795b      	ldrb	r3, [r3, #5]
    1478:	2b02      	cmp	r3, #2
    147a:	d11e      	bne.n	14ba <CoDelTask+0xe6>
    147c:	68fb      	ldr	r3, [r7, #12]
    147e:	6a1b      	ldr	r3, [r3, #32]
    1480:	f1b3 3fff 	cmp.w	r3, #4294967295
    1484:	d002      	beq.n	148c <CoDelTask+0xb8>
    1486:	68f8      	ldr	r0, [r7, #12]
    1488:	f000 fc1c 	bl	1cc4 <RemoveDelayList>
    148c:	68fb      	ldr	r3, [r7, #12]
    148e:	7a1b      	ldrb	r3, [r3, #8]
    1490:	2bff      	cmp	r3, #255	; 0xff
    1492:	d002      	beq.n	149a <CoDelTask+0xc6>
    1494:	68f8      	ldr	r0, [r7, #12]
    1496:	f000 fec3 	bl	2220 <RemoveEventWaittingList>
    149a:	68fb      	ldr	r3, [r7, #12]
    149c:	69db      	ldr	r3, [r3, #28]
    149e:	2b00      	cmp	r3, #0
    14a0:	d004      	beq.n	14ac <CoDelTask+0xd8>
    14a2:	68fb      	ldr	r3, [r7, #12]
    14a4:	69db      	ldr	r3, [r3, #28]
    14a6:	4618      	mov	r0, r3
    14a8:	f001 fd6a 	bl	2f80 <RemoveLinkNode>
    14ac:	68fb      	ldr	r3, [r7, #12]
    14ae:	79db      	ldrb	r3, [r3, #7]
    14b0:	2bff      	cmp	r3, #255	; 0xff
    14b2:	d002      	beq.n	14ba <CoDelTask+0xe6>
    14b4:	68f8      	ldr	r0, [r7, #12]
    14b6:	f001 fa93 	bl	29e0 <RemoveMutexList>
    14ba:	68fb      	ldr	r3, [r7, #12]
    14bc:	f04f 0203 	mov.w	r2, #3
    14c0:	715a      	strb	r2, [r3, #5]
    14c2:	4b0d      	ldr	r3, [pc, #52]	; (14f8 <CoDelTask+0x124>)
    14c4:	f04f 0201 	mov.w	r2, #1
    14c8:	701a      	strb	r2, [r3, #0]
    14ca:	4b0c      	ldr	r3, [pc, #48]	; (14fc <CoDelTask+0x128>)
    14cc:	681a      	ldr	r2, [r3, #0]
    14ce:	68fb      	ldr	r3, [r7, #12]
    14d0:	625a      	str	r2, [r3, #36]	; 0x24
    14d2:	4b0a      	ldr	r3, [pc, #40]	; (14fc <CoDelTask+0x128>)
    14d4:	68fa      	ldr	r2, [r7, #12]
    14d6:	601a      	str	r2, [r3, #0]
    14d8:	f7fe fe96 	bl	208 <OsSchedUnlock>
    14dc:	f04f 0300 	mov.w	r3, #0
    14e0:	4618      	mov	r0, r3
    14e2:	f107 0710 	add.w	r7, r7, #16
    14e6:	46bd      	mov	sp, r7
    14e8:	bd80      	pop	{r7, pc}
    14ea:	bf00      	nop
    14ec:	10000490 	.word	0x10000490
    14f0:	10000235 	.word	0x10000235
    14f4:	10000998 	.word	0x10000998
    14f8:	10000236 	.word	0x10000236
    14fc:	100005fc 	.word	0x100005fc

00001500 <ADC_Init>:
    1500:	b580      	push	{r7, lr}
    1502:	b084      	sub	sp, #16
    1504:	af00      	add	r7, sp, #0
    1506:	6078      	str	r0, [r7, #4]
    1508:	6039      	str	r1, [r7, #0]
    150a:	687a      	ldr	r2, [r7, #4]
    150c:	4b1f      	ldr	r3, [pc, #124]	; (158c <ADC_Init+0x8c>)
    150e:	429a      	cmp	r2, r3
    1510:	d004      	beq.n	151c <ADC_Init+0x1c>
    1512:	481f      	ldr	r0, [pc, #124]	; (1590 <ADC_Init+0x90>)
    1514:	f04f 013c 	mov.w	r1, #60	; 0x3c
    1518:	f000 fb54 	bl	1bc4 <check_failed>
    151c:	683b      	ldr	r3, [r7, #0]
    151e:	2b00      	cmp	r3, #0
    1520:	d003      	beq.n	152a <ADC_Init+0x2a>
    1522:	683a      	ldr	r2, [r7, #0]
    1524:	4b1b      	ldr	r3, [pc, #108]	; (1594 <ADC_Init+0x94>)
    1526:	429a      	cmp	r2, r3
    1528:	d904      	bls.n	1534 <ADC_Init+0x34>
    152a:	4819      	ldr	r0, [pc, #100]	; (1590 <ADC_Init+0x90>)
    152c:	f04f 013d 	mov.w	r1, #61	; 0x3d
    1530:	f000 fb48 	bl	1bc4 <check_failed>
    1534:	f44f 5080 	mov.w	r0, #4096	; 0x1000
    1538:	f04f 0101 	mov.w	r1, #1
    153c:	f7ff f986 	bl	84c <CLKPWR_ConfigPPWR>
    1540:	687b      	ldr	r3, [r7, #4]
    1542:	f04f 0200 	mov.w	r2, #0
    1546:	601a      	str	r2, [r3, #0]
    1548:	f44f 1300 	mov.w	r3, #2097152	; 0x200000
    154c:	60fb      	str	r3, [r7, #12]
    154e:	f04f 0018 	mov.w	r0, #24
    1552:	f7ff f943 	bl	7dc <CLKPWR_GetPCLK>
    1556:	60b8      	str	r0, [r7, #8]
    1558:	683a      	ldr	r2, [r7, #0]
    155a:	4613      	mov	r3, r2
    155c:	ea4f 1383 	mov.w	r3, r3, lsl #6
    1560:	189b      	adds	r3, r3, r2
    1562:	68ba      	ldr	r2, [r7, #8]
    1564:	fbb2 f3f3 	udiv	r3, r2, r3
    1568:	f103 33ff 	add.w	r3, r3, #4294967295
    156c:	60bb      	str	r3, [r7, #8]
    156e:	68bb      	ldr	r3, [r7, #8]
    1570:	ea4f 2303 	mov.w	r3, r3, lsl #8
    1574:	68fa      	ldr	r2, [r7, #12]
    1576:	ea42 0303 	orr.w	r3, r2, r3
    157a:	60fb      	str	r3, [r7, #12]
    157c:	687b      	ldr	r3, [r7, #4]
    157e:	68fa      	ldr	r2, [r7, #12]
    1580:	601a      	str	r2, [r3, #0]
    1582:	f107 0710 	add.w	r7, r7, #16
    1586:	46bd      	mov	sp, r7
    1588:	bd80      	pop	{r7, pc}
    158a:	bf00      	nop
    158c:	40034000 	.word	0x40034000
    1590:	000072b0 	.word	0x000072b0
    1594:	00030d40 	.word	0x00030d40

00001598 <ADC_StartCmd>:
    1598:	b580      	push	{r7, lr}
    159a:	b082      	sub	sp, #8
    159c:	af00      	add	r7, sp, #0
    159e:	6078      	str	r0, [r7, #4]
    15a0:	460b      	mov	r3, r1
    15a2:	70fb      	strb	r3, [r7, #3]
    15a4:	687a      	ldr	r2, [r7, #4]
    15a6:	4b1b      	ldr	r3, [pc, #108]	; (1614 <ADC_StartCmd+0x7c>)
    15a8:	429a      	cmp	r2, r3
    15aa:	d004      	beq.n	15b6 <ADC_StartCmd+0x1e>
    15ac:	481a      	ldr	r0, [pc, #104]	; (1618 <ADC_StartCmd+0x80>)
    15ae:	f04f 0185 	mov.w	r1, #133	; 0x85
    15b2:	f000 fb07 	bl	1bc4 <check_failed>
    15b6:	78fb      	ldrb	r3, [r7, #3]
    15b8:	2b00      	cmp	r3, #0
    15ba:	d019      	beq.n	15f0 <ADC_StartCmd+0x58>
    15bc:	78fb      	ldrb	r3, [r7, #3]
    15be:	2b01      	cmp	r3, #1
    15c0:	d016      	beq.n	15f0 <ADC_StartCmd+0x58>
    15c2:	78fb      	ldrb	r3, [r7, #3]
    15c4:	2b02      	cmp	r3, #2
    15c6:	d013      	beq.n	15f0 <ADC_StartCmd+0x58>
    15c8:	78fb      	ldrb	r3, [r7, #3]
    15ca:	2b03      	cmp	r3, #3
    15cc:	d010      	beq.n	15f0 <ADC_StartCmd+0x58>
    15ce:	78fb      	ldrb	r3, [r7, #3]
    15d0:	2b04      	cmp	r3, #4
    15d2:	d00d      	beq.n	15f0 <ADC_StartCmd+0x58>
    15d4:	78fb      	ldrb	r3, [r7, #3]
    15d6:	2b05      	cmp	r3, #5
    15d8:	d00a      	beq.n	15f0 <ADC_StartCmd+0x58>
    15da:	78fb      	ldrb	r3, [r7, #3]
    15dc:	2b06      	cmp	r3, #6
    15de:	d007      	beq.n	15f0 <ADC_StartCmd+0x58>
    15e0:	78fb      	ldrb	r3, [r7, #3]
    15e2:	2b07      	cmp	r3, #7
    15e4:	d004      	beq.n	15f0 <ADC_StartCmd+0x58>
    15e6:	480c      	ldr	r0, [pc, #48]	; (1618 <ADC_StartCmd+0x80>)
    15e8:	f04f 0186 	mov.w	r1, #134	; 0x86
    15ec:	f000 faea 	bl	1bc4 <check_failed>
    15f0:	687b      	ldr	r3, [r7, #4]
    15f2:	681b      	ldr	r3, [r3, #0]
    15f4:	f023 62e0 	bic.w	r2, r3, #117440512	; 0x7000000
    15f8:	687b      	ldr	r3, [r7, #4]
    15fa:	601a      	str	r2, [r3, #0]
    15fc:	687b      	ldr	r3, [r7, #4]
    15fe:	681a      	ldr	r2, [r3, #0]
    1600:	78fb      	ldrb	r3, [r7, #3]
    1602:	ea4f 6303 	mov.w	r3, r3, lsl #24
    1606:	431a      	orrs	r2, r3
    1608:	687b      	ldr	r3, [r7, #4]
    160a:	601a      	str	r2, [r3, #0]
    160c:	f107 0708 	add.w	r7, r7, #8
    1610:	46bd      	mov	sp, r7
    1612:	bd80      	pop	{r7, pc}
    1614:	40034000 	.word	0x40034000
    1618:	000072b0 	.word	0x000072b0

0000161c <ADC_IntConfig>:
    161c:	b580      	push	{r7, lr}
    161e:	b082      	sub	sp, #8
    1620:	af00      	add	r7, sp, #0
    1622:	6078      	str	r0, [r7, #4]
    1624:	4613      	mov	r3, r2
    1626:	460a      	mov	r2, r1
    1628:	70fa      	strb	r2, [r7, #3]
    162a:	70bb      	strb	r3, [r7, #2]
    162c:	687a      	ldr	r2, [r7, #4]
    162e:	4b22      	ldr	r3, [pc, #136]	; (16b8 <ADC_IntConfig+0x9c>)
    1630:	429a      	cmp	r2, r3
    1632:	d004      	beq.n	163e <ADC_IntConfig+0x22>
    1634:	4821      	ldr	r0, [pc, #132]	; (16bc <ADC_IntConfig+0xa0>)
    1636:	f04f 01d4 	mov.w	r1, #212	; 0xd4
    163a:	f000 fac3 	bl	1bc4 <check_failed>
    163e:	78fb      	ldrb	r3, [r7, #3]
    1640:	2b00      	cmp	r3, #0
    1642:	d01c      	beq.n	167e <ADC_IntConfig+0x62>
    1644:	78fb      	ldrb	r3, [r7, #3]
    1646:	2b01      	cmp	r3, #1
    1648:	d019      	beq.n	167e <ADC_IntConfig+0x62>
    164a:	78fb      	ldrb	r3, [r7, #3]
    164c:	2b02      	cmp	r3, #2
    164e:	d016      	beq.n	167e <ADC_IntConfig+0x62>
    1650:	78fb      	ldrb	r3, [r7, #3]
    1652:	2b03      	cmp	r3, #3
    1654:	d013      	beq.n	167e <ADC_IntConfig+0x62>
    1656:	78fb      	ldrb	r3, [r7, #3]
    1658:	2b04      	cmp	r3, #4
    165a:	d010      	beq.n	167e <ADC_IntConfig+0x62>
    165c:	78fb      	ldrb	r3, [r7, #3]
    165e:	2b05      	cmp	r3, #5
    1660:	d00d      	beq.n	167e <ADC_IntConfig+0x62>
    1662:	78fb      	ldrb	r3, [r7, #3]
    1664:	2b06      	cmp	r3, #6
    1666:	d00a      	beq.n	167e <ADC_IntConfig+0x62>
    1668:	78fb      	ldrb	r3, [r7, #3]
    166a:	2b07      	cmp	r3, #7
    166c:	d007      	beq.n	167e <ADC_IntConfig+0x62>
    166e:	78fb      	ldrb	r3, [r7, #3]
    1670:	2b08      	cmp	r3, #8
    1672:	d004      	beq.n	167e <ADC_IntConfig+0x62>
    1674:	4811      	ldr	r0, [pc, #68]	; (16bc <ADC_IntConfig+0xa0>)
    1676:	f04f 01d5 	mov.w	r1, #213	; 0xd5
    167a:	f000 faa3 	bl	1bc4 <check_failed>
    167e:	687b      	ldr	r3, [r7, #4]
    1680:	68da      	ldr	r2, [r3, #12]
    1682:	78fb      	ldrb	r3, [r7, #3]
    1684:	f04f 0101 	mov.w	r1, #1
    1688:	fa01 f303 	lsl.w	r3, r1, r3
    168c:	ea6f 0303 	mvn.w	r3, r3
    1690:	401a      	ands	r2, r3
    1692:	687b      	ldr	r3, [r7, #4]
    1694:	60da      	str	r2, [r3, #12]
    1696:	78bb      	ldrb	r3, [r7, #2]
    1698:	2b00      	cmp	r3, #0
    169a:	d009      	beq.n	16b0 <ADC_IntConfig+0x94>
    169c:	687b      	ldr	r3, [r7, #4]
    169e:	68da      	ldr	r2, [r3, #12]
    16a0:	78fb      	ldrb	r3, [r7, #3]
    16a2:	f04f 0101 	mov.w	r1, #1
    16a6:	fa01 f303 	lsl.w	r3, r1, r3
    16aa:	431a      	orrs	r2, r3
    16ac:	687b      	ldr	r3, [r7, #4]
    16ae:	60da      	str	r2, [r3, #12]
    16b0:	f107 0708 	add.w	r7, r7, #8
    16b4:	46bd      	mov	sp, r7
    16b6:	bd80      	pop	{r7, pc}
    16b8:	40034000 	.word	0x40034000
    16bc:	000072b0 	.word	0x000072b0

000016c0 <ADC_ChannelCmd>:
    16c0:	b580      	push	{r7, lr}
    16c2:	b082      	sub	sp, #8
    16c4:	af00      	add	r7, sp, #0
    16c6:	6078      	str	r0, [r7, #4]
    16c8:	4613      	mov	r3, r2
    16ca:	460a      	mov	r2, r1
    16cc:	70fa      	strb	r2, [r7, #3]
    16ce:	70bb      	strb	r3, [r7, #2]
    16d0:	687a      	ldr	r2, [r7, #4]
    16d2:	4b13      	ldr	r3, [pc, #76]	; (1720 <ADC_ChannelCmd+0x60>)
    16d4:	429a      	cmp	r2, r3
    16d6:	d004      	beq.n	16e2 <ADC_ChannelCmd+0x22>
    16d8:	4812      	ldr	r0, [pc, #72]	; (1724 <ADC_ChannelCmd+0x64>)
    16da:	f04f 01e7 	mov.w	r1, #231	; 0xe7
    16de:	f000 fa71 	bl	1bc4 <check_failed>
    16e2:	78bb      	ldrb	r3, [r7, #2]
    16e4:	2b01      	cmp	r3, #1
    16e6:	d10a      	bne.n	16fe <ADC_ChannelCmd+0x3e>
    16e8:	687b      	ldr	r3, [r7, #4]
    16ea:	681a      	ldr	r2, [r3, #0]
    16ec:	78fb      	ldrb	r3, [r7, #3]
    16ee:	f04f 0101 	mov.w	r1, #1
    16f2:	fa01 f303 	lsl.w	r3, r1, r3
    16f6:	431a      	orrs	r2, r3
    16f8:	687b      	ldr	r3, [r7, #4]
    16fa:	601a      	str	r2, [r3, #0]
    16fc:	e00b      	b.n	1716 <ADC_ChannelCmd+0x56>
    16fe:	687b      	ldr	r3, [r7, #4]
    1700:	681a      	ldr	r2, [r3, #0]
    1702:	78fb      	ldrb	r3, [r7, #3]
    1704:	f04f 0101 	mov.w	r1, #1
    1708:	fa01 f303 	lsl.w	r3, r1, r3
    170c:	ea6f 0303 	mvn.w	r3, r3
    1710:	401a      	ands	r2, r3
    1712:	687b      	ldr	r3, [r7, #4]
    1714:	601a      	str	r2, [r3, #0]
    1716:	f107 0708 	add.w	r7, r7, #8
    171a:	46bd      	mov	sp, r7
    171c:	bd80      	pop	{r7, pc}
    171e:	bf00      	nop
    1720:	40034000 	.word	0x40034000
    1724:	000072b0 	.word	0x000072b0

00001728 <ADC_ChannelGetData>:
    1728:	b580      	push	{r7, lr}
    172a:	b084      	sub	sp, #16
    172c:	af00      	add	r7, sp, #0
    172e:	6078      	str	r0, [r7, #4]
    1730:	460b      	mov	r3, r1
    1732:	70fb      	strb	r3, [r7, #3]
    1734:	687a      	ldr	r2, [r7, #4]
    1736:	4b0f      	ldr	r3, [pc, #60]	; (1774 <ADC_ChannelGetData+0x4c>)
    1738:	429a      	cmp	r2, r3
    173a:	d004      	beq.n	1746 <ADC_ChannelGetData+0x1e>
    173c:	480e      	ldr	r0, [pc, #56]	; (1778 <ADC_ChannelGetData+0x50>)
    173e:	f04f 01fb 	mov.w	r1, #251	; 0xfb
    1742:	f000 fa3f 	bl	1bc4 <check_failed>
    1746:	687b      	ldr	r3, [r7, #4]
    1748:	f103 0210 	add.w	r2, r3, #16
    174c:	78fb      	ldrb	r3, [r7, #3]
    174e:	ea4f 0383 	mov.w	r3, r3, lsl #2
    1752:	18d3      	adds	r3, r2, r3
    1754:	681b      	ldr	r3, [r3, #0]
    1756:	60fb      	str	r3, [r7, #12]
    1758:	68fb      	ldr	r3, [r7, #12]
    175a:	ea4f 1313 	mov.w	r3, r3, lsr #4
    175e:	b29b      	uxth	r3, r3
    1760:	ea4f 5303 	mov.w	r3, r3, lsl #20
    1764:	ea4f 5313 	mov.w	r3, r3, lsr #20
    1768:	b29b      	uxth	r3, r3
    176a:	4618      	mov	r0, r3
    176c:	f107 0710 	add.w	r7, r7, #16
    1770:	46bd      	mov	sp, r7
    1772:	bd80      	pop	{r7, pc}
    1774:	40034000 	.word	0x40034000
    1778:	000072b0 	.word	0x000072b0

0000177c <ADC_ChannelGetStatus>:
    177c:	b580      	push	{r7, lr}
    177e:	b086      	sub	sp, #24
    1780:	af00      	add	r7, sp, #0
    1782:	60f8      	str	r0, [r7, #12]
    1784:	460b      	mov	r3, r1
    1786:	607a      	str	r2, [r7, #4]
    1788:	72fb      	strb	r3, [r7, #11]
    178a:	68fa      	ldr	r2, [r7, #12]
    178c:	4b1a      	ldr	r3, [pc, #104]	; (17f8 <ADC_ChannelGetStatus+0x7c>)
    178e:	429a      	cmp	r2, r3
    1790:	d004      	beq.n	179c <ADC_ChannelGetStatus+0x20>
    1792:	481a      	ldr	r0, [pc, #104]	; (17fc <ADC_ChannelGetStatus+0x80>)
    1794:	f240 110f 	movw	r1, #271	; 0x10f
    1798:	f000 fa14 	bl	1bc4 <check_failed>
    179c:	687b      	ldr	r3, [r7, #4]
    179e:	2b00      	cmp	r3, #0
    17a0:	d007      	beq.n	17b2 <ADC_ChannelGetStatus+0x36>
    17a2:	687b      	ldr	r3, [r7, #4]
    17a4:	2b01      	cmp	r3, #1
    17a6:	d004      	beq.n	17b2 <ADC_ChannelGetStatus+0x36>
    17a8:	4814      	ldr	r0, [pc, #80]	; (17fc <ADC_ChannelGetStatus+0x80>)
    17aa:	f240 1111 	movw	r1, #273	; 0x111
    17ae:	f000 fa09 	bl	1bc4 <check_failed>
    17b2:	68fb      	ldr	r3, [r7, #12]
    17b4:	f103 0210 	add.w	r2, r3, #16
    17b8:	7afb      	ldrb	r3, [r7, #11]
    17ba:	ea4f 0383 	mov.w	r3, r3, lsl #2
    17be:	18d3      	adds	r3, r2, r3
    17c0:	681b      	ldr	r3, [r3, #0]
    17c2:	617b      	str	r3, [r7, #20]
    17c4:	687b      	ldr	r3, [r7, #4]
    17c6:	2b00      	cmp	r3, #0
    17c8:	d004      	beq.n	17d4 <ADC_ChannelGetStatus+0x58>
    17ca:	697b      	ldr	r3, [r7, #20]
    17cc:	f003 4300 	and.w	r3, r3, #2147483648	; 0x80000000
    17d0:	617b      	str	r3, [r7, #20]
    17d2:	e003      	b.n	17dc <ADC_ChannelGetStatus+0x60>
    17d4:	697b      	ldr	r3, [r7, #20]
    17d6:	f003 4380 	and.w	r3, r3, #1073741824	; 0x40000000
    17da:	617b      	str	r3, [r7, #20]
    17dc:	697b      	ldr	r3, [r7, #20]
    17de:	2b00      	cmp	r3, #0
    17e0:	d002      	beq.n	17e8 <ADC_ChannelGetStatus+0x6c>
    17e2:	f04f 0301 	mov.w	r3, #1
    17e6:	e001      	b.n	17ec <ADC_ChannelGetStatus+0x70>
    17e8:	f04f 0300 	mov.w	r3, #0
    17ec:	4618      	mov	r0, r3
    17ee:	f107 0718 	add.w	r7, r7, #24
    17f2:	46bd      	mov	sp, r7
    17f4:	bd80      	pop	{r7, pc}
    17f6:	bf00      	nop
    17f8:	40034000 	.word	0x40034000
    17fc:	000072b0 	.word	0x000072b0

00001800 <InsertInSRQ>:
    1800:	b580      	push	{r7, lr}
    1802:	b084      	sub	sp, #16
    1804:	af00      	add	r7, sp, #0
    1806:	460b      	mov	r3, r1
    1808:	603a      	str	r2, [r7, #0]
    180a:	4602      	mov	r2, r0
    180c:	71fa      	strb	r2, [r7, #7]
    180e:	71bb      	strb	r3, [r7, #6]
    1810:	f000 fe98 	bl	2544 <IRQ_DISABLE_SAVE>
    1814:	4b1e      	ldr	r3, [pc, #120]	; (1890 <InsertInSRQ+0x90>)
    1816:	781b      	ldrb	r3, [r3, #0]
    1818:	2b04      	cmp	r3, #4
    181a:	d904      	bls.n	1826 <InsertInSRQ+0x26>
    181c:	f000 fe8c 	bl	2538 <IRQ_ENABLE_RESTORE>
    1820:	f04f 0300 	mov.w	r3, #0
    1824:	e02f      	b.n	1886 <InsertInSRQ+0x86>
    1826:	4b1a      	ldr	r3, [pc, #104]	; (1890 <InsertInSRQ+0x90>)
    1828:	4618      	mov	r0, r3
    182a:	f000 fe53 	bl	24d4 <Inc8>
    182e:	4603      	mov	r3, r0
    1830:	73fb      	strb	r3, [r7, #15]
    1832:	4b17      	ldr	r3, [pc, #92]	; (1890 <InsertInSRQ+0x90>)
    1834:	785b      	ldrb	r3, [r3, #1]
    1836:	73bb      	strb	r3, [r7, #14]
    1838:	4b16      	ldr	r3, [pc, #88]	; (1894 <InsertInSRQ+0x94>)
    183a:	f04f 0201 	mov.w	r2, #1
    183e:	701a      	strb	r2, [r3, #0]
    1840:	7bfa      	ldrb	r2, [r7, #15]
    1842:	7bbb      	ldrb	r3, [r7, #14]
    1844:	18d1      	adds	r1, r2, r3
    1846:	4b14      	ldr	r3, [pc, #80]	; (1898 <InsertInSRQ+0x98>)
    1848:	fb83 2301 	smull	r2, r3, r3, r1
    184c:	ea4f 0263 	mov.w	r2, r3, asr #1
    1850:	ea4f 73e1 	mov.w	r3, r1, asr #31
    1854:	1ad2      	subs	r2, r2, r3
    1856:	4613      	mov	r3, r2
    1858:	ea4f 0383 	mov.w	r3, r3, lsl #2
    185c:	189b      	adds	r3, r3, r2
    185e:	1aca      	subs	r2, r1, r3
    1860:	4613      	mov	r3, r2
    1862:	ea4f 02c3 	mov.w	r2, r3, lsl #3
    1866:	4b0d      	ldr	r3, [pc, #52]	; (189c <InsertInSRQ+0x9c>)
    1868:	18d3      	adds	r3, r2, r3
    186a:	60bb      	str	r3, [r7, #8]
    186c:	68bb      	ldr	r3, [r7, #8]
    186e:	79fa      	ldrb	r2, [r7, #7]
    1870:	701a      	strb	r2, [r3, #0]
    1872:	68bb      	ldr	r3, [r7, #8]
    1874:	79ba      	ldrb	r2, [r7, #6]
    1876:	705a      	strb	r2, [r3, #1]
    1878:	68bb      	ldr	r3, [r7, #8]
    187a:	683a      	ldr	r2, [r7, #0]
    187c:	605a      	str	r2, [r3, #4]
    187e:	f000 fe5b 	bl	2538 <IRQ_ENABLE_RESTORE>
    1882:	f04f 0301 	mov.w	r3, #1
    1886:	4618      	mov	r0, r3
    1888:	f107 0710 	add.w	r7, r7, #16
    188c:	46bd      	mov	sp, r7
    188e:	bd80      	pop	{r7, pc}
    1890:	10000618 	.word	0x10000618
    1894:	10000644 	.word	0x10000644
    1898:	66666667 	.word	0x66666667
    189c:	1000061c 	.word	0x1000061c

000018a0 <RespondSRQ>:
    18a0:	b580      	push	{r7, lr}
    18a2:	b082      	sub	sp, #8
    18a4:	af00      	add	r7, sp, #0
    18a6:	4b40      	ldr	r3, [pc, #256]	; (19a8 <RespondSRQ+0x108>)
    18a8:	781b      	ldrb	r3, [r3, #0]
    18aa:	2b01      	cmp	r3, #1
    18ac:	d105      	bne.n	18ba <RespondSRQ+0x1a>
    18ae:	f000 fb01 	bl	1eb4 <TimeDispose>
    18b2:	4b3d      	ldr	r3, [pc, #244]	; (19a8 <RespondSRQ+0x108>)
    18b4:	f04f 0200 	mov.w	r2, #0
    18b8:	701a      	strb	r2, [r3, #0]
    18ba:	4b3c      	ldr	r3, [pc, #240]	; (19ac <RespondSRQ+0x10c>)
    18bc:	781b      	ldrb	r3, [r3, #0]
    18be:	2b01      	cmp	r3, #1
    18c0:	d15a      	bne.n	1978 <RespondSRQ+0xd8>
    18c2:	f7fe ff0d 	bl	6e0 <TmrDispose>
    18c6:	4b39      	ldr	r3, [pc, #228]	; (19ac <RespondSRQ+0x10c>)
    18c8:	f04f 0200 	mov.w	r2, #0
    18cc:	701a      	strb	r2, [r3, #0]
    18ce:	e056      	b.n	197e <RespondSRQ+0xde>
    18d0:	f000 fe38 	bl	2544 <IRQ_DISABLE_SAVE>
    18d4:	4b36      	ldr	r3, [pc, #216]	; (19b0 <RespondSRQ+0x110>)
    18d6:	785b      	ldrb	r3, [r3, #1]
    18d8:	4a35      	ldr	r2, [pc, #212]	; (19b0 <RespondSRQ+0x110>)
    18da:	ea4f 03c3 	mov.w	r3, r3, lsl #3
    18de:	18d3      	adds	r3, r2, r3
    18e0:	463a      	mov	r2, r7
    18e2:	f103 0304 	add.w	r3, r3, #4
    18e6:	e893 0003 	ldmia.w	r3, {r0, r1}
    18ea:	e882 0003 	stmia.w	r2, {r0, r1}
    18ee:	4b30      	ldr	r3, [pc, #192]	; (19b0 <RespondSRQ+0x110>)
    18f0:	785b      	ldrb	r3, [r3, #1]
    18f2:	f103 0101 	add.w	r1, r3, #1
    18f6:	4b2f      	ldr	r3, [pc, #188]	; (19b4 <RespondSRQ+0x114>)
    18f8:	fb83 2301 	smull	r2, r3, r3, r1
    18fc:	ea4f 0263 	mov.w	r2, r3, asr #1
    1900:	ea4f 73e1 	mov.w	r3, r1, asr #31
    1904:	1ad2      	subs	r2, r2, r3
    1906:	4613      	mov	r3, r2
    1908:	ea4f 0383 	mov.w	r3, r3, lsl #2
    190c:	189b      	adds	r3, r3, r2
    190e:	1aca      	subs	r2, r1, r3
    1910:	b2d2      	uxtb	r2, r2
    1912:	4b27      	ldr	r3, [pc, #156]	; (19b0 <RespondSRQ+0x110>)
    1914:	705a      	strb	r2, [r3, #1]
    1916:	4b26      	ldr	r3, [pc, #152]	; (19b0 <RespondSRQ+0x110>)
    1918:	781b      	ldrb	r3, [r3, #0]
    191a:	f103 33ff 	add.w	r3, r3, #4294967295
    191e:	b2da      	uxtb	r2, r3
    1920:	4b23      	ldr	r3, [pc, #140]	; (19b0 <RespondSRQ+0x110>)
    1922:	701a      	strb	r2, [r3, #0]
    1924:	f000 fe08 	bl	2538 <IRQ_ENABLE_RESTORE>
    1928:	783b      	ldrb	r3, [r7, #0]
    192a:	f103 33ff 	add.w	r3, r3, #4294967295
    192e:	2b03      	cmp	r3, #3
    1930:	d824      	bhi.n	197c <RespondSRQ+0xdc>
    1932:	a201      	add	r2, pc, #4	; (adr r2, 1938 <RespondSRQ+0x98>)
    1934:	f852 f023 	ldr.w	pc, [r2, r3, lsl #2]
    1938:	00001949 	.word	0x00001949
    193c:	00001953 	.word	0x00001953
    1940:	00001961 	.word	0x00001961
    1944:	0000196b 	.word	0x0000196b
    1948:	787b      	ldrb	r3, [r7, #1]
    194a:	4618      	mov	r0, r3
    194c:	f003 f81e 	bl	498c <CoPostSem>
    1950:	e015      	b.n	197e <RespondSRQ+0xde>
    1952:	787a      	ldrb	r2, [r7, #1]
    1954:	687b      	ldr	r3, [r7, #4]
    1956:	4610      	mov	r0, r2
    1958:	4619      	mov	r1, r3
    195a:	f000 f8b3 	bl	1ac4 <CoPostMail>
    195e:	e00e      	b.n	197e <RespondSRQ+0xde>
    1960:	787b      	ldrb	r3, [r7, #1]
    1962:	4618      	mov	r0, r3
    1964:	f001 f9ec 	bl	2d40 <CoSetFlag>
    1968:	e009      	b.n	197e <RespondSRQ+0xde>
    196a:	787a      	ldrb	r2, [r7, #1]
    196c:	687b      	ldr	r3, [r7, #4]
    196e:	4610      	mov	r0, r2
    1970:	4619      	mov	r1, r3
    1972:	f000 fe1b 	bl	25ac <CoPostQueueMail>
    1976:	e002      	b.n	197e <RespondSRQ+0xde>
    1978:	bf00      	nop
    197a:	e000      	b.n	197e <RespondSRQ+0xde>
    197c:	bf00      	nop
    197e:	4b0c      	ldr	r3, [pc, #48]	; (19b0 <RespondSRQ+0x110>)
    1980:	781b      	ldrb	r3, [r3, #0]
    1982:	2b00      	cmp	r3, #0
    1984:	d1a4      	bne.n	18d0 <RespondSRQ+0x30>
    1986:	f000 fddd 	bl	2544 <IRQ_DISABLE_SAVE>
    198a:	4b09      	ldr	r3, [pc, #36]	; (19b0 <RespondSRQ+0x110>)
    198c:	781b      	ldrb	r3, [r3, #0]
    198e:	2b00      	cmp	r3, #0
    1990:	d103      	bne.n	199a <RespondSRQ+0xfa>
    1992:	4b09      	ldr	r3, [pc, #36]	; (19b8 <RespondSRQ+0x118>)
    1994:	f04f 0200 	mov.w	r2, #0
    1998:	701a      	strb	r2, [r3, #0]
    199a:	f000 fdcd 	bl	2538 <IRQ_ENABLE_RESTORE>
    199e:	f107 0708 	add.w	r7, r7, #8
    19a2:	46bd      	mov	sp, r7
    19a4:	bd80      	pop	{r7, pc}
    19a6:	bf00      	nop
    19a8:	10000645 	.word	0x10000645
    19ac:	10000646 	.word	0x10000646
    19b0:	10000618 	.word	0x10000618
    19b4:	66666667 	.word	0x66666667
    19b8:	10000644 	.word	0x10000644

000019bc <main>:
    19bc:	b580      	push	{r7, lr}
    19be:	b082      	sub	sp, #8
    19c0:	af02      	add	r7, sp, #8
    19c2:	f7ff f83d 	bl	a40 <drv_led_load>
    19c6:	f7fe fca5 	bl	314 <drv_buzz_load>
    19ca:	f002 fd3d 	bl	4448 <drv_pot_load>
    19ce:	f001 fe55 	bl	367c <drv_usr_int_load>
    19d2:	f002 fde3 	bl	459c <mdw_log_load>
    19d6:	f000 f8b7 	bl	1b48 <drv_sd_load>
    19da:	f7fe fc3d 	bl	258 <CoInitOS>
    19de:	480f      	ldr	r0, [pc, #60]	; (1a1c <main+0x60>)
    19e0:	f04f 0100 	mov.w	r1, #0
    19e4:	f44f 4200 	mov.w	r2, #32768	; 0x8000
    19e8:	4b0d      	ldr	r3, [pc, #52]	; (1a20 <main+0x64>)
    19ea:	f7ff fc4d 	bl	1288 <CreateTask>
    19ee:	4603      	mov	r3, r0
    19f0:	461a      	mov	r2, r3
    19f2:	4b0c      	ldr	r3, [pc, #48]	; (1a24 <main+0x68>)
    19f4:	701a      	strb	r2, [r3, #0]
    19f6:	4b0b      	ldr	r3, [pc, #44]	; (1a24 <main+0x68>)
    19f8:	781b      	ldrb	r3, [r3, #0]
    19fa:	2bff      	cmp	r3, #255	; 0xff
    19fc:	d10a      	bne.n	1a14 <main+0x58>
    19fe:	f04f 0311 	mov.w	r3, #17
    1a02:	9300      	str	r3, [sp, #0]
    1a04:	4808      	ldr	r0, [pc, #32]	; (1a28 <main+0x6c>)
    1a06:	f04f 0104 	mov.w	r1, #4
    1a0a:	f04f 0228 	mov.w	r2, #40	; 0x28
    1a0e:	4b07      	ldr	r3, [pc, #28]	; (1a2c <main+0x70>)
    1a10:	f7fe ff4c 	bl	8ac <mdw_log_error>
    1a14:	f7fe fc62 	bl	2dc <CoStartOS>
    1a18:	e7fe      	b.n	1a18 <main+0x5c>
    1a1a:	bf00      	nop
    1a1c:	00001a31 	.word	0x00001a31
    1a20:	10000844 	.word	0x10000844
    1a24:	10000848 	.word	0x10000848
    1a28:	00007330 	.word	0x00007330
    1a2c:	000072f8 	.word	0x000072f8

00001a30 <main_task>:
    1a30:	b580      	push	{r7, lr}
    1a32:	b084      	sub	sp, #16
    1a34:	af00      	add	r7, sp, #0
    1a36:	6078      	str	r0, [r7, #4]
    1a38:	f7ff f822 	bl	a80 <drv_led_open>
    1a3c:	f7fe fc8a 	bl	354 <drv_buzz_open>
    1a40:	f002 fd1c 	bl	447c <drv_pot_open>
    1a44:	4816      	ldr	r0, [pc, #88]	; (1aa0 <main_task+0x70>)
    1a46:	f001 fe45 	bl	36d4 <drv_usr_int_open>
    1a4a:	f002 fdad 	bl	45a8 <mdw_log_open>
    1a4e:	4815      	ldr	r0, [pc, #84]	; (1aa4 <main_task+0x74>)
    1a50:	f002 fe32 	bl	46b8 <mdw_log_debug>
    1a54:	f04f 0000 	mov.w	r0, #0
    1a58:	f04f 0132 	mov.w	r1, #50	; 0x32
    1a5c:	f7ff f836 	bl	acc <drv_led_start>
    1a60:	f04f 0000 	mov.w	r0, #0
    1a64:	f04f 0100 	mov.w	r1, #0
    1a68:	f04f 0200 	mov.w	r2, #0
    1a6c:	f44f 73c8 	mov.w	r3, #400	; 0x190
    1a70:	f000 f9c6 	bl	1e00 <CoTimeDelay>
    1a74:	f7ff f864 	bl	b40 <drv_led_stop>
    1a78:	f04f 0001 	mov.w	r0, #1
    1a7c:	f44f 71fa 	mov.w	r1, #500	; 0x1f4
    1a80:	f7ff f824 	bl	acc <drv_led_start>
    1a84:	f002 fd3a 	bl	44fc <drv_pot_getValue>
    1a88:	60f8      	str	r0, [r7, #12]
    1a8a:	68fb      	ldr	r3, [r7, #12]
    1a8c:	2b31      	cmp	r3, #49	; 0x31
    1a8e:	d802      	bhi.n	1a96 <main_task+0x66>
    1a90:	f04f 0332 	mov.w	r3, #50	; 0x32
    1a94:	60fb      	str	r3, [r7, #12]
    1a96:	68f8      	ldr	r0, [r7, #12]
    1a98:	f7ff f878 	bl	b8c <drv_led_speed>
    1a9c:	e7f2      	b.n	1a84 <main_task+0x54>
    1a9e:	bf00      	nop
    1aa0:	00001aa9 	.word	0x00001aa9
    1aa4:	0000730c 	.word	0x0000730c

00001aa8 <button_interrupt>:
    1aa8:	b480      	push	{r7}
    1aaa:	af00      	add	r7, sp, #0
    1aac:	4b04      	ldr	r3, [pc, #16]	; (1ac0 <button_interrupt+0x18>)
    1aae:	4a04      	ldr	r2, [pc, #16]	; (1ac0 <button_interrupt+0x18>)
    1ab0:	6952      	ldr	r2, [r2, #20]
    1ab2:	f082 6280 	eor.w	r2, r2, #67108864	; 0x4000000
    1ab6:	615a      	str	r2, [r3, #20]
    1ab8:	46bd      	mov	sp, r7
    1aba:	bc80      	pop	{r7}
    1abc:	4770      	bx	lr
    1abe:	bf00      	nop
    1ac0:	2009c060 	.word	0x2009c060

00001ac4 <CoPostMail>:
    1ac4:	b580      	push	{r7, lr}
    1ac6:	b084      	sub	sp, #16
    1ac8:	af00      	add	r7, sp, #0
    1aca:	4603      	mov	r3, r0
    1acc:	6039      	str	r1, [r7, #0]
    1ace:	71fb      	strb	r3, [r7, #7]
    1ad0:	79fb      	ldrb	r3, [r7, #7]
    1ad2:	2b13      	cmp	r3, #19
    1ad4:	d902      	bls.n	1adc <CoPostMail+0x18>
    1ad6:	f04f 0301 	mov.w	r3, #1
    1ada:	e02c      	b.n	1b36 <CoPostMail+0x72>
    1adc:	79fb      	ldrb	r3, [r7, #7]
    1ade:	ea4f 1203 	mov.w	r2, r3, lsl #4
    1ae2:	4b17      	ldr	r3, [pc, #92]	; (1b40 <CoPostMail+0x7c>)
    1ae4:	18d3      	adds	r3, r2, r3
    1ae6:	60fb      	str	r3, [r7, #12]
    1ae8:	68fb      	ldr	r3, [r7, #12]
    1aea:	795b      	ldrb	r3, [r3, #5]
    1aec:	f003 030f 	and.w	r3, r3, #15
    1af0:	b2db      	uxtb	r3, r3
    1af2:	2b02      	cmp	r3, #2
    1af4:	d002      	beq.n	1afc <CoPostMail+0x38>
    1af6:	f04f 0301 	mov.w	r3, #1
    1afa:	e01c      	b.n	1b36 <CoPostMail+0x72>
    1afc:	68fb      	ldr	r3, [r7, #12]
    1afe:	88db      	ldrh	r3, [r3, #6]
    1b00:	2b00      	cmp	r3, #0
    1b02:	d116      	bne.n	1b32 <CoPostMail+0x6e>
    1b04:	4b0f      	ldr	r3, [pc, #60]	; (1b44 <CoPostMail+0x80>)
    1b06:	781b      	ldrb	r3, [r3, #0]
    1b08:	b2db      	uxtb	r3, r3
    1b0a:	f103 0301 	add.w	r3, r3, #1
    1b0e:	b2da      	uxtb	r2, r3
    1b10:	4b0c      	ldr	r3, [pc, #48]	; (1b44 <CoPostMail+0x80>)
    1b12:	701a      	strb	r2, [r3, #0]
    1b14:	68fb      	ldr	r3, [r7, #12]
    1b16:	683a      	ldr	r2, [r7, #0]
    1b18:	601a      	str	r2, [r3, #0]
    1b1a:	68fb      	ldr	r3, [r7, #12]
    1b1c:	f04f 0201 	mov.w	r2, #1
    1b20:	80da      	strh	r2, [r3, #6]
    1b22:	68f8      	ldr	r0, [r7, #12]
    1b24:	f000 fae8 	bl	20f8 <EventTaskToRdy>
    1b28:	f7fe fb6e 	bl	208 <OsSchedUnlock>
    1b2c:	f04f 0300 	mov.w	r3, #0
    1b30:	e001      	b.n	1b36 <CoPostMail+0x72>
    1b32:	f04f 0307 	mov.w	r3, #7
    1b36:	4618      	mov	r0, r3
    1b38:	f107 0710 	add.w	r7, r7, #16
    1b3c:	46bd      	mov	sp, r7
    1b3e:	bd80      	pop	{r7, pc}
    1b40:	10000850 	.word	0x10000850
    1b44:	10000235 	.word	0x10000235

00001b48 <drv_sd_load>:
    1b48:	b480      	push	{r7}
    1b4a:	af00      	add	r7, sp, #0
    1b4c:	46bd      	mov	sp, r7
    1b4e:	bc80      	pop	{r7}
    1b50:	4770      	bx	lr
    1b52:	bf00      	nop

00001b54 <Default_Reset_Handler>:
    1b54:	b580      	push	{r7, lr}
    1b56:	b082      	sub	sp, #8
    1b58:	af00      	add	r7, sp, #0
    1b5a:	4b13      	ldr	r3, [pc, #76]	; (1ba8 <zero_loop+0x1c>)
    1b5c:	607b      	str	r3, [r7, #4]
    1b5e:	4b13      	ldr	r3, [pc, #76]	; (1bac <zero_loop+0x20>)
    1b60:	603b      	str	r3, [r7, #0]
    1b62:	e00b      	b.n	1b7c <Default_Reset_Handler+0x28>
    1b64:	687b      	ldr	r3, [r7, #4]
    1b66:	681a      	ldr	r2, [r3, #0]
    1b68:	683b      	ldr	r3, [r7, #0]
    1b6a:	601a      	str	r2, [r3, #0]
    1b6c:	683b      	ldr	r3, [r7, #0]
    1b6e:	f103 0304 	add.w	r3, r3, #4
    1b72:	603b      	str	r3, [r7, #0]
    1b74:	687b      	ldr	r3, [r7, #4]
    1b76:	f103 0304 	add.w	r3, r3, #4
    1b7a:	607b      	str	r3, [r7, #4]
    1b7c:	683a      	ldr	r2, [r7, #0]
    1b7e:	4b0c      	ldr	r3, [pc, #48]	; (1bb0 <zero_loop+0x24>)
    1b80:	429a      	cmp	r2, r3
    1b82:	d3ef      	bcc.n	1b64 <Default_Reset_Handler+0x10>
    1b84:	480b      	ldr	r0, [pc, #44]	; (1bb4 <zero_loop+0x28>)
    1b86:	490c      	ldr	r1, [pc, #48]	; (1bb8 <zero_loop+0x2c>)
    1b88:	f04f 0200 	mov.w	r2, #0

00001b8c <zero_loop>:
    1b8c:	4288      	cmp	r0, r1
    1b8e:	bfb8      	it	lt
    1b90:	f840 2b04 	strlt.w	r2, [r0], #4
    1b94:	dbfa      	blt.n	1b8c <zero_loop>
    1b96:	f7fe fe93 	bl	8c0 <SystemInit>
    1b9a:	f7ff ff0f 	bl	19bc <main>
    1b9e:	f107 0708 	add.w	r7, r7, #8
    1ba2:	46bd      	mov	sp, r7
    1ba4:	bd80      	pop	{r7, pc}
    1ba6:	bf00      	nop
    1ba8:	0000ab84 	.word	0x0000ab84
    1bac:	10000000 	.word	0x10000000
    1bb0:	10000160 	.word	0x10000160
    1bb4:	10000160 	.word	0x10000160
    1bb8:	100012b0 	.word	0x100012b0

00001bbc <BOD_IRQHandler>:
    1bbc:	b480      	push	{r7}
    1bbe:	af00      	add	r7, sp, #0
    1bc0:	be00      	bkpt	0x0000
    1bc2:	e7fe      	b.n	1bc2 <BOD_IRQHandler+0x6>

00001bc4 <check_failed>:
    1bc4:	b480      	push	{r7}
    1bc6:	b083      	sub	sp, #12
    1bc8:	af00      	add	r7, sp, #0
    1bca:	6078      	str	r0, [r7, #4]
    1bcc:	6039      	str	r1, [r7, #0]
    1bce:	e7fe      	b.n	1bce <check_failed+0xa>

00001bd0 <InsertDelayList>:
    1bd0:	b480      	push	{r7}
    1bd2:	b085      	sub	sp, #20
    1bd4:	af00      	add	r7, sp, #0
    1bd6:	6078      	str	r0, [r7, #4]
    1bd8:	6039      	str	r1, [r7, #0]
    1bda:	683b      	ldr	r3, [r7, #0]
    1bdc:	2b00      	cmp	r3, #0
    1bde:	d067      	beq.n	1cb0 <InsertDelayList+0xe0>
    1be0:	4b36      	ldr	r3, [pc, #216]	; (1cbc <InsertDelayList+0xec>)
    1be2:	681b      	ldr	r3, [r3, #0]
    1be4:	2b00      	cmp	r3, #0
    1be6:	d106      	bne.n	1bf6 <InsertDelayList+0x26>
    1be8:	687b      	ldr	r3, [r7, #4]
    1bea:	683a      	ldr	r2, [r7, #0]
    1bec:	621a      	str	r2, [r3, #32]
    1bee:	4b33      	ldr	r3, [pc, #204]	; (1cbc <InsertDelayList+0xec>)
    1bf0:	687a      	ldr	r2, [r7, #4]
    1bf2:	601a      	str	r2, [r3, #0]
    1bf4:	e053      	b.n	1c9e <InsertDelayList+0xce>
    1bf6:	4b31      	ldr	r3, [pc, #196]	; (1cbc <InsertDelayList+0xec>)
    1bf8:	681b      	ldr	r3, [r3, #0]
    1bfa:	60bb      	str	r3, [r7, #8]
    1bfc:	683b      	ldr	r3, [r7, #0]
    1bfe:	60fb      	str	r3, [r7, #12]
    1c00:	e04a      	b.n	1c98 <InsertDelayList+0xc8>
    1c02:	68fa      	ldr	r2, [r7, #12]
    1c04:	68bb      	ldr	r3, [r7, #8]
    1c06:	6a1b      	ldr	r3, [r3, #32]
    1c08:	1ad3      	subs	r3, r2, r3
    1c0a:	60fb      	str	r3, [r7, #12]
    1c0c:	68fb      	ldr	r3, [r7, #12]
    1c0e:	2b00      	cmp	r3, #0
    1c10:	da2e      	bge.n	1c70 <InsertDelayList+0xa0>
    1c12:	68bb      	ldr	r3, [r7, #8]
    1c14:	6a9b      	ldr	r3, [r3, #40]	; 0x28
    1c16:	2b00      	cmp	r3, #0
    1c18:	d00e      	beq.n	1c38 <InsertDelayList+0x68>
    1c1a:	68bb      	ldr	r3, [r7, #8]
    1c1c:	6a9b      	ldr	r3, [r3, #40]	; 0x28
    1c1e:	687a      	ldr	r2, [r7, #4]
    1c20:	625a      	str	r2, [r3, #36]	; 0x24
    1c22:	68bb      	ldr	r3, [r7, #8]
    1c24:	6a9a      	ldr	r2, [r3, #40]	; 0x28
    1c26:	687b      	ldr	r3, [r7, #4]
    1c28:	629a      	str	r2, [r3, #40]	; 0x28
    1c2a:	687b      	ldr	r3, [r7, #4]
    1c2c:	68ba      	ldr	r2, [r7, #8]
    1c2e:	625a      	str	r2, [r3, #36]	; 0x24
    1c30:	68bb      	ldr	r3, [r7, #8]
    1c32:	687a      	ldr	r2, [r7, #4]
    1c34:	629a      	str	r2, [r3, #40]	; 0x28
    1c36:	e00a      	b.n	1c4e <InsertDelayList+0x7e>
    1c38:	4b20      	ldr	r3, [pc, #128]	; (1cbc <InsertDelayList+0xec>)
    1c3a:	681a      	ldr	r2, [r3, #0]
    1c3c:	687b      	ldr	r3, [r7, #4]
    1c3e:	625a      	str	r2, [r3, #36]	; 0x24
    1c40:	4b1e      	ldr	r3, [pc, #120]	; (1cbc <InsertDelayList+0xec>)
    1c42:	681b      	ldr	r3, [r3, #0]
    1c44:	687a      	ldr	r2, [r7, #4]
    1c46:	629a      	str	r2, [r3, #40]	; 0x28
    1c48:	4b1c      	ldr	r3, [pc, #112]	; (1cbc <InsertDelayList+0xec>)
    1c4a:	687a      	ldr	r2, [r7, #4]
    1c4c:	601a      	str	r2, [r3, #0]
    1c4e:	687b      	ldr	r3, [r7, #4]
    1c50:	6a5b      	ldr	r3, [r3, #36]	; 0x24
    1c52:	6a1a      	ldr	r2, [r3, #32]
    1c54:	68fb      	ldr	r3, [r7, #12]
    1c56:	18d2      	adds	r2, r2, r3
    1c58:	687b      	ldr	r3, [r7, #4]
    1c5a:	621a      	str	r2, [r3, #32]
    1c5c:	687b      	ldr	r3, [r7, #4]
    1c5e:	6a5b      	ldr	r3, [r3, #36]	; 0x24
    1c60:	687a      	ldr	r2, [r7, #4]
    1c62:	6a52      	ldr	r2, [r2, #36]	; 0x24
    1c64:	6a11      	ldr	r1, [r2, #32]
    1c66:	687a      	ldr	r2, [r7, #4]
    1c68:	6a12      	ldr	r2, [r2, #32]
    1c6a:	1a8a      	subs	r2, r1, r2
    1c6c:	621a      	str	r2, [r3, #32]
    1c6e:	e016      	b.n	1c9e <InsertDelayList+0xce>
    1c70:	68fb      	ldr	r3, [r7, #12]
    1c72:	2b00      	cmp	r3, #0
    1c74:	db0d      	blt.n	1c92 <InsertDelayList+0xc2>
    1c76:	68bb      	ldr	r3, [r7, #8]
    1c78:	6a5b      	ldr	r3, [r3, #36]	; 0x24
    1c7a:	2b00      	cmp	r3, #0
    1c7c:	d109      	bne.n	1c92 <InsertDelayList+0xc2>
    1c7e:	687b      	ldr	r3, [r7, #4]
    1c80:	68ba      	ldr	r2, [r7, #8]
    1c82:	629a      	str	r2, [r3, #40]	; 0x28
    1c84:	68bb      	ldr	r3, [r7, #8]
    1c86:	687a      	ldr	r2, [r7, #4]
    1c88:	625a      	str	r2, [r3, #36]	; 0x24
    1c8a:	68fa      	ldr	r2, [r7, #12]
    1c8c:	687b      	ldr	r3, [r7, #4]
    1c8e:	621a      	str	r2, [r3, #32]
    1c90:	e005      	b.n	1c9e <InsertDelayList+0xce>
    1c92:	68bb      	ldr	r3, [r7, #8]
    1c94:	6a5b      	ldr	r3, [r3, #36]	; 0x24
    1c96:	60bb      	str	r3, [r7, #8]
    1c98:	68bb      	ldr	r3, [r7, #8]
    1c9a:	2b00      	cmp	r3, #0
    1c9c:	d1b1      	bne.n	1c02 <InsertDelayList+0x32>
    1c9e:	687b      	ldr	r3, [r7, #4]
    1ca0:	f04f 0202 	mov.w	r2, #2
    1ca4:	715a      	strb	r2, [r3, #5]
    1ca6:	4b06      	ldr	r3, [pc, #24]	; (1cc0 <InsertDelayList+0xf0>)
    1ca8:	f04f 0201 	mov.w	r2, #1
    1cac:	701a      	strb	r2, [r3, #0]
    1cae:	e000      	b.n	1cb2 <InsertDelayList+0xe2>
    1cb0:	bf00      	nop
    1cb2:	f107 0714 	add.w	r7, r7, #20
    1cb6:	46bd      	mov	sp, r7
    1cb8:	bc80      	pop	{r7}
    1cba:	4770      	bx	lr
    1cbc:	1000084c 	.word	0x1000084c
    1cc0:	10000236 	.word	0x10000236

00001cc4 <RemoveDelayList>:
    1cc4:	b480      	push	{r7}
    1cc6:	b083      	sub	sp, #12
    1cc8:	af00      	add	r7, sp, #0
    1cca:	6078      	str	r0, [r7, #4]
    1ccc:	687b      	ldr	r3, [r7, #4]
    1cce:	6a9b      	ldr	r3, [r3, #40]	; 0x28
    1cd0:	2b00      	cmp	r3, #0
    1cd2:	d108      	bne.n	1ce6 <RemoveDelayList+0x22>
    1cd4:	687b      	ldr	r3, [r7, #4]
    1cd6:	6a5b      	ldr	r3, [r3, #36]	; 0x24
    1cd8:	2b00      	cmp	r3, #0
    1cda:	d104      	bne.n	1ce6 <RemoveDelayList+0x22>
    1cdc:	4b28      	ldr	r3, [pc, #160]	; (1d80 <RemoveDelayList+0xbc>)
    1cde:	f04f 0200 	mov.w	r2, #0
    1ce2:	601a      	str	r2, [r3, #0]
    1ce4:	e043      	b.n	1d6e <RemoveDelayList+0xaa>
    1ce6:	687b      	ldr	r3, [r7, #4]
    1ce8:	6a9b      	ldr	r3, [r3, #40]	; 0x28
    1cea:	2b00      	cmp	r3, #0
    1cec:	d116      	bne.n	1d1c <RemoveDelayList+0x58>
    1cee:	687b      	ldr	r3, [r7, #4]
    1cf0:	6a5a      	ldr	r2, [r3, #36]	; 0x24
    1cf2:	4b23      	ldr	r3, [pc, #140]	; (1d80 <RemoveDelayList+0xbc>)
    1cf4:	601a      	str	r2, [r3, #0]
    1cf6:	687b      	ldr	r3, [r7, #4]
    1cf8:	6a5b      	ldr	r3, [r3, #36]	; 0x24
    1cfa:	687a      	ldr	r2, [r7, #4]
    1cfc:	6a52      	ldr	r2, [r2, #36]	; 0x24
    1cfe:	6a11      	ldr	r1, [r2, #32]
    1d00:	687a      	ldr	r2, [r7, #4]
    1d02:	6a12      	ldr	r2, [r2, #32]
    1d04:	188a      	adds	r2, r1, r2
    1d06:	621a      	str	r2, [r3, #32]
    1d08:	687b      	ldr	r3, [r7, #4]
    1d0a:	6a5b      	ldr	r3, [r3, #36]	; 0x24
    1d0c:	f04f 0200 	mov.w	r2, #0
    1d10:	629a      	str	r2, [r3, #40]	; 0x28
    1d12:	687b      	ldr	r3, [r7, #4]
    1d14:	f04f 0200 	mov.w	r2, #0
    1d18:	625a      	str	r2, [r3, #36]	; 0x24
    1d1a:	e028      	b.n	1d6e <RemoveDelayList+0xaa>
    1d1c:	687b      	ldr	r3, [r7, #4]
    1d1e:	6a5b      	ldr	r3, [r3, #36]	; 0x24
    1d20:	2b00      	cmp	r3, #0
    1d22:	d109      	bne.n	1d38 <RemoveDelayList+0x74>
    1d24:	687b      	ldr	r3, [r7, #4]
    1d26:	6a9b      	ldr	r3, [r3, #40]	; 0x28
    1d28:	f04f 0200 	mov.w	r2, #0
    1d2c:	625a      	str	r2, [r3, #36]	; 0x24
    1d2e:	687b      	ldr	r3, [r7, #4]
    1d30:	f04f 0200 	mov.w	r2, #0
    1d34:	629a      	str	r2, [r3, #40]	; 0x28
    1d36:	e01a      	b.n	1d6e <RemoveDelayList+0xaa>
    1d38:	687b      	ldr	r3, [r7, #4]
    1d3a:	6a9b      	ldr	r3, [r3, #40]	; 0x28
    1d3c:	687a      	ldr	r2, [r7, #4]
    1d3e:	6a52      	ldr	r2, [r2, #36]	; 0x24
    1d40:	625a      	str	r2, [r3, #36]	; 0x24
    1d42:	687b      	ldr	r3, [r7, #4]
    1d44:	6a5b      	ldr	r3, [r3, #36]	; 0x24
    1d46:	687a      	ldr	r2, [r7, #4]
    1d48:	6a92      	ldr	r2, [r2, #40]	; 0x28
    1d4a:	629a      	str	r2, [r3, #40]	; 0x28
    1d4c:	687b      	ldr	r3, [r7, #4]
    1d4e:	6a5b      	ldr	r3, [r3, #36]	; 0x24
    1d50:	687a      	ldr	r2, [r7, #4]
    1d52:	6a52      	ldr	r2, [r2, #36]	; 0x24
    1d54:	6a11      	ldr	r1, [r2, #32]
    1d56:	687a      	ldr	r2, [r7, #4]
    1d58:	6a12      	ldr	r2, [r2, #32]
    1d5a:	188a      	adds	r2, r1, r2
    1d5c:	621a      	str	r2, [r3, #32]
    1d5e:	687b      	ldr	r3, [r7, #4]
    1d60:	f04f 0200 	mov.w	r2, #0
    1d64:	625a      	str	r2, [r3, #36]	; 0x24
    1d66:	687b      	ldr	r3, [r7, #4]
    1d68:	f04f 0200 	mov.w	r2, #0
    1d6c:	629a      	str	r2, [r3, #40]	; 0x28
    1d6e:	687b      	ldr	r3, [r7, #4]
    1d70:	f04f 32ff 	mov.w	r2, #4294967295
    1d74:	621a      	str	r2, [r3, #32]
    1d76:	f107 070c 	add.w	r7, r7, #12
    1d7a:	46bd      	mov	sp, r7
    1d7c:	bc80      	pop	{r7}
    1d7e:	4770      	bx	lr
    1d80:	1000084c 	.word	0x1000084c

00001d84 <CoTickDelay>:
    1d84:	b580      	push	{r7, lr}
    1d86:	b082      	sub	sp, #8
    1d88:	af00      	add	r7, sp, #0
    1d8a:	6078      	str	r0, [r7, #4]
    1d8c:	4b19      	ldr	r3, [pc, #100]	; (1df4 <CoTickDelay+0x70>)
    1d8e:	781b      	ldrb	r3, [r3, #0]
    1d90:	b2db      	uxtb	r3, r3
    1d92:	2b00      	cmp	r3, #0
    1d94:	d002      	beq.n	1d9c <CoTickDelay+0x18>
    1d96:	f04f 0303 	mov.w	r3, #3
    1d9a:	e026      	b.n	1dea <CoTickDelay+0x66>
    1d9c:	687b      	ldr	r3, [r7, #4]
    1d9e:	f1b3 3fff 	cmp.w	r3, #4294967295
    1da2:	d102      	bne.n	1daa <CoTickDelay+0x26>
    1da4:	f04f 0302 	mov.w	r3, #2
    1da8:	e01f      	b.n	1dea <CoTickDelay+0x66>
    1daa:	687b      	ldr	r3, [r7, #4]
    1dac:	2b00      	cmp	r3, #0
    1dae:	d102      	bne.n	1db6 <CoTickDelay+0x32>
    1db0:	f04f 0300 	mov.w	r3, #0
    1db4:	e019      	b.n	1dea <CoTickDelay+0x66>
    1db6:	4b10      	ldr	r3, [pc, #64]	; (1df8 <CoTickDelay+0x74>)
    1db8:	781b      	ldrb	r3, [r3, #0]
    1dba:	b2db      	uxtb	r3, r3
    1dbc:	2b00      	cmp	r3, #0
    1dbe:	d002      	beq.n	1dc6 <CoTickDelay+0x42>
    1dc0:	f04f 0315 	mov.w	r3, #21
    1dc4:	e011      	b.n	1dea <CoTickDelay+0x66>
    1dc6:	4b0c      	ldr	r3, [pc, #48]	; (1df8 <CoTickDelay+0x74>)
    1dc8:	781b      	ldrb	r3, [r3, #0]
    1dca:	b2db      	uxtb	r3, r3
    1dcc:	f103 0301 	add.w	r3, r3, #1
    1dd0:	b2da      	uxtb	r2, r3
    1dd2:	4b09      	ldr	r3, [pc, #36]	; (1df8 <CoTickDelay+0x74>)
    1dd4:	701a      	strb	r2, [r3, #0]
    1dd6:	4b09      	ldr	r3, [pc, #36]	; (1dfc <CoTickDelay+0x78>)
    1dd8:	681b      	ldr	r3, [r3, #0]
    1dda:	4618      	mov	r0, r3
    1ddc:	6879      	ldr	r1, [r7, #4]
    1dde:	f7ff fef7 	bl	1bd0 <InsertDelayList>
    1de2:	f7fe fa11 	bl	208 <OsSchedUnlock>
    1de6:	f04f 0300 	mov.w	r3, #0
    1dea:	4618      	mov	r0, r3
    1dec:	f107 0708 	add.w	r7, r7, #8
    1df0:	46bd      	mov	sp, r7
    1df2:	bd80      	pop	{r7, pc}
    1df4:	10000234 	.word	0x10000234
    1df8:	10000235 	.word	0x10000235
    1dfc:	10000608 	.word	0x10000608

00001e00 <CoTimeDelay>:
    1e00:	b580      	push	{r7, lr}
    1e02:	b084      	sub	sp, #16
    1e04:	af00      	add	r7, sp, #0
    1e06:	71f8      	strb	r0, [r7, #7]
    1e08:	71b9      	strb	r1, [r7, #6]
    1e0a:	717a      	strb	r2, [r7, #5]
    1e0c:	807b      	strh	r3, [r7, #2]
    1e0e:	4b26      	ldr	r3, [pc, #152]	; (1ea8 <CoTimeDelay+0xa8>)
    1e10:	781b      	ldrb	r3, [r3, #0]
    1e12:	b2db      	uxtb	r3, r3
    1e14:	2b00      	cmp	r3, #0
    1e16:	d002      	beq.n	1e1e <CoTimeDelay+0x1e>
    1e18:	f04f 0303 	mov.w	r3, #3
    1e1c:	e03e      	b.n	1e9c <CoTimeDelay+0x9c>
    1e1e:	79bb      	ldrb	r3, [r7, #6]
    1e20:	2b3b      	cmp	r3, #59	; 0x3b
    1e22:	d807      	bhi.n	1e34 <CoTimeDelay+0x34>
    1e24:	797b      	ldrb	r3, [r7, #5]
    1e26:	2b3b      	cmp	r3, #59	; 0x3b
    1e28:	d804      	bhi.n	1e34 <CoTimeDelay+0x34>
    1e2a:	887a      	ldrh	r2, [r7, #2]
    1e2c:	f240 33e7 	movw	r3, #999	; 0x3e7
    1e30:	429a      	cmp	r2, r3
    1e32:	d902      	bls.n	1e3a <CoTimeDelay+0x3a>
    1e34:	f04f 0302 	mov.w	r3, #2
    1e38:	e030      	b.n	1e9c <CoTimeDelay+0x9c>
    1e3a:	4b1c      	ldr	r3, [pc, #112]	; (1eac <CoTimeDelay+0xac>)
    1e3c:	781b      	ldrb	r3, [r3, #0]
    1e3e:	b2db      	uxtb	r3, r3
    1e40:	2b00      	cmp	r3, #0
    1e42:	d002      	beq.n	1e4a <CoTimeDelay+0x4a>
    1e44:	f04f 0315 	mov.w	r3, #21
    1e48:	e028      	b.n	1e9c <CoTimeDelay+0x9c>
    1e4a:	79fb      	ldrb	r3, [r7, #7]
    1e4c:	f44f 6261 	mov.w	r2, #3600	; 0xe10
    1e50:	fb02 f103 	mul.w	r1, r2, r3
    1e54:	79ba      	ldrb	r2, [r7, #6]
    1e56:	4613      	mov	r3, r2
    1e58:	ea4f 1303 	mov.w	r3, r3, lsl #4
    1e5c:	1a9b      	subs	r3, r3, r2
    1e5e:	ea4f 0383 	mov.w	r3, r3, lsl #2
    1e62:	18ca      	adds	r2, r1, r3
    1e64:	797b      	ldrb	r3, [r7, #5]
    1e66:	18d3      	adds	r3, r2, r3
    1e68:	f44f 727a 	mov.w	r2, #1000	; 0x3e8
    1e6c:	fb02 f203 	mul.w	r2, r2, r3
    1e70:	887b      	ldrh	r3, [r7, #2]
    1e72:	f44f 717a 	mov.w	r1, #1000	; 0x3e8
    1e76:	fb01 f303 	mul.w	r3, r1, r3
    1e7a:	f503 73fa 	add.w	r3, r3, #500	; 0x1f4
    1e7e:	490c      	ldr	r1, [pc, #48]	; (1eb0 <CoTimeDelay+0xb0>)
    1e80:	fb81 0103 	smull	r0, r1, r1, r3
    1e84:	ea4f 11a1 	mov.w	r1, r1, asr #6
    1e88:	ea4f 73e3 	mov.w	r3, r3, asr #31
    1e8c:	1acb      	subs	r3, r1, r3
    1e8e:	18d3      	adds	r3, r2, r3
    1e90:	60fb      	str	r3, [r7, #12]
    1e92:	68f8      	ldr	r0, [r7, #12]
    1e94:	f7ff ff76 	bl	1d84 <CoTickDelay>
    1e98:	f04f 0300 	mov.w	r3, #0
    1e9c:	4618      	mov	r0, r3
    1e9e:	f107 0710 	add.w	r7, r7, #16
    1ea2:	46bd      	mov	sp, r7
    1ea4:	bd80      	pop	{r7, pc}
    1ea6:	bf00      	nop
    1ea8:	10000234 	.word	0x10000234
    1eac:	10000235 	.word	0x10000235
    1eb0:	10624dd3 	.word	0x10624dd3

00001eb4 <TimeDispose>:
    1eb4:	b580      	push	{r7, lr}
    1eb6:	b082      	sub	sp, #8
    1eb8:	af00      	add	r7, sp, #0
    1eba:	4b1c      	ldr	r3, [pc, #112]	; (1f2c <TimeDispose+0x78>)
    1ebc:	681b      	ldr	r3, [r3, #0]
    1ebe:	607b      	str	r3, [r7, #4]
    1ec0:	e028      	b.n	1f14 <TimeDispose+0x60>
    1ec2:	687b      	ldr	r3, [r7, #4]
    1ec4:	7a1b      	ldrb	r3, [r3, #8]
    1ec6:	2bff      	cmp	r3, #255	; 0xff
    1ec8:	d002      	beq.n	1ed0 <TimeDispose+0x1c>
    1eca:	6878      	ldr	r0, [r7, #4]
    1ecc:	f000 f9a8 	bl	2220 <RemoveEventWaittingList>
    1ed0:	687b      	ldr	r3, [r7, #4]
    1ed2:	69db      	ldr	r3, [r3, #28]
    1ed4:	2b00      	cmp	r3, #0
    1ed6:	d004      	beq.n	1ee2 <TimeDispose+0x2e>
    1ed8:	687b      	ldr	r3, [r7, #4]
    1eda:	69db      	ldr	r3, [r3, #28]
    1edc:	4618      	mov	r0, r3
    1ede:	f001 f84f 	bl	2f80 <RemoveLinkNode>
    1ee2:	687b      	ldr	r3, [r7, #4]
    1ee4:	f04f 32ff 	mov.w	r2, #4294967295
    1ee8:	621a      	str	r2, [r3, #32]
    1eea:	687b      	ldr	r3, [r7, #4]
    1eec:	6a5a      	ldr	r2, [r3, #36]	; 0x24
    1eee:	4b0f      	ldr	r3, [pc, #60]	; (1f2c <TimeDispose+0x78>)
    1ef0:	601a      	str	r2, [r3, #0]
    1ef2:	687b      	ldr	r3, [r7, #4]
    1ef4:	f04f 0200 	mov.w	r2, #0
    1ef8:	625a      	str	r2, [r3, #36]	; 0x24
    1efa:	6878      	ldr	r0, [r7, #4]
    1efc:	f7fe ff2e 	bl	d5c <InsertToTCBRdyList>
    1f00:	4b0a      	ldr	r3, [pc, #40]	; (1f2c <TimeDispose+0x78>)
    1f02:	681b      	ldr	r3, [r3, #0]
    1f04:	607b      	str	r3, [r7, #4]
    1f06:	687b      	ldr	r3, [r7, #4]
    1f08:	2b00      	cmp	r3, #0
    1f0a:	d003      	beq.n	1f14 <TimeDispose+0x60>
    1f0c:	687b      	ldr	r3, [r7, #4]
    1f0e:	f04f 0200 	mov.w	r2, #0
    1f12:	629a      	str	r2, [r3, #40]	; 0x28
    1f14:	687b      	ldr	r3, [r7, #4]
    1f16:	2b00      	cmp	r3, #0
    1f18:	d003      	beq.n	1f22 <TimeDispose+0x6e>
    1f1a:	687b      	ldr	r3, [r7, #4]
    1f1c:	6a1b      	ldr	r3, [r3, #32]
    1f1e:	2b00      	cmp	r3, #0
    1f20:	d0cf      	beq.n	1ec2 <TimeDispose+0xe>
    1f22:	f107 0708 	add.w	r7, r7, #8
    1f26:	46bd      	mov	sp, r7
    1f28:	bd80      	pop	{r7, pc}
    1f2a:	bf00      	nop
    1f2c:	1000084c 	.word	0x1000084c

00001f30 <isr_TimeDispose>:
    1f30:	b580      	push	{r7, lr}
    1f32:	af00      	add	r7, sp, #0
    1f34:	4b08      	ldr	r3, [pc, #32]	; (1f58 <isr_TimeDispose+0x28>)
    1f36:	781b      	ldrb	r3, [r3, #0]
    1f38:	b2db      	uxtb	r3, r3
    1f3a:	2b01      	cmp	r3, #1
    1f3c:	d908      	bls.n	1f50 <isr_TimeDispose+0x20>
    1f3e:	4b07      	ldr	r3, [pc, #28]	; (1f5c <isr_TimeDispose+0x2c>)
    1f40:	f04f 0201 	mov.w	r2, #1
    1f44:	701a      	strb	r2, [r3, #0]
    1f46:	4b06      	ldr	r3, [pc, #24]	; (1f60 <isr_TimeDispose+0x30>)
    1f48:	f04f 0201 	mov.w	r2, #1
    1f4c:	701a      	strb	r2, [r3, #0]
    1f4e:	e001      	b.n	1f54 <isr_TimeDispose+0x24>
    1f50:	f7ff ffb0 	bl	1eb4 <TimeDispose>
    1f54:	bd80      	pop	{r7, pc}
    1f56:	bf00      	nop
    1f58:	10000235 	.word	0x10000235
    1f5c:	10000644 	.word	0x10000644
    1f60:	10000645 	.word	0x10000645

00001f64 <CreateEventList>:
    1f64:	b480      	push	{r7}
    1f66:	b085      	sub	sp, #20
    1f68:	af00      	add	r7, sp, #0
    1f6a:	f04f 0300 	mov.w	r3, #0
    1f6e:	73fb      	strb	r3, [r7, #15]
    1f70:	4b1b      	ldr	r3, [pc, #108]	; (1fe0 <CreateEventList+0x7c>)
    1f72:	60bb      	str	r3, [r7, #8]
    1f74:	4b1b      	ldr	r3, [pc, #108]	; (1fe4 <CreateEventList+0x80>)
    1f76:	607b      	str	r3, [r7, #4]
    1f78:	e018      	b.n	1fac <CreateEventList+0x48>
    1f7a:	68bb      	ldr	r3, [r7, #8]
    1f7c:	687a      	ldr	r2, [r7, #4]
    1f7e:	601a      	str	r2, [r3, #0]
    1f80:	68bb      	ldr	r3, [r7, #8]
    1f82:	7bfa      	ldrb	r2, [r7, #15]
    1f84:	711a      	strb	r2, [r3, #4]
    1f86:	68ba      	ldr	r2, [r7, #8]
    1f88:	7953      	ldrb	r3, [r2, #5]
    1f8a:	f04f 0104 	mov.w	r1, #4
    1f8e:	f361 0303 	bfi	r3, r1, #0, #4
    1f92:	7153      	strb	r3, [r2, #5]
    1f94:	68bb      	ldr	r3, [r7, #8]
    1f96:	f103 0310 	add.w	r3, r3, #16
    1f9a:	60bb      	str	r3, [r7, #8]
    1f9c:	687b      	ldr	r3, [r7, #4]
    1f9e:	f103 0310 	add.w	r3, r3, #16
    1fa2:	607b      	str	r3, [r7, #4]
    1fa4:	7bfb      	ldrb	r3, [r7, #15]
    1fa6:	f103 0301 	add.w	r3, r3, #1
    1faa:	73fb      	strb	r3, [r7, #15]
    1fac:	7bfb      	ldrb	r3, [r7, #15]
    1fae:	2b12      	cmp	r3, #18
    1fb0:	d9e3      	bls.n	1f7a <CreateEventList+0x16>
    1fb2:	68ba      	ldr	r2, [r7, #8]
    1fb4:	7953      	ldrb	r3, [r2, #5]
    1fb6:	f04f 0104 	mov.w	r1, #4
    1fba:	f361 0303 	bfi	r3, r1, #0, #4
    1fbe:	7153      	strb	r3, [r2, #5]
    1fc0:	68bb      	ldr	r3, [r7, #8]
    1fc2:	f04f 0200 	mov.w	r2, #0
    1fc6:	601a      	str	r2, [r3, #0]
    1fc8:	68bb      	ldr	r3, [r7, #8]
    1fca:	7bfa      	ldrb	r2, [r7, #15]
    1fcc:	711a      	strb	r2, [r3, #4]
    1fce:	4b06      	ldr	r3, [pc, #24]	; (1fe8 <CreateEventList+0x84>)
    1fd0:	4a03      	ldr	r2, [pc, #12]	; (1fe0 <CreateEventList+0x7c>)
    1fd2:	601a      	str	r2, [r3, #0]
    1fd4:	f107 0714 	add.w	r7, r7, #20
    1fd8:	46bd      	mov	sp, r7
    1fda:	bc80      	pop	{r7}
    1fdc:	4770      	bx	lr
    1fde:	bf00      	nop
    1fe0:	10000850 	.word	0x10000850
    1fe4:	10000860 	.word	0x10000860
    1fe8:	10000990 	.word	0x10000990

00001fec <EventTaskToWait>:
    1fec:	b580      	push	{r7, lr}
    1fee:	b084      	sub	sp, #16
    1ff0:	af00      	add	r7, sp, #0
    1ff2:	6078      	str	r0, [r7, #4]
    1ff4:	6039      	str	r1, [r7, #0]
    1ff6:	4b3e      	ldr	r3, [pc, #248]	; (20f0 <EventTaskToWait+0x104>)
    1ff8:	781b      	ldrb	r3, [r3, #0]
    1ffa:	b2db      	uxtb	r3, r3
    1ffc:	f103 0301 	add.w	r3, r3, #1
    2000:	b2da      	uxtb	r2, r3
    2002:	4b3b      	ldr	r3, [pc, #236]	; (20f0 <EventTaskToWait+0x104>)
    2004:	701a      	strb	r2, [r3, #0]
    2006:	687b      	ldr	r3, [r7, #4]
    2008:	68db      	ldr	r3, [r3, #12]
    200a:	60fb      	str	r3, [r7, #12]
    200c:	687b      	ldr	r3, [r7, #4]
    200e:	791a      	ldrb	r2, [r3, #4]
    2010:	683b      	ldr	r3, [r7, #0]
    2012:	721a      	strb	r2, [r3, #8]
    2014:	687b      	ldr	r3, [r7, #4]
    2016:	795b      	ldrb	r3, [r3, #5]
    2018:	f023 030f 	bic.w	r3, r3, #15
    201c:	b2db      	uxtb	r3, r3
    201e:	2b10      	cmp	r3, #16
    2020:	d116      	bne.n	2050 <EventTaskToWait+0x64>
    2022:	68fb      	ldr	r3, [r7, #12]
    2024:	2b00      	cmp	r3, #0
    2026:	d107      	bne.n	2038 <EventTaskToWait+0x4c>
    2028:	687b      	ldr	r3, [r7, #4]
    202a:	683a      	ldr	r2, [r7, #0]
    202c:	60da      	str	r2, [r3, #12]
    202e:	e050      	b.n	20d2 <EventTaskToWait+0xe6>
    2030:	68fb      	ldr	r3, [r7, #12]
    2032:	695b      	ldr	r3, [r3, #20]
    2034:	60fb      	str	r3, [r7, #12]
    2036:	e000      	b.n	203a <EventTaskToWait+0x4e>
    2038:	bf00      	nop
    203a:	68fb      	ldr	r3, [r7, #12]
    203c:	695b      	ldr	r3, [r3, #20]
    203e:	2b00      	cmp	r3, #0
    2040:	d1f6      	bne.n	2030 <EventTaskToWait+0x44>
    2042:	68fb      	ldr	r3, [r7, #12]
    2044:	683a      	ldr	r2, [r7, #0]
    2046:	615a      	str	r2, [r3, #20]
    2048:	683b      	ldr	r3, [r7, #0]
    204a:	68fa      	ldr	r2, [r7, #12]
    204c:	619a      	str	r2, [r3, #24]
    204e:	e040      	b.n	20d2 <EventTaskToWait+0xe6>
    2050:	687b      	ldr	r3, [r7, #4]
    2052:	795b      	ldrb	r3, [r3, #5]
    2054:	f023 030f 	bic.w	r3, r3, #15
    2058:	b2db      	uxtb	r3, r3
    205a:	2b20      	cmp	r3, #32
    205c:	d139      	bne.n	20d2 <EventTaskToWait+0xe6>
    205e:	68fb      	ldr	r3, [r7, #12]
    2060:	2b00      	cmp	r3, #0
    2062:	d103      	bne.n	206c <EventTaskToWait+0x80>
    2064:	687b      	ldr	r3, [r7, #4]
    2066:	683a      	ldr	r2, [r7, #0]
    2068:	60da      	str	r2, [r3, #12]
    206a:	e032      	b.n	20d2 <EventTaskToWait+0xe6>
    206c:	68fb      	ldr	r3, [r7, #12]
    206e:	791a      	ldrb	r2, [r3, #4]
    2070:	683b      	ldr	r3, [r7, #0]
    2072:	791b      	ldrb	r3, [r3, #4]
    2074:	429a      	cmp	r2, r3
    2076:	d909      	bls.n	208c <EventTaskToWait+0xa0>
    2078:	687b      	ldr	r3, [r7, #4]
    207a:	683a      	ldr	r2, [r7, #0]
    207c:	60da      	str	r2, [r3, #12]
    207e:	683b      	ldr	r3, [r7, #0]
    2080:	68fa      	ldr	r2, [r7, #12]
    2082:	615a      	str	r2, [r3, #20]
    2084:	68fb      	ldr	r3, [r7, #12]
    2086:	683a      	ldr	r2, [r7, #0]
    2088:	619a      	str	r2, [r3, #24]
    208a:	e022      	b.n	20d2 <EventTaskToWait+0xe6>
    208c:	68fb      	ldr	r3, [r7, #12]
    208e:	695b      	ldr	r3, [r3, #20]
    2090:	60bb      	str	r3, [r7, #8]
    2092:	e00a      	b.n	20aa <EventTaskToWait+0xbe>
    2094:	68bb      	ldr	r3, [r7, #8]
    2096:	791a      	ldrb	r2, [r3, #4]
    2098:	683b      	ldr	r3, [r7, #0]
    209a:	791b      	ldrb	r3, [r3, #4]
    209c:	429a      	cmp	r2, r3
    209e:	d808      	bhi.n	20b2 <EventTaskToWait+0xc6>
    20a0:	68bb      	ldr	r3, [r7, #8]
    20a2:	60fb      	str	r3, [r7, #12]
    20a4:	68bb      	ldr	r3, [r7, #8]
    20a6:	695b      	ldr	r3, [r3, #20]
    20a8:	60bb      	str	r3, [r7, #8]
    20aa:	68bb      	ldr	r3, [r7, #8]
    20ac:	2b00      	cmp	r3, #0
    20ae:	d1f1      	bne.n	2094 <EventTaskToWait+0xa8>
    20b0:	e000      	b.n	20b4 <EventTaskToWait+0xc8>
    20b2:	bf00      	nop
    20b4:	68fb      	ldr	r3, [r7, #12]
    20b6:	683a      	ldr	r2, [r7, #0]
    20b8:	615a      	str	r2, [r3, #20]
    20ba:	683b      	ldr	r3, [r7, #0]
    20bc:	68fa      	ldr	r2, [r7, #12]
    20be:	619a      	str	r2, [r3, #24]
    20c0:	683b      	ldr	r3, [r7, #0]
    20c2:	68ba      	ldr	r2, [r7, #8]
    20c4:	615a      	str	r2, [r3, #20]
    20c6:	68bb      	ldr	r3, [r7, #8]
    20c8:	2b00      	cmp	r3, #0
    20ca:	d002      	beq.n	20d2 <EventTaskToWait+0xe6>
    20cc:	68bb      	ldr	r3, [r7, #8]
    20ce:	683a      	ldr	r2, [r7, #0]
    20d0:	619a      	str	r2, [r3, #24]
    20d2:	683b      	ldr	r3, [r7, #0]
    20d4:	f04f 0202 	mov.w	r2, #2
    20d8:	715a      	strb	r2, [r3, #5]
    20da:	4b06      	ldr	r3, [pc, #24]	; (20f4 <EventTaskToWait+0x108>)
    20dc:	f04f 0201 	mov.w	r2, #1
    20e0:	701a      	strb	r2, [r3, #0]
    20e2:	f7fe f891 	bl	208 <OsSchedUnlock>
    20e6:	f107 0710 	add.w	r7, r7, #16
    20ea:	46bd      	mov	sp, r7
    20ec:	bd80      	pop	{r7, pc}
    20ee:	bf00      	nop
    20f0:	10000235 	.word	0x10000235
    20f4:	10000236 	.word	0x10000236

000020f8 <EventTaskToRdy>:
    20f8:	b580      	push	{r7, lr}
    20fa:	b084      	sub	sp, #16
    20fc:	af00      	add	r7, sp, #0
    20fe:	6078      	str	r0, [r7, #4]
    2100:	687b      	ldr	r3, [r7, #4]
    2102:	68db      	ldr	r3, [r3, #12]
    2104:	60fb      	str	r3, [r7, #12]
    2106:	68fb      	ldr	r3, [r7, #12]
    2108:	2b00      	cmp	r3, #0
    210a:	f000 8081 	beq.w	2210 <EventTaskToRdy+0x118>
    210e:	68fb      	ldr	r3, [r7, #12]
    2110:	695a      	ldr	r2, [r3, #20]
    2112:	687b      	ldr	r3, [r7, #4]
    2114:	60da      	str	r2, [r3, #12]
    2116:	687b      	ldr	r3, [r7, #4]
    2118:	68db      	ldr	r3, [r3, #12]
    211a:	2b00      	cmp	r3, #0
    211c:	d004      	beq.n	2128 <EventTaskToRdy+0x30>
    211e:	687b      	ldr	r3, [r7, #4]
    2120:	68db      	ldr	r3, [r3, #12]
    2122:	f04f 0200 	mov.w	r2, #0
    2126:	619a      	str	r2, [r3, #24]
    2128:	68fb      	ldr	r3, [r7, #12]
    212a:	f04f 0200 	mov.w	r2, #0
    212e:	615a      	str	r2, [r3, #20]
    2130:	68fb      	ldr	r3, [r7, #12]
    2132:	f04f 02ff 	mov.w	r2, #255	; 0xff
    2136:	721a      	strb	r2, [r3, #8]
    2138:	68fb      	ldr	r3, [r7, #12]
    213a:	6a1b      	ldr	r3, [r3, #32]
    213c:	f1b3 3fff 	cmp.w	r3, #4294967295
    2140:	d002      	beq.n	2148 <EventTaskToRdy+0x50>
    2142:	68f8      	ldr	r0, [r7, #12]
    2144:	f7ff fdbe 	bl	1cc4 <RemoveDelayList>
    2148:	687b      	ldr	r3, [r7, #4]
    214a:	795b      	ldrb	r3, [r3, #5]
    214c:	f003 030f 	and.w	r3, r3, #15
    2150:	b2db      	uxtb	r3, r3
    2152:	2b02      	cmp	r3, #2
    2154:	d10f      	bne.n	2176 <EventTaskToRdy+0x7e>
    2156:	687b      	ldr	r3, [r7, #4]
    2158:	681a      	ldr	r2, [r3, #0]
    215a:	68fb      	ldr	r3, [r7, #12]
    215c:	611a      	str	r2, [r3, #16]
    215e:	687b      	ldr	r3, [r7, #4]
    2160:	f04f 0200 	mov.w	r2, #0
    2164:	601a      	str	r2, [r3, #0]
    2166:	687b      	ldr	r3, [r7, #4]
    2168:	88db      	ldrh	r3, [r3, #6]
    216a:	f103 33ff 	add.w	r3, r3, #4294967295
    216e:	b29a      	uxth	r2, r3
    2170:	687b      	ldr	r3, [r7, #4]
    2172:	80da      	strh	r2, [r3, #6]
    2174:	e03e      	b.n	21f4 <EventTaskToRdy+0xfc>
    2176:	687b      	ldr	r3, [r7, #4]
    2178:	795b      	ldrb	r3, [r3, #5]
    217a:	f003 030f 	and.w	r3, r3, #15
    217e:	b2db      	uxtb	r3, r3
    2180:	2b03      	cmp	r3, #3
    2182:	d125      	bne.n	21d0 <EventTaskToRdy+0xd8>
    2184:	687b      	ldr	r3, [r7, #4]
    2186:	681b      	ldr	r3, [r3, #0]
    2188:	60bb      	str	r3, [r7, #8]
    218a:	68bb      	ldr	r3, [r7, #8]
    218c:	681a      	ldr	r2, [r3, #0]
    218e:	68bb      	ldr	r3, [r7, #8]
    2190:	88db      	ldrh	r3, [r3, #6]
    2192:	ea4f 0383 	mov.w	r3, r3, lsl #2
    2196:	18d3      	adds	r3, r2, r3
    2198:	681a      	ldr	r2, [r3, #0]
    219a:	68fb      	ldr	r3, [r7, #12]
    219c:	611a      	str	r2, [r3, #16]
    219e:	68bb      	ldr	r3, [r7, #8]
    21a0:	88db      	ldrh	r3, [r3, #6]
    21a2:	f103 0301 	add.w	r3, r3, #1
    21a6:	b29a      	uxth	r2, r3
    21a8:	68bb      	ldr	r3, [r7, #8]
    21aa:	80da      	strh	r2, [r3, #6]
    21ac:	68bb      	ldr	r3, [r7, #8]
    21ae:	899b      	ldrh	r3, [r3, #12]
    21b0:	f103 33ff 	add.w	r3, r3, #4294967295
    21b4:	b29a      	uxth	r2, r3
    21b6:	68bb      	ldr	r3, [r7, #8]
    21b8:	819a      	strh	r2, [r3, #12]
    21ba:	68bb      	ldr	r3, [r7, #8]
    21bc:	88da      	ldrh	r2, [r3, #6]
    21be:	68bb      	ldr	r3, [r7, #8]
    21c0:	895b      	ldrh	r3, [r3, #10]
    21c2:	429a      	cmp	r2, r3
    21c4:	d116      	bne.n	21f4 <EventTaskToRdy+0xfc>
    21c6:	68bb      	ldr	r3, [r7, #8]
    21c8:	f04f 0200 	mov.w	r2, #0
    21cc:	80da      	strh	r2, [r3, #6]
    21ce:	e011      	b.n	21f4 <EventTaskToRdy+0xfc>
    21d0:	687b      	ldr	r3, [r7, #4]
    21d2:	795b      	ldrb	r3, [r3, #5]
    21d4:	f003 030f 	and.w	r3, r3, #15
    21d8:	b2db      	uxtb	r3, r3
    21da:	2b01      	cmp	r3, #1
    21dc:	d10a      	bne.n	21f4 <EventTaskToRdy+0xfc>
    21de:	687b      	ldr	r3, [r7, #4]
    21e0:	88db      	ldrh	r3, [r3, #6]
    21e2:	f103 33ff 	add.w	r3, r3, #4294967295
    21e6:	b29a      	uxth	r2, r3
    21e8:	687b      	ldr	r3, [r7, #4]
    21ea:	80da      	strh	r2, [r3, #6]
    21ec:	68fb      	ldr	r3, [r7, #12]
    21ee:	f04f 32ff 	mov.w	r2, #4294967295
    21f2:	611a      	str	r2, [r3, #16]
    21f4:	4b09      	ldr	r3, [pc, #36]	; (221c <EventTaskToRdy+0x124>)
    21f6:	681b      	ldr	r3, [r3, #0]
    21f8:	68fa      	ldr	r2, [r7, #12]
    21fa:	429a      	cmp	r2, r3
    21fc:	d104      	bne.n	2208 <EventTaskToRdy+0x110>
    21fe:	68fb      	ldr	r3, [r7, #12]
    2200:	f04f 0201 	mov.w	r2, #1
    2204:	715a      	strb	r2, [r3, #5]
    2206:	e004      	b.n	2212 <EventTaskToRdy+0x11a>
    2208:	68f8      	ldr	r0, [r7, #12]
    220a:	f7fe fda7 	bl	d5c <InsertToTCBRdyList>
    220e:	e000      	b.n	2212 <EventTaskToRdy+0x11a>
    2210:	bf00      	nop
    2212:	f107 0710 	add.w	r7, r7, #16
    2216:	46bd      	mov	sp, r7
    2218:	bd80      	pop	{r7, pc}
    221a:	bf00      	nop
    221c:	10000608 	.word	0x10000608

00002220 <RemoveEventWaittingList>:
    2220:	b480      	push	{r7}
    2222:	b085      	sub	sp, #20
    2224:	af00      	add	r7, sp, #0
    2226:	6078      	str	r0, [r7, #4]
    2228:	687b      	ldr	r3, [r7, #4]
    222a:	7a1b      	ldrb	r3, [r3, #8]
    222c:	ea4f 1203 	mov.w	r2, r3, lsl #4
    2230:	4b25      	ldr	r3, [pc, #148]	; (22c8 <RemoveEventWaittingList+0xa8>)
    2232:	18d3      	adds	r3, r2, r3
    2234:	60fb      	str	r3, [r7, #12]
    2236:	687b      	ldr	r3, [r7, #4]
    2238:	695b      	ldr	r3, [r3, #20]
    223a:	2b00      	cmp	r3, #0
    223c:	d108      	bne.n	2250 <RemoveEventWaittingList+0x30>
    223e:	687b      	ldr	r3, [r7, #4]
    2240:	699b      	ldr	r3, [r3, #24]
    2242:	2b00      	cmp	r3, #0
    2244:	d104      	bne.n	2250 <RemoveEventWaittingList+0x30>
    2246:	68fb      	ldr	r3, [r7, #12]
    2248:	f04f 0200 	mov.w	r2, #0
    224c:	60da      	str	r2, [r3, #12]
    224e:	e031      	b.n	22b4 <RemoveEventWaittingList+0x94>
    2250:	687b      	ldr	r3, [r7, #4]
    2252:	699b      	ldr	r3, [r3, #24]
    2254:	2b00      	cmp	r3, #0
    2256:	d10d      	bne.n	2274 <RemoveEventWaittingList+0x54>
    2258:	687b      	ldr	r3, [r7, #4]
    225a:	695b      	ldr	r3, [r3, #20]
    225c:	f04f 0200 	mov.w	r2, #0
    2260:	619a      	str	r2, [r3, #24]
    2262:	687b      	ldr	r3, [r7, #4]
    2264:	695a      	ldr	r2, [r3, #20]
    2266:	68fb      	ldr	r3, [r7, #12]
    2268:	60da      	str	r2, [r3, #12]
    226a:	687b      	ldr	r3, [r7, #4]
    226c:	f04f 0200 	mov.w	r2, #0
    2270:	615a      	str	r2, [r3, #20]
    2272:	e01f      	b.n	22b4 <RemoveEventWaittingList+0x94>
    2274:	687b      	ldr	r3, [r7, #4]
    2276:	695b      	ldr	r3, [r3, #20]
    2278:	2b00      	cmp	r3, #0
    227a:	d109      	bne.n	2290 <RemoveEventWaittingList+0x70>
    227c:	687b      	ldr	r3, [r7, #4]
    227e:	699b      	ldr	r3, [r3, #24]
    2280:	f04f 0200 	mov.w	r2, #0
    2284:	615a      	str	r2, [r3, #20]
    2286:	687b      	ldr	r3, [r7, #4]
    2288:	f04f 0200 	mov.w	r2, #0
    228c:	619a      	str	r2, [r3, #24]
    228e:	e011      	b.n	22b4 <RemoveEventWaittingList+0x94>
    2290:	687b      	ldr	r3, [r7, #4]
    2292:	699b      	ldr	r3, [r3, #24]
    2294:	687a      	ldr	r2, [r7, #4]
    2296:	6952      	ldr	r2, [r2, #20]
    2298:	615a      	str	r2, [r3, #20]
    229a:	687b      	ldr	r3, [r7, #4]
    229c:	695b      	ldr	r3, [r3, #20]
    229e:	687a      	ldr	r2, [r7, #4]
    22a0:	6992      	ldr	r2, [r2, #24]
    22a2:	619a      	str	r2, [r3, #24]
    22a4:	687b      	ldr	r3, [r7, #4]
    22a6:	f04f 0200 	mov.w	r2, #0
    22aa:	619a      	str	r2, [r3, #24]
    22ac:	687b      	ldr	r3, [r7, #4]
    22ae:	f04f 0200 	mov.w	r2, #0
    22b2:	615a      	str	r2, [r3, #20]
    22b4:	687b      	ldr	r3, [r7, #4]
    22b6:	f04f 02ff 	mov.w	r2, #255	; 0xff
    22ba:	721a      	strb	r2, [r3, #8]
    22bc:	f107 0714 	add.w	r7, r7, #20
    22c0:	46bd      	mov	sp, r7
    22c2:	bc80      	pop	{r7}
    22c4:	4770      	bx	lr
    22c6:	bf00      	nop
    22c8:	10000850 	.word	0x10000850

000022cc <set_PinFunc>:
    22cc:	b480      	push	{r7}
    22ce:	b087      	sub	sp, #28
    22d0:	af00      	add	r7, sp, #0
    22d2:	4613      	mov	r3, r2
    22d4:	4602      	mov	r2, r0
    22d6:	71fa      	strb	r2, [r7, #7]
    22d8:	460a      	mov	r2, r1
    22da:	71ba      	strb	r2, [r7, #6]
    22dc:	717b      	strb	r3, [r7, #5]
    22de:	79bb      	ldrb	r3, [r7, #6]
    22e0:	617b      	str	r3, [r7, #20]
    22e2:	79fb      	ldrb	r3, [r7, #7]
    22e4:	ea4f 0343 	mov.w	r3, r3, lsl #1
    22e8:	613b      	str	r3, [r7, #16]
    22ea:	4b1e      	ldr	r3, [pc, #120]	; (2364 <set_PinFunc+0x98>)
    22ec:	60fb      	str	r3, [r7, #12]
    22ee:	697b      	ldr	r3, [r7, #20]
    22f0:	2b0f      	cmp	r3, #15
    22f2:	d907      	bls.n	2304 <set_PinFunc+0x38>
    22f4:	697b      	ldr	r3, [r7, #20]
    22f6:	f1a3 0310 	sub.w	r3, r3, #16
    22fa:	617b      	str	r3, [r7, #20]
    22fc:	693b      	ldr	r3, [r7, #16]
    22fe:	f103 0301 	add.w	r3, r3, #1
    2302:	613b      	str	r3, [r7, #16]
    2304:	693b      	ldr	r3, [r7, #16]
    2306:	ea4f 0383 	mov.w	r3, r3, lsl #2
    230a:	68fa      	ldr	r2, [r7, #12]
    230c:	18d3      	adds	r3, r2, r3
    230e:	693a      	ldr	r2, [r7, #16]
    2310:	ea4f 0282 	mov.w	r2, r2, lsl #2
    2314:	68f9      	ldr	r1, [r7, #12]
    2316:	188a      	adds	r2, r1, r2
    2318:	6811      	ldr	r1, [r2, #0]
    231a:	697a      	ldr	r2, [r7, #20]
    231c:	ea4f 0242 	mov.w	r2, r2, lsl #1
    2320:	f04f 0003 	mov.w	r0, #3
    2324:	fa00 f202 	lsl.w	r2, r0, r2
    2328:	ea6f 0202 	mvn.w	r2, r2
    232c:	ea01 0202 	and.w	r2, r1, r2
    2330:	601a      	str	r2, [r3, #0]
    2332:	693b      	ldr	r3, [r7, #16]
    2334:	ea4f 0383 	mov.w	r3, r3, lsl #2
    2338:	68fa      	ldr	r2, [r7, #12]
    233a:	18d3      	adds	r3, r2, r3
    233c:	693a      	ldr	r2, [r7, #16]
    233e:	ea4f 0282 	mov.w	r2, r2, lsl #2
    2342:	68f9      	ldr	r1, [r7, #12]
    2344:	188a      	adds	r2, r1, r2
    2346:	6811      	ldr	r1, [r2, #0]
    2348:	7978      	ldrb	r0, [r7, #5]
    234a:	697a      	ldr	r2, [r7, #20]
    234c:	ea4f 0242 	mov.w	r2, r2, lsl #1
    2350:	fa00 f202 	lsl.w	r2, r0, r2
    2354:	ea41 0202 	orr.w	r2, r1, r2
    2358:	601a      	str	r2, [r3, #0]
    235a:	f107 071c 	add.w	r7, r7, #28
    235e:	46bd      	mov	sp, r7
    2360:	bc80      	pop	{r7}
    2362:	4770      	bx	lr
    2364:	4002c000 	.word	0x4002c000

00002368 <set_ResistorMode>:
    2368:	b480      	push	{r7}
    236a:	b087      	sub	sp, #28
    236c:	af00      	add	r7, sp, #0
    236e:	4613      	mov	r3, r2
    2370:	4602      	mov	r2, r0
    2372:	71fa      	strb	r2, [r7, #7]
    2374:	460a      	mov	r2, r1
    2376:	71ba      	strb	r2, [r7, #6]
    2378:	717b      	strb	r3, [r7, #5]
    237a:	79bb      	ldrb	r3, [r7, #6]
    237c:	617b      	str	r3, [r7, #20]
    237e:	79fb      	ldrb	r3, [r7, #7]
    2380:	ea4f 0343 	mov.w	r3, r3, lsl #1
    2384:	613b      	str	r3, [r7, #16]
    2386:	4b1e      	ldr	r3, [pc, #120]	; (2400 <set_ResistorMode+0x98>)
    2388:	60fb      	str	r3, [r7, #12]
    238a:	697b      	ldr	r3, [r7, #20]
    238c:	2b0f      	cmp	r3, #15
    238e:	d907      	bls.n	23a0 <set_ResistorMode+0x38>
    2390:	697b      	ldr	r3, [r7, #20]
    2392:	f1a3 0310 	sub.w	r3, r3, #16
    2396:	617b      	str	r3, [r7, #20]
    2398:	693b      	ldr	r3, [r7, #16]
    239a:	f103 0301 	add.w	r3, r3, #1
    239e:	613b      	str	r3, [r7, #16]
    23a0:	693b      	ldr	r3, [r7, #16]
    23a2:	ea4f 0383 	mov.w	r3, r3, lsl #2
    23a6:	68fa      	ldr	r2, [r7, #12]
    23a8:	18d3      	adds	r3, r2, r3
    23aa:	693a      	ldr	r2, [r7, #16]
    23ac:	ea4f 0282 	mov.w	r2, r2, lsl #2
    23b0:	68f9      	ldr	r1, [r7, #12]
    23b2:	188a      	adds	r2, r1, r2
    23b4:	6811      	ldr	r1, [r2, #0]
    23b6:	697a      	ldr	r2, [r7, #20]
    23b8:	ea4f 0242 	mov.w	r2, r2, lsl #1
    23bc:	f04f 0003 	mov.w	r0, #3
    23c0:	fa00 f202 	lsl.w	r2, r0, r2
    23c4:	ea6f 0202 	mvn.w	r2, r2
    23c8:	ea01 0202 	and.w	r2, r1, r2
    23cc:	601a      	str	r2, [r3, #0]
    23ce:	693b      	ldr	r3, [r7, #16]
    23d0:	ea4f 0383 	mov.w	r3, r3, lsl #2
    23d4:	68fa      	ldr	r2, [r7, #12]
    23d6:	18d3      	adds	r3, r2, r3
    23d8:	693a      	ldr	r2, [r7, #16]
    23da:	ea4f 0282 	mov.w	r2, r2, lsl #2
    23de:	68f9      	ldr	r1, [r7, #12]
    23e0:	188a      	adds	r2, r1, r2
    23e2:	6811      	ldr	r1, [r2, #0]
    23e4:	7978      	ldrb	r0, [r7, #5]
    23e6:	697a      	ldr	r2, [r7, #20]
    23e8:	ea4f 0242 	mov.w	r2, r2, lsl #1
    23ec:	fa00 f202 	lsl.w	r2, r0, r2
    23f0:	ea41 0202 	orr.w	r2, r1, r2
    23f4:	601a      	str	r2, [r3, #0]
    23f6:	f107 071c 	add.w	r7, r7, #28
    23fa:	46bd      	mov	sp, r7
    23fc:	bc80      	pop	{r7}
    23fe:	4770      	bx	lr
    2400:	4002c040 	.word	0x4002c040

00002404 <set_OpenDrainMode>:
    2404:	b480      	push	{r7}
    2406:	b085      	sub	sp, #20
    2408:	af00      	add	r7, sp, #0
    240a:	4613      	mov	r3, r2
    240c:	4602      	mov	r2, r0
    240e:	71fa      	strb	r2, [r7, #7]
    2410:	460a      	mov	r2, r1
    2412:	71ba      	strb	r2, [r7, #6]
    2414:	717b      	strb	r3, [r7, #5]
    2416:	4b19      	ldr	r3, [pc, #100]	; (247c <set_OpenDrainMode+0x78>)
    2418:	60fb      	str	r3, [r7, #12]
    241a:	797b      	ldrb	r3, [r7, #5]
    241c:	2b01      	cmp	r3, #1
    241e:	d113      	bne.n	2448 <set_OpenDrainMode+0x44>
    2420:	79fb      	ldrb	r3, [r7, #7]
    2422:	ea4f 0383 	mov.w	r3, r3, lsl #2
    2426:	68fa      	ldr	r2, [r7, #12]
    2428:	18d3      	adds	r3, r2, r3
    242a:	79fa      	ldrb	r2, [r7, #7]
    242c:	ea4f 0282 	mov.w	r2, r2, lsl #2
    2430:	68f9      	ldr	r1, [r7, #12]
    2432:	188a      	adds	r2, r1, r2
    2434:	6811      	ldr	r1, [r2, #0]
    2436:	79ba      	ldrb	r2, [r7, #6]
    2438:	f04f 0001 	mov.w	r0, #1
    243c:	fa00 f202 	lsl.w	r2, r0, r2
    2440:	ea41 0202 	orr.w	r2, r1, r2
    2444:	601a      	str	r2, [r3, #0]
    2446:	e014      	b.n	2472 <set_OpenDrainMode+0x6e>
    2448:	79fb      	ldrb	r3, [r7, #7]
    244a:	ea4f 0383 	mov.w	r3, r3, lsl #2
    244e:	68fa      	ldr	r2, [r7, #12]
    2450:	18d3      	adds	r3, r2, r3
    2452:	79fa      	ldrb	r2, [r7, #7]
    2454:	ea4f 0282 	mov.w	r2, r2, lsl #2
    2458:	68f9      	ldr	r1, [r7, #12]
    245a:	188a      	adds	r2, r1, r2
    245c:	6811      	ldr	r1, [r2, #0]
    245e:	79ba      	ldrb	r2, [r7, #6]
    2460:	f04f 0001 	mov.w	r0, #1
    2464:	fa00 f202 	lsl.w	r2, r0, r2
    2468:	ea6f 0202 	mvn.w	r2, r2
    246c:	ea01 0202 	and.w	r2, r1, r2
    2470:	601a      	str	r2, [r3, #0]
    2472:	f107 0714 	add.w	r7, r7, #20
    2476:	46bd      	mov	sp, r7
    2478:	bc80      	pop	{r7}
    247a:	4770      	bx	lr
    247c:	4002c068 	.word	0x4002c068

00002480 <PINSEL_ConfigPin>:
    2480:	b580      	push	{r7, lr}
    2482:	b082      	sub	sp, #8
    2484:	af00      	add	r7, sp, #0
    2486:	6078      	str	r0, [r7, #4]
    2488:	687b      	ldr	r3, [r7, #4]
    248a:	7819      	ldrb	r1, [r3, #0]
    248c:	687b      	ldr	r3, [r7, #4]
    248e:	785a      	ldrb	r2, [r3, #1]
    2490:	687b      	ldr	r3, [r7, #4]
    2492:	789b      	ldrb	r3, [r3, #2]
    2494:	4608      	mov	r0, r1
    2496:	4611      	mov	r1, r2
    2498:	461a      	mov	r2, r3
    249a:	f7ff ff17 	bl	22cc <set_PinFunc>
    249e:	687b      	ldr	r3, [r7, #4]
    24a0:	7819      	ldrb	r1, [r3, #0]
    24a2:	687b      	ldr	r3, [r7, #4]
    24a4:	785a      	ldrb	r2, [r3, #1]
    24a6:	687b      	ldr	r3, [r7, #4]
    24a8:	78db      	ldrb	r3, [r3, #3]
    24aa:	4608      	mov	r0, r1
    24ac:	4611      	mov	r1, r2
    24ae:	461a      	mov	r2, r3
    24b0:	f7ff ff5a 	bl	2368 <set_ResistorMode>
    24b4:	687b      	ldr	r3, [r7, #4]
    24b6:	7819      	ldrb	r1, [r3, #0]
    24b8:	687b      	ldr	r3, [r7, #4]
    24ba:	785a      	ldrb	r2, [r3, #1]
    24bc:	687b      	ldr	r3, [r7, #4]
    24be:	791b      	ldrb	r3, [r3, #4]
    24c0:	4608      	mov	r0, r1
    24c2:	4611      	mov	r1, r2
    24c4:	461a      	mov	r2, r3
    24c6:	f7ff ff9d 	bl	2404 <set_OpenDrainMode>
    24ca:	f107 0708 	add.w	r7, r7, #8
    24ce:	46bd      	mov	sp, r7
    24d0:	bd80      	pop	{r7, pc}
    24d2:	bf00      	nop

000024d4 <Inc8>:
    24d4:	b490      	push	{r4, r7}
    24d6:	b082      	sub	sp, #8
    24d8:	af00      	add	r7, sp, #0
    24da:	6078      	str	r0, [r7, #4]
    24dc:	f04f 0400 	mov.w	r4, #0
    24e0:	687b      	ldr	r3, [r7, #4]
    24e2:	b402      	push	{r1}
    24e4:	b672      	cpsid	i
    24e6:	7819      	ldrb	r1, [r3, #0]
    24e8:	f101 0101 	add.w	r1, r1, #1
    24ec:	7019      	strb	r1, [r3, #0]
    24ee:	b662      	cpsie	i
    24f0:	f1a1 0101 	sub.w	r1, r1, #1
    24f4:	000c      	movs	r4, r1
    24f6:	bc02      	pop	{r1}
    24f8:	b2e4      	uxtb	r4, r4
    24fa:	4623      	mov	r3, r4
    24fc:	4618      	mov	r0, r3
    24fe:	f107 0708 	add.w	r7, r7, #8
    2502:	46bd      	mov	sp, r7
    2504:	bc90      	pop	{r4, r7}
    2506:	4770      	bx	lr

00002508 <Dec8>:
    2508:	b490      	push	{r4, r7}
    250a:	b082      	sub	sp, #8
    250c:	af00      	add	r7, sp, #0
    250e:	6078      	str	r0, [r7, #4]
    2510:	f04f 0400 	mov.w	r4, #0
    2514:	687b      	ldr	r3, [r7, #4]
    2516:	b402      	push	{r1}
    2518:	b672      	cpsid	i
    251a:	7819      	ldrb	r1, [r3, #0]
    251c:	f1a1 0101 	sub.w	r1, r1, #1
    2520:	7019      	strb	r1, [r3, #0]
    2522:	b662      	cpsie	i
    2524:	000c      	movs	r4, r1
    2526:	bc02      	pop	{r1}
    2528:	b2e4      	uxtb	r4, r4
    252a:	4623      	mov	r3, r4
    252c:	4618      	mov	r0, r3
    252e:	f107 0708 	add.w	r7, r7, #8
    2532:	46bd      	mov	sp, r7
    2534:	bc90      	pop	{r4, r7}
    2536:	4770      	bx	lr

00002538 <IRQ_ENABLE_RESTORE>:
    2538:	b480      	push	{r7}
    253a:	af00      	add	r7, sp, #0
    253c:	b662      	cpsie	i
    253e:	46bd      	mov	sp, r7
    2540:	bc80      	pop	{r7}
    2542:	4770      	bx	lr

00002544 <IRQ_DISABLE_SAVE>:
    2544:	b480      	push	{r7}
    2546:	af00      	add	r7, sp, #0
    2548:	b672      	cpsid	i
    254a:	46bd      	mov	sp, r7
    254c:	bc80      	pop	{r7}
    254e:	4770      	bx	lr

00002550 <SetEnvironment>:
    2550:	f1a0 001c 	sub.w	r0, r0, #28
    2554:	f380 8809 	msr	PSP, r0
    2558:	4770      	bx	lr
    255a:	bf00      	nop

0000255c <SwitchContext>:
    255c:	4b02      	ldr	r3, [pc, #8]	; (2568 <SwitchContext+0xc>)
    255e:	681b      	ldr	r3, [r3, #0]
    2560:	4a02      	ldr	r2, [pc, #8]	; (256c <SwitchContext+0x10>)
    2562:	6811      	ldr	r1, [r2, #0]
    2564:	6019      	str	r1, [r3, #0]
    2566:	4770      	bx	lr
    2568:	10000008 	.word	0x10000008
    256c:	1000000c 	.word	0x1000000c

00002570 <PendSV_Handler>:
    2570:	4b0b      	ldr	r3, [pc, #44]	; (25a0 <exitPendSV+0xe>)
    2572:	6819      	ldr	r1, [r3, #0]
    2574:	4a0b      	ldr	r2, [pc, #44]	; (25a4 <exitPendSV+0x12>)
    2576:	6812      	ldr	r2, [r2, #0]
    2578:	4291      	cmp	r1, r2
    257a:	d00a      	beq.n	2592 <exitPendSV>
    257c:	f3ef 8009 	mrs	r0, PSP
    2580:	e920 0ff0 	stmdb	r0!, {r4, r5, r6, r7, r8, r9, sl, fp}
    2584:	6008      	str	r0, [r1, #0]
    2586:	601a      	str	r2, [r3, #0]
    2588:	6810      	ldr	r0, [r2, #0]
    258a:	e8b0 0ff0 	ldmia.w	r0!, {r4, r5, r6, r7, r8, r9, sl, fp}
    258e:	f380 8809 	msr	PSP, r0

00002592 <exitPendSV>:
    2592:	4b05      	ldr	r3, [pc, #20]	; (25a8 <exitPendSV+0x16>)
    2594:	2000      	movs	r0, #0
    2596:	7018      	strb	r0, [r3, #0]
    2598:	f04e 0e04 	orr.w	lr, lr, #4
    259c:	4770      	bx	lr
    259e:	0000      	.short	0x0000
    25a0:	10000608 	.word	0x10000608
    25a4:	10000604 	.word	0x10000604
    25a8:	10000235 	.word	0x10000235

000025ac <CoPostQueueMail>:
    25ac:	b580      	push	{r7, lr}
    25ae:	b084      	sub	sp, #16
    25b0:	af00      	add	r7, sp, #0
    25b2:	4603      	mov	r3, r0
    25b4:	6039      	str	r1, [r7, #0]
    25b6:	71fb      	strb	r3, [r7, #7]
    25b8:	79fb      	ldrb	r3, [r7, #7]
    25ba:	2b13      	cmp	r3, #19
    25bc:	d902      	bls.n	25c4 <CoPostQueueMail+0x18>
    25be:	f04f 0301 	mov.w	r3, #1
    25c2:	e04b      	b.n	265c <CoPostQueueMail+0xb0>
    25c4:	79fb      	ldrb	r3, [r7, #7]
    25c6:	ea4f 1203 	mov.w	r2, r3, lsl #4
    25ca:	4b27      	ldr	r3, [pc, #156]	; (2668 <CoPostQueueMail+0xbc>)
    25cc:	18d3      	adds	r3, r2, r3
    25ce:	60fb      	str	r3, [r7, #12]
    25d0:	68fb      	ldr	r3, [r7, #12]
    25d2:	795b      	ldrb	r3, [r3, #5]
    25d4:	f003 030f 	and.w	r3, r3, #15
    25d8:	b2db      	uxtb	r3, r3
    25da:	2b03      	cmp	r3, #3
    25dc:	d002      	beq.n	25e4 <CoPostQueueMail+0x38>
    25de:	f04f 0301 	mov.w	r3, #1
    25e2:	e03b      	b.n	265c <CoPostQueueMail+0xb0>
    25e4:	68fb      	ldr	r3, [r7, #12]
    25e6:	681b      	ldr	r3, [r3, #0]
    25e8:	60bb      	str	r3, [r7, #8]
    25ea:	68bb      	ldr	r3, [r7, #8]
    25ec:	899a      	ldrh	r2, [r3, #12]
    25ee:	68bb      	ldr	r3, [r7, #8]
    25f0:	895b      	ldrh	r3, [r3, #10]
    25f2:	429a      	cmp	r2, r3
    25f4:	d102      	bne.n	25fc <CoPostQueueMail+0x50>
    25f6:	f04f 0308 	mov.w	r3, #8
    25fa:	e02f      	b.n	265c <CoPostQueueMail+0xb0>
    25fc:	4b1b      	ldr	r3, [pc, #108]	; (266c <CoPostQueueMail+0xc0>)
    25fe:	781b      	ldrb	r3, [r3, #0]
    2600:	b2db      	uxtb	r3, r3
    2602:	f103 0301 	add.w	r3, r3, #1
    2606:	b2da      	uxtb	r2, r3
    2608:	4b18      	ldr	r3, [pc, #96]	; (266c <CoPostQueueMail+0xc0>)
    260a:	701a      	strb	r2, [r3, #0]
    260c:	68bb      	ldr	r3, [r7, #8]
    260e:	681a      	ldr	r2, [r3, #0]
    2610:	68bb      	ldr	r3, [r7, #8]
    2612:	891b      	ldrh	r3, [r3, #8]
    2614:	ea4f 0383 	mov.w	r3, r3, lsl #2
    2618:	18d3      	adds	r3, r2, r3
    261a:	683a      	ldr	r2, [r7, #0]
    261c:	601a      	str	r2, [r3, #0]
    261e:	68bb      	ldr	r3, [r7, #8]
    2620:	891b      	ldrh	r3, [r3, #8]
    2622:	f103 0301 	add.w	r3, r3, #1
    2626:	b29a      	uxth	r2, r3
    2628:	68bb      	ldr	r3, [r7, #8]
    262a:	811a      	strh	r2, [r3, #8]
    262c:	68bb      	ldr	r3, [r7, #8]
    262e:	899b      	ldrh	r3, [r3, #12]
    2630:	f103 0301 	add.w	r3, r3, #1
    2634:	b29a      	uxth	r2, r3
    2636:	68bb      	ldr	r3, [r7, #8]
    2638:	819a      	strh	r2, [r3, #12]
    263a:	68bb      	ldr	r3, [r7, #8]
    263c:	891a      	ldrh	r2, [r3, #8]
    263e:	68bb      	ldr	r3, [r7, #8]
    2640:	895b      	ldrh	r3, [r3, #10]
    2642:	429a      	cmp	r2, r3
    2644:	d103      	bne.n	264e <CoPostQueueMail+0xa2>
    2646:	68bb      	ldr	r3, [r7, #8]
    2648:	f04f 0200 	mov.w	r2, #0
    264c:	811a      	strh	r2, [r3, #8]
    264e:	68f8      	ldr	r0, [r7, #12]
    2650:	f7ff fd52 	bl	20f8 <EventTaskToRdy>
    2654:	f7fd fdd8 	bl	208 <OsSchedUnlock>
    2658:	f04f 0300 	mov.w	r3, #0
    265c:	4618      	mov	r0, r3
    265e:	f107 0710 	add.w	r7, r7, #16
    2662:	46bd      	mov	sp, r7
    2664:	bd80      	pop	{r7, pc}
    2666:	bf00      	nop
    2668:	10000850 	.word	0x10000850
    266c:	10000235 	.word	0x10000235

00002670 <CoCreateMutex>:
    2670:	b580      	push	{r7, lr}
    2672:	b082      	sub	sp, #8
    2674:	af00      	add	r7, sp, #0
    2676:	4b1e      	ldr	r3, [pc, #120]	; (26f0 <CoCreateMutex+0x80>)
    2678:	781b      	ldrb	r3, [r3, #0]
    267a:	b2db      	uxtb	r3, r3
    267c:	f103 0301 	add.w	r3, r3, #1
    2680:	b2da      	uxtb	r2, r3
    2682:	4b1b      	ldr	r3, [pc, #108]	; (26f0 <CoCreateMutex+0x80>)
    2684:	701a      	strb	r2, [r3, #0]
    2686:	4b1b      	ldr	r3, [pc, #108]	; (26f4 <CoCreateMutex+0x84>)
    2688:	781b      	ldrb	r3, [r3, #0]
    268a:	2b09      	cmp	r3, #9
    268c:	d826      	bhi.n	26dc <CoCreateMutex+0x6c>
    268e:	4b19      	ldr	r3, [pc, #100]	; (26f4 <CoCreateMutex+0x84>)
    2690:	781b      	ldrb	r3, [r3, #0]
    2692:	461a      	mov	r2, r3
    2694:	71fa      	strb	r2, [r7, #7]
    2696:	f103 0301 	add.w	r3, r3, #1
    269a:	b2da      	uxtb	r2, r3
    269c:	4b15      	ldr	r3, [pc, #84]	; (26f4 <CoCreateMutex+0x84>)
    269e:	701a      	strb	r2, [r3, #0]
    26a0:	f7fd fdb2 	bl	208 <OsSchedUnlock>
    26a4:	79fb      	ldrb	r3, [r7, #7]
    26a6:	ea4f 02c3 	mov.w	r2, r3, lsl #3
    26aa:	4b13      	ldr	r3, [pc, #76]	; (26f8 <CoCreateMutex+0x88>)
    26ac:	18d3      	adds	r3, r2, r3
    26ae:	603b      	str	r3, [r7, #0]
    26b0:	683b      	ldr	r3, [r7, #0]
    26b2:	f04f 02ff 	mov.w	r2, #255	; 0xff
    26b6:	70da      	strb	r2, [r3, #3]
    26b8:	683b      	ldr	r3, [r7, #0]
    26ba:	f04f 02ff 	mov.w	r2, #255	; 0xff
    26be:	701a      	strb	r2, [r3, #0]
    26c0:	683b      	ldr	r3, [r7, #0]
    26c2:	f04f 0200 	mov.w	r2, #0
    26c6:	705a      	strb	r2, [r3, #1]
    26c8:	683b      	ldr	r3, [r7, #0]
    26ca:	f04f 02ff 	mov.w	r2, #255	; 0xff
    26ce:	709a      	strb	r2, [r3, #2]
    26d0:	683b      	ldr	r3, [r7, #0]
    26d2:	f04f 0200 	mov.w	r2, #0
    26d6:	605a      	str	r2, [r3, #4]
    26d8:	79fb      	ldrb	r3, [r7, #7]
    26da:	e003      	b.n	26e4 <CoCreateMutex+0x74>
    26dc:	f7fd fd94 	bl	208 <OsSchedUnlock>
    26e0:	f04f 03ff 	mov.w	r3, #255	; 0xff
    26e4:	4618      	mov	r0, r3
    26e6:	f107 0708 	add.w	r7, r7, #8
    26ea:	46bd      	mov	sp, r7
    26ec:	bd80      	pop	{r7, pc}
    26ee:	bf00      	nop
    26f0:	10000235 	.word	0x10000235
    26f4:	10000994 	.word	0x10000994
    26f8:	10000998 	.word	0x10000998

000026fc <CoEnterMutexSection>:
    26fc:	b580      	push	{r7, lr}
    26fe:	b086      	sub	sp, #24
    2700:	af00      	add	r7, sp, #0
    2702:	4603      	mov	r3, r0
    2704:	71fb      	strb	r3, [r7, #7]
    2706:	4b5b      	ldr	r3, [pc, #364]	; (2874 <CoEnterMutexSection+0x178>)
    2708:	781b      	ldrb	r3, [r3, #0]
    270a:	b2db      	uxtb	r3, r3
    270c:	2b00      	cmp	r3, #0
    270e:	d002      	beq.n	2716 <CoEnterMutexSection+0x1a>
    2710:	f04f 0303 	mov.w	r3, #3
    2714:	e0a8      	b.n	2868 <CoEnterMutexSection+0x16c>
    2716:	4b58      	ldr	r3, [pc, #352]	; (2878 <CoEnterMutexSection+0x17c>)
    2718:	781b      	ldrb	r3, [r3, #0]
    271a:	b2db      	uxtb	r3, r3
    271c:	2b00      	cmp	r3, #0
    271e:	d002      	beq.n	2726 <CoEnterMutexSection+0x2a>
    2720:	f04f 0315 	mov.w	r3, #21
    2724:	e0a0      	b.n	2868 <CoEnterMutexSection+0x16c>
    2726:	4b55      	ldr	r3, [pc, #340]	; (287c <CoEnterMutexSection+0x180>)
    2728:	781b      	ldrb	r3, [r3, #0]
    272a:	79fa      	ldrb	r2, [r7, #7]
    272c:	429a      	cmp	r2, r3
    272e:	d302      	bcc.n	2736 <CoEnterMutexSection+0x3a>
    2730:	f04f 0301 	mov.w	r3, #1
    2734:	e098      	b.n	2868 <CoEnterMutexSection+0x16c>
    2736:	4b50      	ldr	r3, [pc, #320]	; (2878 <CoEnterMutexSection+0x17c>)
    2738:	781b      	ldrb	r3, [r3, #0]
    273a:	b2db      	uxtb	r3, r3
    273c:	f103 0301 	add.w	r3, r3, #1
    2740:	b2da      	uxtb	r2, r3
    2742:	4b4d      	ldr	r3, [pc, #308]	; (2878 <CoEnterMutexSection+0x17c>)
    2744:	701a      	strb	r2, [r3, #0]
    2746:	4b4e      	ldr	r3, [pc, #312]	; (2880 <CoEnterMutexSection+0x184>)
    2748:	681b      	ldr	r3, [r3, #0]
    274a:	613b      	str	r3, [r7, #16]
    274c:	79fb      	ldrb	r3, [r7, #7]
    274e:	ea4f 02c3 	mov.w	r2, r3, lsl #3
    2752:	4b4c      	ldr	r3, [pc, #304]	; (2884 <CoEnterMutexSection+0x188>)
    2754:	18d3      	adds	r3, r2, r3
    2756:	60fb      	str	r3, [r7, #12]
    2758:	693b      	ldr	r3, [r7, #16]
    275a:	79fa      	ldrb	r2, [r7, #7]
    275c:	71da      	strb	r2, [r3, #7]
    275e:	68fb      	ldr	r3, [r7, #12]
    2760:	785b      	ldrb	r3, [r3, #1]
    2762:	2b00      	cmp	r3, #0
    2764:	d110      	bne.n	2788 <CoEnterMutexSection+0x8c>
    2766:	693b      	ldr	r3, [r7, #16]
    2768:	791a      	ldrb	r2, [r3, #4]
    276a:	68fb      	ldr	r3, [r7, #12]
    276c:	701a      	strb	r2, [r3, #0]
    276e:	693b      	ldr	r3, [r7, #16]
    2770:	799a      	ldrb	r2, [r3, #6]
    2772:	68fb      	ldr	r3, [r7, #12]
    2774:	709a      	strb	r2, [r3, #2]
    2776:	693b      	ldr	r3, [r7, #16]
    2778:	799a      	ldrb	r2, [r3, #6]
    277a:	68fb      	ldr	r3, [r7, #12]
    277c:	70da      	strb	r2, [r3, #3]
    277e:	68fb      	ldr	r3, [r7, #12]
    2780:	f04f 0201 	mov.w	r2, #1
    2784:	705a      	strb	r2, [r3, #1]
    2786:	e06b      	b.n	2860 <CoEnterMutexSection+0x164>
    2788:	68fb      	ldr	r3, [r7, #12]
    278a:	785b      	ldrb	r3, [r3, #1]
    278c:	2b01      	cmp	r3, #1
    278e:	d167      	bne.n	2860 <CoEnterMutexSection+0x164>
    2790:	68fb      	ldr	r3, [r7, #12]
    2792:	789b      	ldrb	r3, [r3, #2]
    2794:	f04f 022c 	mov.w	r2, #44	; 0x2c
    2798:	fb02 f203 	mul.w	r2, r2, r3
    279c:	4b3a      	ldr	r3, [pc, #232]	; (2888 <CoEnterMutexSection+0x18c>)
    279e:	18d3      	adds	r3, r2, r3
    27a0:	617b      	str	r3, [r7, #20]
    27a2:	697b      	ldr	r3, [r7, #20]
    27a4:	791a      	ldrb	r2, [r3, #4]
    27a6:	693b      	ldr	r3, [r7, #16]
    27a8:	791b      	ldrb	r3, [r3, #4]
    27aa:	429a      	cmp	r2, r3
    27ac:	d92b      	bls.n	2806 <CoEnterMutexSection+0x10a>
    27ae:	693b      	ldr	r3, [r7, #16]
    27b0:	791a      	ldrb	r2, [r3, #4]
    27b2:	697b      	ldr	r3, [r7, #20]
    27b4:	711a      	strb	r2, [r3, #4]
    27b6:	693b      	ldr	r3, [r7, #16]
    27b8:	799a      	ldrb	r2, [r3, #6]
    27ba:	68fb      	ldr	r3, [r7, #12]
    27bc:	70da      	strb	r2, [r3, #3]
    27be:	697b      	ldr	r3, [r7, #20]
    27c0:	795b      	ldrb	r3, [r3, #5]
    27c2:	2b00      	cmp	r3, #0
    27c4:	d106      	bne.n	27d4 <CoEnterMutexSection+0xd8>
    27c6:	6978      	ldr	r0, [r7, #20]
    27c8:	f7fe fb4c 	bl	e64 <RemoveFromTCBRdyList>
    27cc:	6978      	ldr	r0, [r7, #20]
    27ce:	f7fe fac5 	bl	d5c <InsertToTCBRdyList>
    27d2:	e018      	b.n	2806 <CoEnterMutexSection+0x10a>
    27d4:	697b      	ldr	r3, [r7, #20]
    27d6:	7a1b      	ldrb	r3, [r3, #8]
    27d8:	2bff      	cmp	r3, #255	; 0xff
    27da:	d014      	beq.n	2806 <CoEnterMutexSection+0x10a>
    27dc:	697b      	ldr	r3, [r7, #20]
    27de:	7a1b      	ldrb	r3, [r3, #8]
    27e0:	ea4f 1203 	mov.w	r2, r3, lsl #4
    27e4:	4b29      	ldr	r3, [pc, #164]	; (288c <CoEnterMutexSection+0x190>)
    27e6:	18d3      	adds	r3, r2, r3
    27e8:	60bb      	str	r3, [r7, #8]
    27ea:	68bb      	ldr	r3, [r7, #8]
    27ec:	795b      	ldrb	r3, [r3, #5]
    27ee:	f023 030f 	bic.w	r3, r3, #15
    27f2:	b2db      	uxtb	r3, r3
    27f4:	2b20      	cmp	r3, #32
    27f6:	d106      	bne.n	2806 <CoEnterMutexSection+0x10a>
    27f8:	6978      	ldr	r0, [r7, #20]
    27fa:	f7ff fd11 	bl	2220 <RemoveEventWaittingList>
    27fe:	68b8      	ldr	r0, [r7, #8]
    2800:	6979      	ldr	r1, [r7, #20]
    2802:	f7ff fbf3 	bl	1fec <EventTaskToWait>
    2806:	693b      	ldr	r3, [r7, #16]
    2808:	f04f 0202 	mov.w	r2, #2
    280c:	715a      	strb	r2, [r3, #5]
    280e:	4b20      	ldr	r3, [pc, #128]	; (2890 <CoEnterMutexSection+0x194>)
    2810:	f04f 0201 	mov.w	r2, #1
    2814:	701a      	strb	r2, [r3, #0]
    2816:	693b      	ldr	r3, [r7, #16]
    2818:	f04f 0200 	mov.w	r2, #0
    281c:	625a      	str	r2, [r3, #36]	; 0x24
    281e:	693b      	ldr	r3, [r7, #16]
    2820:	f04f 0200 	mov.w	r2, #0
    2824:	629a      	str	r2, [r3, #40]	; 0x28
    2826:	68fb      	ldr	r3, [r7, #12]
    2828:	685b      	ldr	r3, [r3, #4]
    282a:	617b      	str	r3, [r7, #20]
    282c:	697b      	ldr	r3, [r7, #20]
    282e:	2b00      	cmp	r3, #0
    2830:	d107      	bne.n	2842 <CoEnterMutexSection+0x146>
    2832:	68fb      	ldr	r3, [r7, #12]
    2834:	693a      	ldr	r2, [r7, #16]
    2836:	605a      	str	r2, [r3, #4]
    2838:	e012      	b.n	2860 <CoEnterMutexSection+0x164>
    283a:	697b      	ldr	r3, [r7, #20]
    283c:	6a5b      	ldr	r3, [r3, #36]	; 0x24
    283e:	617b      	str	r3, [r7, #20]
    2840:	e000      	b.n	2844 <CoEnterMutexSection+0x148>
    2842:	bf00      	nop
    2844:	697b      	ldr	r3, [r7, #20]
    2846:	6a5b      	ldr	r3, [r3, #36]	; 0x24
    2848:	2b00      	cmp	r3, #0
    284a:	d1f6      	bne.n	283a <CoEnterMutexSection+0x13e>
    284c:	697b      	ldr	r3, [r7, #20]
    284e:	693a      	ldr	r2, [r7, #16]
    2850:	625a      	str	r2, [r3, #36]	; 0x24
    2852:	693b      	ldr	r3, [r7, #16]
    2854:	697a      	ldr	r2, [r7, #20]
    2856:	629a      	str	r2, [r3, #40]	; 0x28
    2858:	693b      	ldr	r3, [r7, #16]
    285a:	f04f 0200 	mov.w	r2, #0
    285e:	625a      	str	r2, [r3, #36]	; 0x24
    2860:	f7fd fcd2 	bl	208 <OsSchedUnlock>
    2864:	f04f 0300 	mov.w	r3, #0
    2868:	4618      	mov	r0, r3
    286a:	f107 0718 	add.w	r7, r7, #24
    286e:	46bd      	mov	sp, r7
    2870:	bd80      	pop	{r7, pc}
    2872:	bf00      	nop
    2874:	10000234 	.word	0x10000234
    2878:	10000235 	.word	0x10000235
    287c:	10000994 	.word	0x10000994
    2880:	10000608 	.word	0x10000608
    2884:	10000998 	.word	0x10000998
    2888:	10000490 	.word	0x10000490
    288c:	10000850 	.word	0x10000850
    2890:	10000236 	.word	0x10000236

00002894 <CoLeaveMutexSection>:
    2894:	b580      	push	{r7, lr}
    2896:	b086      	sub	sp, #24
    2898:	af00      	add	r7, sp, #0
    289a:	4603      	mov	r3, r0
    289c:	71fb      	strb	r3, [r7, #7]
    289e:	4b4b      	ldr	r3, [pc, #300]	; (29cc <CoLeaveMutexSection+0x138>)
    28a0:	781b      	ldrb	r3, [r3, #0]
    28a2:	b2db      	uxtb	r3, r3
    28a4:	2b00      	cmp	r3, #0
    28a6:	d002      	beq.n	28ae <CoLeaveMutexSection+0x1a>
    28a8:	f04f 0303 	mov.w	r3, #3
    28ac:	e088      	b.n	29c0 <CoLeaveMutexSection+0x12c>
    28ae:	4b48      	ldr	r3, [pc, #288]	; (29d0 <CoLeaveMutexSection+0x13c>)
    28b0:	781b      	ldrb	r3, [r3, #0]
    28b2:	79fa      	ldrb	r2, [r7, #7]
    28b4:	429a      	cmp	r2, r3
    28b6:	d302      	bcc.n	28be <CoLeaveMutexSection+0x2a>
    28b8:	f04f 0301 	mov.w	r3, #1
    28bc:	e080      	b.n	29c0 <CoLeaveMutexSection+0x12c>
    28be:	4b45      	ldr	r3, [pc, #276]	; (29d4 <CoLeaveMutexSection+0x140>)
    28c0:	781b      	ldrb	r3, [r3, #0]
    28c2:	b2db      	uxtb	r3, r3
    28c4:	f103 0301 	add.w	r3, r3, #1
    28c8:	b2da      	uxtb	r2, r3
    28ca:	4b42      	ldr	r3, [pc, #264]	; (29d4 <CoLeaveMutexSection+0x140>)
    28cc:	701a      	strb	r2, [r3, #0]
    28ce:	79fb      	ldrb	r3, [r7, #7]
    28d0:	ea4f 02c3 	mov.w	r2, r3, lsl #3
    28d4:	4b40      	ldr	r3, [pc, #256]	; (29d8 <CoLeaveMutexSection+0x144>)
    28d6:	18d3      	adds	r3, r2, r3
    28d8:	60fb      	str	r3, [r7, #12]
    28da:	68fb      	ldr	r3, [r7, #12]
    28dc:	789b      	ldrb	r3, [r3, #2]
    28de:	f04f 022c 	mov.w	r2, #44	; 0x2c
    28e2:	fb02 f203 	mul.w	r2, r2, r3
    28e6:	4b3d      	ldr	r3, [pc, #244]	; (29dc <CoLeaveMutexSection+0x148>)
    28e8:	18d3      	adds	r3, r2, r3
    28ea:	617b      	str	r3, [r7, #20]
    28ec:	697b      	ldr	r3, [r7, #20]
    28ee:	f04f 02ff 	mov.w	r2, #255	; 0xff
    28f2:	71da      	strb	r2, [r3, #7]
    28f4:	68fb      	ldr	r3, [r7, #12]
    28f6:	685b      	ldr	r3, [r3, #4]
    28f8:	2b00      	cmp	r3, #0
    28fa:	d10a      	bne.n	2912 <CoLeaveMutexSection+0x7e>
    28fc:	68fb      	ldr	r3, [r7, #12]
    28fe:	f04f 0200 	mov.w	r2, #0
    2902:	705a      	strb	r2, [r3, #1]
    2904:	68fb      	ldr	r3, [r7, #12]
    2906:	f04f 02ff 	mov.w	r2, #255	; 0xff
    290a:	709a      	strb	r2, [r3, #2]
    290c:	f7fd fc7c 	bl	208 <OsSchedUnlock>
    2910:	e054      	b.n	29bc <CoLeaveMutexSection+0x128>
    2912:	68fb      	ldr	r3, [r7, #12]
    2914:	789b      	ldrb	r3, [r3, #2]
    2916:	72fb      	strb	r3, [r7, #11]
    2918:	68fb      	ldr	r3, [r7, #12]
    291a:	78db      	ldrb	r3, [r3, #3]
    291c:	7afa      	ldrb	r2, [r7, #11]
    291e:	429a      	cmp	r2, r3
    2920:	d119      	bne.n	2956 <CoLeaveMutexSection+0xc2>
    2922:	68fb      	ldr	r3, [r7, #12]
    2924:	685b      	ldr	r3, [r3, #4]
    2926:	617b      	str	r3, [r7, #20]
    2928:	697b      	ldr	r3, [r7, #20]
    292a:	791b      	ldrb	r3, [r3, #4]
    292c:	74fb      	strb	r3, [r7, #19]
    292e:	e00e      	b.n	294e <CoLeaveMutexSection+0xba>
    2930:	697b      	ldr	r3, [r7, #20]
    2932:	791b      	ldrb	r3, [r3, #4]
    2934:	7cfa      	ldrb	r2, [r7, #19]
    2936:	429a      	cmp	r2, r3
    2938:	d906      	bls.n	2948 <CoLeaveMutexSection+0xb4>
    293a:	697b      	ldr	r3, [r7, #20]
    293c:	791b      	ldrb	r3, [r3, #4]
    293e:	74fb      	strb	r3, [r7, #19]
    2940:	697b      	ldr	r3, [r7, #20]
    2942:	799a      	ldrb	r2, [r3, #6]
    2944:	68fb      	ldr	r3, [r7, #12]
    2946:	70da      	strb	r2, [r3, #3]
    2948:	697b      	ldr	r3, [r7, #20]
    294a:	6a5b      	ldr	r3, [r3, #36]	; 0x24
    294c:	617b      	str	r3, [r7, #20]
    294e:	697b      	ldr	r3, [r7, #20]
    2950:	2b00      	cmp	r3, #0
    2952:	d1ed      	bne.n	2930 <CoLeaveMutexSection+0x9c>
    2954:	e008      	b.n	2968 <CoLeaveMutexSection+0xd4>
    2956:	7afb      	ldrb	r3, [r7, #11]
    2958:	4a20      	ldr	r2, [pc, #128]	; (29dc <CoLeaveMutexSection+0x148>)
    295a:	f04f 012c 	mov.w	r1, #44	; 0x2c
    295e:	fb01 f303 	mul.w	r3, r1, r3
    2962:	18d3      	adds	r3, r2, r3
    2964:	791b      	ldrb	r3, [r3, #4]
    2966:	74fb      	strb	r3, [r7, #19]
    2968:	68fb      	ldr	r3, [r7, #12]
    296a:	f04f 02ff 	mov.w	r2, #255	; 0xff
    296e:	709a      	strb	r2, [r3, #2]
    2970:	68fb      	ldr	r3, [r7, #12]
    2972:	781b      	ldrb	r3, [r3, #0]
    2974:	7afa      	ldrb	r2, [r7, #11]
    2976:	4610      	mov	r0, r2
    2978:	4619      	mov	r1, r3
    297a:	f7fe fabd 	bl	ef8 <CoSetPriority>
    297e:	68fb      	ldr	r3, [r7, #12]
    2980:	685b      	ldr	r3, [r3, #4]
    2982:	617b      	str	r3, [r7, #20]
    2984:	697b      	ldr	r3, [r7, #20]
    2986:	6a5a      	ldr	r2, [r3, #36]	; 0x24
    2988:	68fb      	ldr	r3, [r7, #12]
    298a:	605a      	str	r2, [r3, #4]
    298c:	697b      	ldr	r3, [r7, #20]
    298e:	791a      	ldrb	r2, [r3, #4]
    2990:	68fb      	ldr	r3, [r7, #12]
    2992:	701a      	strb	r2, [r3, #0]
    2994:	697b      	ldr	r3, [r7, #20]
    2996:	799a      	ldrb	r2, [r3, #6]
    2998:	68fb      	ldr	r3, [r7, #12]
    299a:	709a      	strb	r2, [r3, #2]
    299c:	697b      	ldr	r3, [r7, #20]
    299e:	7cfa      	ldrb	r2, [r7, #19]
    29a0:	711a      	strb	r2, [r3, #4]
    29a2:	697b      	ldr	r3, [r7, #20]
    29a4:	f04f 0200 	mov.w	r2, #0
    29a8:	625a      	str	r2, [r3, #36]	; 0x24
    29aa:	697b      	ldr	r3, [r7, #20]
    29ac:	f04f 0200 	mov.w	r2, #0
    29b0:	629a      	str	r2, [r3, #40]	; 0x28
    29b2:	6978      	ldr	r0, [r7, #20]
    29b4:	f7fe f9d2 	bl	d5c <InsertToTCBRdyList>
    29b8:	f7fd fc26 	bl	208 <OsSchedUnlock>
    29bc:	f04f 0300 	mov.w	r3, #0
    29c0:	4618      	mov	r0, r3
    29c2:	f107 0718 	add.w	r7, r7, #24
    29c6:	46bd      	mov	sp, r7
    29c8:	bd80      	pop	{r7, pc}
    29ca:	bf00      	nop
    29cc:	10000234 	.word	0x10000234
    29d0:	10000994 	.word	0x10000994
    29d4:	10000235 	.word	0x10000235
    29d8:	10000998 	.word	0x10000998
    29dc:	10000490 	.word	0x10000490

000029e0 <RemoveMutexList>:
    29e0:	b580      	push	{r7, lr}
    29e2:	b086      	sub	sp, #24
    29e4:	af00      	add	r7, sp, #0
    29e6:	6078      	str	r0, [r7, #4]
    29e8:	687b      	ldr	r3, [r7, #4]
    29ea:	79db      	ldrb	r3, [r3, #7]
    29ec:	ea4f 02c3 	mov.w	r2, r3, lsl #3
    29f0:	4b3c      	ldr	r3, [pc, #240]	; (2ae4 <RemoveMutexList+0x104>)
    29f2:	18d3      	adds	r3, r2, r3
    29f4:	613b      	str	r3, [r7, #16]
    29f6:	687b      	ldr	r3, [r7, #4]
    29f8:	6a5b      	ldr	r3, [r3, #36]	; 0x24
    29fa:	2b00      	cmp	r3, #0
    29fc:	d108      	bne.n	2a10 <RemoveMutexList+0x30>
    29fe:	687b      	ldr	r3, [r7, #4]
    2a00:	6a9b      	ldr	r3, [r3, #40]	; 0x28
    2a02:	2b00      	cmp	r3, #0
    2a04:	d104      	bne.n	2a10 <RemoveMutexList+0x30>
    2a06:	693b      	ldr	r3, [r7, #16]
    2a08:	f04f 0200 	mov.w	r2, #0
    2a0c:	605a      	str	r2, [r3, #4]
    2a0e:	e02d      	b.n	2a6c <RemoveMutexList+0x8c>
    2a10:	687b      	ldr	r3, [r7, #4]
    2a12:	6a5b      	ldr	r3, [r3, #36]	; 0x24
    2a14:	2b00      	cmp	r3, #0
    2a16:	d109      	bne.n	2a2c <RemoveMutexList+0x4c>
    2a18:	687b      	ldr	r3, [r7, #4]
    2a1a:	6a9b      	ldr	r3, [r3, #40]	; 0x28
    2a1c:	f04f 0200 	mov.w	r2, #0
    2a20:	625a      	str	r2, [r3, #36]	; 0x24
    2a22:	687b      	ldr	r3, [r7, #4]
    2a24:	f04f 0200 	mov.w	r2, #0
    2a28:	629a      	str	r2, [r3, #40]	; 0x28
    2a2a:	e01f      	b.n	2a6c <RemoveMutexList+0x8c>
    2a2c:	687b      	ldr	r3, [r7, #4]
    2a2e:	6a9b      	ldr	r3, [r3, #40]	; 0x28
    2a30:	2b00      	cmp	r3, #0
    2a32:	d109      	bne.n	2a48 <RemoveMutexList+0x68>
    2a34:	687b      	ldr	r3, [r7, #4]
    2a36:	6a5b      	ldr	r3, [r3, #36]	; 0x24
    2a38:	f04f 0200 	mov.w	r2, #0
    2a3c:	629a      	str	r2, [r3, #40]	; 0x28
    2a3e:	687b      	ldr	r3, [r7, #4]
    2a40:	f04f 0200 	mov.w	r2, #0
    2a44:	625a      	str	r2, [r3, #36]	; 0x24
    2a46:	e011      	b.n	2a6c <RemoveMutexList+0x8c>
    2a48:	687b      	ldr	r3, [r7, #4]
    2a4a:	6a5b      	ldr	r3, [r3, #36]	; 0x24
    2a4c:	687a      	ldr	r2, [r7, #4]
    2a4e:	6a92      	ldr	r2, [r2, #40]	; 0x28
    2a50:	629a      	str	r2, [r3, #40]	; 0x28
    2a52:	687b      	ldr	r3, [r7, #4]
    2a54:	6a9b      	ldr	r3, [r3, #40]	; 0x28
    2a56:	687a      	ldr	r2, [r7, #4]
    2a58:	6a52      	ldr	r2, [r2, #36]	; 0x24
    2a5a:	625a      	str	r2, [r3, #36]	; 0x24
    2a5c:	687b      	ldr	r3, [r7, #4]
    2a5e:	f04f 0200 	mov.w	r2, #0
    2a62:	629a      	str	r2, [r3, #40]	; 0x28
    2a64:	687b      	ldr	r3, [r7, #4]
    2a66:	f04f 0200 	mov.w	r2, #0
    2a6a:	625a      	str	r2, [r3, #36]	; 0x24
    2a6c:	687b      	ldr	r3, [r7, #4]
    2a6e:	f04f 02ff 	mov.w	r2, #255	; 0xff
    2a72:	71da      	strb	r2, [r3, #7]
    2a74:	693b      	ldr	r3, [r7, #16]
    2a76:	78da      	ldrb	r2, [r3, #3]
    2a78:	687b      	ldr	r3, [r7, #4]
    2a7a:	799b      	ldrb	r3, [r3, #6]
    2a7c:	429a      	cmp	r2, r3
    2a7e:	d12c      	bne.n	2ada <RemoveMutexList+0xfa>
    2a80:	693b      	ldr	r3, [r7, #16]
    2a82:	685b      	ldr	r3, [r3, #4]
    2a84:	607b      	str	r3, [r7, #4]
    2a86:	693b      	ldr	r3, [r7, #16]
    2a88:	781b      	ldrb	r3, [r3, #0]
    2a8a:	75fb      	strb	r3, [r7, #23]
    2a8c:	693b      	ldr	r3, [r7, #16]
    2a8e:	789a      	ldrb	r2, [r3, #2]
    2a90:	693b      	ldr	r3, [r7, #16]
    2a92:	70da      	strb	r2, [r3, #3]
    2a94:	e00e      	b.n	2ab4 <RemoveMutexList+0xd4>
    2a96:	687b      	ldr	r3, [r7, #4]
    2a98:	791b      	ldrb	r3, [r3, #4]
    2a9a:	7dfa      	ldrb	r2, [r7, #23]
    2a9c:	429a      	cmp	r2, r3
    2a9e:	d906      	bls.n	2aae <RemoveMutexList+0xce>
    2aa0:	687b      	ldr	r3, [r7, #4]
    2aa2:	791b      	ldrb	r3, [r3, #4]
    2aa4:	75fb      	strb	r3, [r7, #23]
    2aa6:	687b      	ldr	r3, [r7, #4]
    2aa8:	799a      	ldrb	r2, [r3, #6]
    2aaa:	693b      	ldr	r3, [r7, #16]
    2aac:	70da      	strb	r2, [r3, #3]
    2aae:	687b      	ldr	r3, [r7, #4]
    2ab0:	6a5b      	ldr	r3, [r3, #36]	; 0x24
    2ab2:	607b      	str	r3, [r7, #4]
    2ab4:	687b      	ldr	r3, [r7, #4]
    2ab6:	2b00      	cmp	r3, #0
    2ab8:	d1ed      	bne.n	2a96 <RemoveMutexList+0xb6>
    2aba:	693b      	ldr	r3, [r7, #16]
    2abc:	789b      	ldrb	r3, [r3, #2]
    2abe:	73fb      	strb	r3, [r7, #15]
    2ac0:	693b      	ldr	r3, [r7, #16]
    2ac2:	f04f 02ff 	mov.w	r2, #255	; 0xff
    2ac6:	709a      	strb	r2, [r3, #2]
    2ac8:	7bfa      	ldrb	r2, [r7, #15]
    2aca:	7dfb      	ldrb	r3, [r7, #23]
    2acc:	4610      	mov	r0, r2
    2ace:	4619      	mov	r1, r3
    2ad0:	f7fe fa12 	bl	ef8 <CoSetPriority>
    2ad4:	693b      	ldr	r3, [r7, #16]
    2ad6:	7bfa      	ldrb	r2, [r7, #15]
    2ad8:	709a      	strb	r2, [r3, #2]
    2ada:	f107 0718 	add.w	r7, r7, #24
    2ade:	46bd      	mov	sp, r7
    2ae0:	bd80      	pop	{r7, pc}
    2ae2:	bf00      	nop
    2ae4:	10000998 	.word	0x10000998

00002ae8 <CoCreateFlag>:
    2ae8:	b580      	push	{r7, lr}
    2aea:	b084      	sub	sp, #16
    2aec:	af00      	add	r7, sp, #0
    2aee:	4602      	mov	r2, r0
    2af0:	460b      	mov	r3, r1
    2af2:	71fa      	strb	r2, [r7, #7]
    2af4:	71bb      	strb	r3, [r7, #6]
    2af6:	4b23      	ldr	r3, [pc, #140]	; (2b84 <CoCreateFlag+0x9c>)
    2af8:	781b      	ldrb	r3, [r3, #0]
    2afa:	b2db      	uxtb	r3, r3
    2afc:	f103 0301 	add.w	r3, r3, #1
    2b00:	b2da      	uxtb	r2, r3
    2b02:	4b20      	ldr	r3, [pc, #128]	; (2b84 <CoCreateFlag+0x9c>)
    2b04:	701a      	strb	r2, [r3, #0]
    2b06:	f04f 0300 	mov.w	r3, #0
    2b0a:	73fb      	strb	r3, [r7, #15]
    2b0c:	e02e      	b.n	2b6c <CoCreateFlag+0x84>
    2b0e:	4b1e      	ldr	r3, [pc, #120]	; (2b88 <CoCreateFlag+0xa0>)
    2b10:	689a      	ldr	r2, [r3, #8]
    2b12:	7bfb      	ldrb	r3, [r7, #15]
    2b14:	f04f 0101 	mov.w	r1, #1
    2b18:	fa01 f303 	lsl.w	r3, r1, r3
    2b1c:	ea02 0303 	and.w	r3, r2, r3
    2b20:	2b00      	cmp	r3, #0
    2b22:	d11f      	bne.n	2b64 <CoCreateFlag+0x7c>
    2b24:	4b18      	ldr	r3, [pc, #96]	; (2b88 <CoCreateFlag+0xa0>)
    2b26:	689a      	ldr	r2, [r3, #8]
    2b28:	7bfb      	ldrb	r3, [r7, #15]
    2b2a:	f04f 0101 	mov.w	r1, #1
    2b2e:	fa01 f303 	lsl.w	r3, r1, r3
    2b32:	431a      	orrs	r2, r3
    2b34:	4b14      	ldr	r3, [pc, #80]	; (2b88 <CoCreateFlag+0xa0>)
    2b36:	609a      	str	r2, [r3, #8]
    2b38:	4b13      	ldr	r3, [pc, #76]	; (2b88 <CoCreateFlag+0xa0>)
    2b3a:	681a      	ldr	r2, [r3, #0]
    2b3c:	79b9      	ldrb	r1, [r7, #6]
    2b3e:	7bfb      	ldrb	r3, [r7, #15]
    2b40:	fa01 f303 	lsl.w	r3, r1, r3
    2b44:	431a      	orrs	r2, r3
    2b46:	4b10      	ldr	r3, [pc, #64]	; (2b88 <CoCreateFlag+0xa0>)
    2b48:	601a      	str	r2, [r3, #0]
    2b4a:	4b0f      	ldr	r3, [pc, #60]	; (2b88 <CoCreateFlag+0xa0>)
    2b4c:	685a      	ldr	r2, [r3, #4]
    2b4e:	79f9      	ldrb	r1, [r7, #7]
    2b50:	7bfb      	ldrb	r3, [r7, #15]
    2b52:	fa01 f303 	lsl.w	r3, r1, r3
    2b56:	431a      	orrs	r2, r3
    2b58:	4b0b      	ldr	r3, [pc, #44]	; (2b88 <CoCreateFlag+0xa0>)
    2b5a:	605a      	str	r2, [r3, #4]
    2b5c:	f7fd fb54 	bl	208 <OsSchedUnlock>
    2b60:	7bfb      	ldrb	r3, [r7, #15]
    2b62:	e00a      	b.n	2b7a <CoCreateFlag+0x92>
    2b64:	7bfb      	ldrb	r3, [r7, #15]
    2b66:	f103 0301 	add.w	r3, r3, #1
    2b6a:	73fb      	strb	r3, [r7, #15]
    2b6c:	7bfb      	ldrb	r3, [r7, #15]
    2b6e:	2b1f      	cmp	r3, #31
    2b70:	d9cd      	bls.n	2b0e <CoCreateFlag+0x26>
    2b72:	f7fd fb49 	bl	208 <OsSchedUnlock>
    2b76:	f04f 03ff 	mov.w	r3, #255	; 0xff
    2b7a:	4618      	mov	r0, r3
    2b7c:	f107 0710 	add.w	r7, r7, #16
    2b80:	46bd      	mov	sp, r7
    2b82:	bd80      	pop	{r7, pc}
    2b84:	10000235 	.word	0x10000235
    2b88:	100009e8 	.word	0x100009e8

00002b8c <CoWaitForSingleFlag>:
    2b8c:	b580      	push	{r7, lr}
    2b8e:	b08a      	sub	sp, #40	; 0x28
    2b90:	af00      	add	r7, sp, #0
    2b92:	4603      	mov	r3, r0
    2b94:	6039      	str	r1, [r7, #0]
    2b96:	71fb      	strb	r3, [r7, #7]
    2b98:	4b64      	ldr	r3, [pc, #400]	; (2d2c <CoWaitForSingleFlag+0x1a0>)
    2b9a:	781b      	ldrb	r3, [r3, #0]
    2b9c:	b2db      	uxtb	r3, r3
    2b9e:	2b00      	cmp	r3, #0
    2ba0:	d002      	beq.n	2ba8 <CoWaitForSingleFlag+0x1c>
    2ba2:	f04f 0303 	mov.w	r3, #3
    2ba6:	e0bb      	b.n	2d20 <CoWaitForSingleFlag+0x194>
    2ba8:	4b61      	ldr	r3, [pc, #388]	; (2d30 <CoWaitForSingleFlag+0x1a4>)
    2baa:	781b      	ldrb	r3, [r3, #0]
    2bac:	b2db      	uxtb	r3, r3
    2bae:	2b00      	cmp	r3, #0
    2bb0:	d002      	beq.n	2bb8 <CoWaitForSingleFlag+0x2c>
    2bb2:	f04f 0315 	mov.w	r3, #21
    2bb6:	e0b3      	b.n	2d20 <CoWaitForSingleFlag+0x194>
    2bb8:	79fb      	ldrb	r3, [r7, #7]
    2bba:	2b1f      	cmp	r3, #31
    2bbc:	d902      	bls.n	2bc4 <CoWaitForSingleFlag+0x38>
    2bbe:	f04f 0301 	mov.w	r3, #1
    2bc2:	e0ad      	b.n	2d20 <CoWaitForSingleFlag+0x194>
    2bc4:	4b5b      	ldr	r3, [pc, #364]	; (2d34 <CoWaitForSingleFlag+0x1a8>)
    2bc6:	689a      	ldr	r2, [r3, #8]
    2bc8:	79fb      	ldrb	r3, [r7, #7]
    2bca:	f04f 0101 	mov.w	r1, #1
    2bce:	fa01 f303 	lsl.w	r3, r1, r3
    2bd2:	ea02 0303 	and.w	r3, r2, r3
    2bd6:	2b00      	cmp	r3, #0
    2bd8:	d102      	bne.n	2be0 <CoWaitForSingleFlag+0x54>
    2bda:	f04f 0301 	mov.w	r3, #1
    2bde:	e09f      	b.n	2d20 <CoWaitForSingleFlag+0x194>
    2be0:	4b53      	ldr	r3, [pc, #332]	; (2d30 <CoWaitForSingleFlag+0x1a4>)
    2be2:	781b      	ldrb	r3, [r3, #0]
    2be4:	b2db      	uxtb	r3, r3
    2be6:	f103 0301 	add.w	r3, r3, #1
    2bea:	b2da      	uxtb	r2, r3
    2bec:	4b50      	ldr	r3, [pc, #320]	; (2d30 <CoWaitForSingleFlag+0x1a4>)
    2bee:	701a      	strb	r2, [r3, #0]
    2bf0:	4b50      	ldr	r3, [pc, #320]	; (2d34 <CoWaitForSingleFlag+0x1a8>)
    2bf2:	627b      	str	r3, [r7, #36]	; 0x24
    2bf4:	6a7b      	ldr	r3, [r7, #36]	; 0x24
    2bf6:	681a      	ldr	r2, [r3, #0]
    2bf8:	79fb      	ldrb	r3, [r7, #7]
    2bfa:	f04f 0101 	mov.w	r1, #1
    2bfe:	fa01 f303 	lsl.w	r3, r1, r3
    2c02:	ea02 0303 	and.w	r3, r2, r3
    2c06:	2b00      	cmp	r3, #0
    2c08:	d012      	beq.n	2c30 <CoWaitForSingleFlag+0xa4>
    2c0a:	6a7b      	ldr	r3, [r7, #36]	; 0x24
    2c0c:	681a      	ldr	r2, [r3, #0]
    2c0e:	6a7b      	ldr	r3, [r7, #36]	; 0x24
    2c10:	6859      	ldr	r1, [r3, #4]
    2c12:	79fb      	ldrb	r3, [r7, #7]
    2c14:	f04f 0001 	mov.w	r0, #1
    2c18:	fa00 f303 	lsl.w	r3, r0, r3
    2c1c:	ea01 0303 	and.w	r3, r1, r3
    2c20:	ea6f 0303 	mvn.w	r3, r3
    2c24:	401a      	ands	r2, r3
    2c26:	6a7b      	ldr	r3, [r7, #36]	; 0x24
    2c28:	601a      	str	r2, [r3, #0]
    2c2a:	f7fd faed 	bl	208 <OsSchedUnlock>
    2c2e:	e075      	b.n	2d1c <CoWaitForSingleFlag+0x190>
    2c30:	4b41      	ldr	r3, [pc, #260]	; (2d38 <CoWaitForSingleFlag+0x1ac>)
    2c32:	681b      	ldr	r3, [r3, #0]
    2c34:	623b      	str	r3, [r7, #32]
    2c36:	683b      	ldr	r3, [r7, #0]
    2c38:	2b00      	cmp	r3, #0
    2c3a:	d136      	bne.n	2caa <CoWaitForSingleFlag+0x11e>
    2c3c:	79fb      	ldrb	r3, [r7, #7]
    2c3e:	f04f 0201 	mov.w	r2, #1
    2c42:	fa02 f303 	lsl.w	r3, r2, r3
    2c46:	f107 020c 	add.w	r2, r7, #12
    2c4a:	4610      	mov	r0, r2
    2c4c:	4619      	mov	r1, r3
    2c4e:	f04f 0202 	mov.w	r2, #2
    2c52:	f000 f929 	bl	2ea8 <FlagBlock>
    2c56:	6a3b      	ldr	r3, [r7, #32]
    2c58:	f04f 0202 	mov.w	r2, #2
    2c5c:	715a      	strb	r2, [r3, #5]
    2c5e:	4b37      	ldr	r3, [pc, #220]	; (2d3c <CoWaitForSingleFlag+0x1b0>)
    2c60:	f04f 0201 	mov.w	r2, #1
    2c64:	701a      	strb	r2, [r3, #0]
    2c66:	f7fd facf 	bl	208 <OsSchedUnlock>
    2c6a:	6a3b      	ldr	r3, [r7, #32]
    2c6c:	f04f 0200 	mov.w	r2, #0
    2c70:	61da      	str	r2, [r3, #28]
    2c72:	4b2f      	ldr	r3, [pc, #188]	; (2d30 <CoWaitForSingleFlag+0x1a4>)
    2c74:	781b      	ldrb	r3, [r3, #0]
    2c76:	b2db      	uxtb	r3, r3
    2c78:	f103 0301 	add.w	r3, r3, #1
    2c7c:	b2da      	uxtb	r2, r3
    2c7e:	4b2c      	ldr	r3, [pc, #176]	; (2d30 <CoWaitForSingleFlag+0x1a4>)
    2c80:	701a      	strb	r2, [r3, #0]
    2c82:	6a7b      	ldr	r3, [r7, #36]	; 0x24
    2c84:	681a      	ldr	r2, [r3, #0]
    2c86:	79fb      	ldrb	r3, [r7, #7]
    2c88:	f04f 0101 	mov.w	r1, #1
    2c8c:	fa01 f303 	lsl.w	r3, r1, r3
    2c90:	4619      	mov	r1, r3
    2c92:	6a7b      	ldr	r3, [r7, #36]	; 0x24
    2c94:	685b      	ldr	r3, [r3, #4]
    2c96:	ea01 0303 	and.w	r3, r1, r3
    2c9a:	ea6f 0303 	mvn.w	r3, r3
    2c9e:	401a      	ands	r2, r3
    2ca0:	6a7b      	ldr	r3, [r7, #36]	; 0x24
    2ca2:	601a      	str	r2, [r3, #0]
    2ca4:	f7fd fab0 	bl	208 <OsSchedUnlock>
    2ca8:	e038      	b.n	2d1c <CoWaitForSingleFlag+0x190>
    2caa:	79fb      	ldrb	r3, [r7, #7]
    2cac:	f04f 0201 	mov.w	r2, #1
    2cb0:	fa02 f303 	lsl.w	r3, r2, r3
    2cb4:	f107 020c 	add.w	r2, r7, #12
    2cb8:	4610      	mov	r0, r2
    2cba:	4619      	mov	r1, r3
    2cbc:	f04f 0202 	mov.w	r2, #2
    2cc0:	f000 f8f2 	bl	2ea8 <FlagBlock>
    2cc4:	6a38      	ldr	r0, [r7, #32]
    2cc6:	6839      	ldr	r1, [r7, #0]
    2cc8:	f7fe ff82 	bl	1bd0 <InsertDelayList>
    2ccc:	f7fd fa9c 	bl	208 <OsSchedUnlock>
    2cd0:	6a3b      	ldr	r3, [r7, #32]
    2cd2:	69db      	ldr	r3, [r3, #28]
    2cd4:	2b00      	cmp	r3, #0
    2cd6:	d102      	bne.n	2cde <CoWaitForSingleFlag+0x152>
    2cd8:	f04f 0305 	mov.w	r3, #5
    2cdc:	e020      	b.n	2d20 <CoWaitForSingleFlag+0x194>
    2cde:	6a3b      	ldr	r3, [r7, #32]
    2ce0:	f04f 0200 	mov.w	r2, #0
    2ce4:	61da      	str	r2, [r3, #28]
    2ce6:	4b12      	ldr	r3, [pc, #72]	; (2d30 <CoWaitForSingleFlag+0x1a4>)
    2ce8:	781b      	ldrb	r3, [r3, #0]
    2cea:	b2db      	uxtb	r3, r3
    2cec:	f103 0301 	add.w	r3, r3, #1
    2cf0:	b2da      	uxtb	r2, r3
    2cf2:	4b0f      	ldr	r3, [pc, #60]	; (2d30 <CoWaitForSingleFlag+0x1a4>)
    2cf4:	701a      	strb	r2, [r3, #0]
    2cf6:	6a7b      	ldr	r3, [r7, #36]	; 0x24
    2cf8:	681a      	ldr	r2, [r3, #0]
    2cfa:	79fb      	ldrb	r3, [r7, #7]
    2cfc:	f04f 0101 	mov.w	r1, #1
    2d00:	fa01 f303 	lsl.w	r3, r1, r3
    2d04:	4619      	mov	r1, r3
    2d06:	6a7b      	ldr	r3, [r7, #36]	; 0x24
    2d08:	685b      	ldr	r3, [r3, #4]
    2d0a:	ea01 0303 	and.w	r3, r1, r3
    2d0e:	ea6f 0303 	mvn.w	r3, r3
    2d12:	401a      	ands	r2, r3
    2d14:	6a7b      	ldr	r3, [r7, #36]	; 0x24
    2d16:	601a      	str	r2, [r3, #0]
    2d18:	f7fd fa76 	bl	208 <OsSchedUnlock>
    2d1c:	f04f 0300 	mov.w	r3, #0
    2d20:	4618      	mov	r0, r3
    2d22:	f107 0728 	add.w	r7, r7, #40	; 0x28
    2d26:	46bd      	mov	sp, r7
    2d28:	bd80      	pop	{r7, pc}
    2d2a:	bf00      	nop
    2d2c:	10000234 	.word	0x10000234
    2d30:	10000235 	.word	0x10000235
    2d34:	100009e8 	.word	0x100009e8
    2d38:	10000608 	.word	0x10000608
    2d3c:	10000236 	.word	0x10000236

00002d40 <CoSetFlag>:
    2d40:	b580      	push	{r7, lr}
    2d42:	b084      	sub	sp, #16
    2d44:	af00      	add	r7, sp, #0
    2d46:	4603      	mov	r3, r0
    2d48:	71fb      	strb	r3, [r7, #7]
    2d4a:	4b41      	ldr	r3, [pc, #260]	; (2e50 <CoSetFlag+0x110>)
    2d4c:	60bb      	str	r3, [r7, #8]
    2d4e:	79fb      	ldrb	r3, [r7, #7]
    2d50:	2b1f      	cmp	r3, #31
    2d52:	d902      	bls.n	2d5a <CoSetFlag+0x1a>
    2d54:	f04f 0301 	mov.w	r3, #1
    2d58:	e074      	b.n	2e44 <CoSetFlag+0x104>
    2d5a:	68bb      	ldr	r3, [r7, #8]
    2d5c:	689a      	ldr	r2, [r3, #8]
    2d5e:	79fb      	ldrb	r3, [r7, #7]
    2d60:	f04f 0101 	mov.w	r1, #1
    2d64:	fa01 f303 	lsl.w	r3, r1, r3
    2d68:	ea02 0303 	and.w	r3, r2, r3
    2d6c:	2b00      	cmp	r3, #0
    2d6e:	d102      	bne.n	2d76 <CoSetFlag+0x36>
    2d70:	f04f 0301 	mov.w	r3, #1
    2d74:	e066      	b.n	2e44 <CoSetFlag+0x104>
    2d76:	68bb      	ldr	r3, [r7, #8]
    2d78:	681a      	ldr	r2, [r3, #0]
    2d7a:	79fb      	ldrb	r3, [r7, #7]
    2d7c:	f04f 0101 	mov.w	r1, #1
    2d80:	fa01 f303 	lsl.w	r3, r1, r3
    2d84:	ea02 0303 	and.w	r3, r2, r3
    2d88:	2b00      	cmp	r3, #0
    2d8a:	d002      	beq.n	2d92 <CoSetFlag+0x52>
    2d8c:	f04f 0300 	mov.w	r3, #0
    2d90:	e058      	b.n	2e44 <CoSetFlag+0x104>
    2d92:	68bb      	ldr	r3, [r7, #8]
    2d94:	681a      	ldr	r2, [r3, #0]
    2d96:	79fb      	ldrb	r3, [r7, #7]
    2d98:	f04f 0101 	mov.w	r1, #1
    2d9c:	fa01 f303 	lsl.w	r3, r1, r3
    2da0:	431a      	orrs	r2, r3
    2da2:	68bb      	ldr	r3, [r7, #8]
    2da4:	601a      	str	r2, [r3, #0]
    2da6:	4b2b      	ldr	r3, [pc, #172]	; (2e54 <CoSetFlag+0x114>)
    2da8:	781b      	ldrb	r3, [r3, #0]
    2daa:	b2db      	uxtb	r3, r3
    2dac:	f103 0301 	add.w	r3, r3, #1
    2db0:	b2da      	uxtb	r2, r3
    2db2:	4b28      	ldr	r3, [pc, #160]	; (2e54 <CoSetFlag+0x114>)
    2db4:	701a      	strb	r2, [r3, #0]
    2db6:	68bb      	ldr	r3, [r7, #8]
    2db8:	68db      	ldr	r3, [r3, #12]
    2dba:	60fb      	str	r3, [r7, #12]
    2dbc:	e03b      	b.n	2e36 <CoSetFlag+0xf6>
    2dbe:	68fb      	ldr	r3, [r7, #12]
    2dc0:	7c1b      	ldrb	r3, [r3, #16]
    2dc2:	2b00      	cmp	r3, #0
    2dc4:	d118      	bne.n	2df8 <CoSetFlag+0xb8>
    2dc6:	68fb      	ldr	r3, [r7, #12]
    2dc8:	689a      	ldr	r2, [r3, #8]
    2dca:	68bb      	ldr	r3, [r7, #8]
    2dcc:	681b      	ldr	r3, [r3, #0]
    2dce:	401a      	ands	r2, r3
    2dd0:	68fb      	ldr	r3, [r7, #12]
    2dd2:	689b      	ldr	r3, [r3, #8]
    2dd4:	429a      	cmp	r2, r3
    2dd6:	d127      	bne.n	2e28 <CoSetFlag+0xe8>
    2dd8:	68f8      	ldr	r0, [r7, #12]
    2dda:	f000 f8a5 	bl	2f28 <RemoveFromLink>
    2dde:	60f8      	str	r0, [r7, #12]
    2de0:	68bb      	ldr	r3, [r7, #8]
    2de2:	685a      	ldr	r2, [r3, #4]
    2de4:	79fb      	ldrb	r3, [r7, #7]
    2de6:	f04f 0101 	mov.w	r1, #1
    2dea:	fa01 f303 	lsl.w	r3, r1, r3
    2dee:	ea02 0303 	and.w	r3, r2, r3
    2df2:	2b00      	cmp	r3, #0
    2df4:	d01c      	beq.n	2e30 <CoSetFlag+0xf0>
    2df6:	e021      	b.n	2e3c <CoSetFlag+0xfc>
    2df8:	68fb      	ldr	r3, [r7, #12]
    2dfa:	689a      	ldr	r2, [r3, #8]
    2dfc:	68bb      	ldr	r3, [r7, #8]
    2dfe:	681b      	ldr	r3, [r3, #0]
    2e00:	ea02 0303 	and.w	r3, r2, r3
    2e04:	2b00      	cmp	r3, #0
    2e06:	d00f      	beq.n	2e28 <CoSetFlag+0xe8>
    2e08:	68f8      	ldr	r0, [r7, #12]
    2e0a:	f000 f88d 	bl	2f28 <RemoveFromLink>
    2e0e:	60f8      	str	r0, [r7, #12]
    2e10:	68bb      	ldr	r3, [r7, #8]
    2e12:	685a      	ldr	r2, [r3, #4]
    2e14:	79fb      	ldrb	r3, [r7, #7]
    2e16:	f04f 0101 	mov.w	r1, #1
    2e1a:	fa01 f303 	lsl.w	r3, r1, r3
    2e1e:	ea02 0303 	and.w	r3, r2, r3
    2e22:	2b00      	cmp	r3, #0
    2e24:	d006      	beq.n	2e34 <CoSetFlag+0xf4>
    2e26:	e009      	b.n	2e3c <CoSetFlag+0xfc>
    2e28:	68fb      	ldr	r3, [r7, #12]
    2e2a:	681b      	ldr	r3, [r3, #0]
    2e2c:	60fb      	str	r3, [r7, #12]
    2e2e:	e002      	b.n	2e36 <CoSetFlag+0xf6>
    2e30:	bf00      	nop
    2e32:	e000      	b.n	2e36 <CoSetFlag+0xf6>
    2e34:	bf00      	nop
    2e36:	68fb      	ldr	r3, [r7, #12]
    2e38:	2b00      	cmp	r3, #0
    2e3a:	d1c0      	bne.n	2dbe <CoSetFlag+0x7e>
    2e3c:	f7fd f9e4 	bl	208 <OsSchedUnlock>
    2e40:	f04f 0300 	mov.w	r3, #0
    2e44:	4618      	mov	r0, r3
    2e46:	f107 0710 	add.w	r7, r7, #16
    2e4a:	46bd      	mov	sp, r7
    2e4c:	bd80      	pop	{r7, pc}
    2e4e:	bf00      	nop
    2e50:	100009e8 	.word	0x100009e8
    2e54:	10000235 	.word	0x10000235

00002e58 <isr_SetFlag>:
    2e58:	b580      	push	{r7, lr}
    2e5a:	b082      	sub	sp, #8
    2e5c:	af00      	add	r7, sp, #0
    2e5e:	4603      	mov	r3, r0
    2e60:	71fb      	strb	r3, [r7, #7]
    2e62:	4b10      	ldr	r3, [pc, #64]	; (2ea4 <isr_SetFlag+0x4c>)
    2e64:	781b      	ldrb	r3, [r3, #0]
    2e66:	b2db      	uxtb	r3, r3
    2e68:	2b00      	cmp	r3, #0
    2e6a:	d010      	beq.n	2e8e <isr_SetFlag+0x36>
    2e6c:	79fb      	ldrb	r3, [r7, #7]
    2e6e:	f04f 0003 	mov.w	r0, #3
    2e72:	4619      	mov	r1, r3
    2e74:	f04f 0200 	mov.w	r2, #0
    2e78:	f7fe fcc2 	bl	1800 <InsertInSRQ>
    2e7c:	4603      	mov	r3, r0
    2e7e:	2b00      	cmp	r3, #0
    2e80:	d102      	bne.n	2e88 <isr_SetFlag+0x30>
    2e82:	f04f 0312 	mov.w	r3, #18
    2e86:	e007      	b.n	2e98 <isr_SetFlag+0x40>
    2e88:	f04f 0300 	mov.w	r3, #0
    2e8c:	e004      	b.n	2e98 <isr_SetFlag+0x40>
    2e8e:	79fb      	ldrb	r3, [r7, #7]
    2e90:	4618      	mov	r0, r3
    2e92:	f7ff ff55 	bl	2d40 <CoSetFlag>
    2e96:	4603      	mov	r3, r0
    2e98:	4618      	mov	r0, r3
    2e9a:	f107 0708 	add.w	r7, r7, #8
    2e9e:	46bd      	mov	sp, r7
    2ea0:	bd80      	pop	{r7, pc}
    2ea2:	bf00      	nop
    2ea4:	10000235 	.word	0x10000235

00002ea8 <FlagBlock>:
    2ea8:	b480      	push	{r7}
    2eaa:	b087      	sub	sp, #28
    2eac:	af00      	add	r7, sp, #0
    2eae:	60f8      	str	r0, [r7, #12]
    2eb0:	60b9      	str	r1, [r7, #8]
    2eb2:	4613      	mov	r3, r2
    2eb4:	71fb      	strb	r3, [r7, #7]
    2eb6:	4b1a      	ldr	r3, [pc, #104]	; (2f20 <FlagBlock+0x78>)
    2eb8:	617b      	str	r3, [r7, #20]
    2eba:	4b1a      	ldr	r3, [pc, #104]	; (2f24 <FlagBlock+0x7c>)
    2ebc:	681b      	ldr	r3, [r3, #0]
    2ebe:	68fa      	ldr	r2, [r7, #12]
    2ec0:	61da      	str	r2, [r3, #28]
    2ec2:	4b18      	ldr	r3, [pc, #96]	; (2f24 <FlagBlock+0x7c>)
    2ec4:	681a      	ldr	r2, [r3, #0]
    2ec6:	68fb      	ldr	r3, [r7, #12]
    2ec8:	60da      	str	r2, [r3, #12]
    2eca:	68fb      	ldr	r3, [r7, #12]
    2ecc:	68ba      	ldr	r2, [r7, #8]
    2ece:	609a      	str	r2, [r3, #8]
    2ed0:	68fb      	ldr	r3, [r7, #12]
    2ed2:	79fa      	ldrb	r2, [r7, #7]
    2ed4:	741a      	strb	r2, [r3, #16]
    2ed6:	697b      	ldr	r3, [r7, #20]
    2ed8:	691b      	ldr	r3, [r3, #16]
    2eda:	2b00      	cmp	r3, #0
    2edc:	d10b      	bne.n	2ef6 <FlagBlock+0x4e>
    2ede:	68fb      	ldr	r3, [r7, #12]
    2ee0:	f04f 0200 	mov.w	r2, #0
    2ee4:	601a      	str	r2, [r3, #0]
    2ee6:	68fb      	ldr	r3, [r7, #12]
    2ee8:	f04f 0200 	mov.w	r2, #0
    2eec:	605a      	str	r2, [r3, #4]
    2eee:	697b      	ldr	r3, [r7, #20]
    2ef0:	68fa      	ldr	r2, [r7, #12]
    2ef2:	60da      	str	r2, [r3, #12]
    2ef4:	e00b      	b.n	2f0e <FlagBlock+0x66>
    2ef6:	697b      	ldr	r3, [r7, #20]
    2ef8:	691b      	ldr	r3, [r3, #16]
    2efa:	68fa      	ldr	r2, [r7, #12]
    2efc:	601a      	str	r2, [r3, #0]
    2efe:	697b      	ldr	r3, [r7, #20]
    2f00:	691a      	ldr	r2, [r3, #16]
    2f02:	68fb      	ldr	r3, [r7, #12]
    2f04:	605a      	str	r2, [r3, #4]
    2f06:	68fb      	ldr	r3, [r7, #12]
    2f08:	f04f 0200 	mov.w	r2, #0
    2f0c:	601a      	str	r2, [r3, #0]
    2f0e:	697b      	ldr	r3, [r7, #20]
    2f10:	68fa      	ldr	r2, [r7, #12]
    2f12:	611a      	str	r2, [r3, #16]
    2f14:	f107 071c 	add.w	r7, r7, #28
    2f18:	46bd      	mov	sp, r7
    2f1a:	bc80      	pop	{r7}
    2f1c:	4770      	bx	lr
    2f1e:	bf00      	nop
    2f20:	100009e8 	.word	0x100009e8
    2f24:	10000608 	.word	0x10000608

00002f28 <RemoveFromLink>:
    2f28:	b580      	push	{r7, lr}
    2f2a:	b084      	sub	sp, #16
    2f2c:	af00      	add	r7, sp, #0
    2f2e:	6078      	str	r0, [r7, #4]
    2f30:	6878      	ldr	r0, [r7, #4]
    2f32:	f000 f825 	bl	2f80 <RemoveLinkNode>
    2f36:	687b      	ldr	r3, [r7, #4]
    2f38:	68db      	ldr	r3, [r3, #12]
    2f3a:	60fb      	str	r3, [r7, #12]
    2f3c:	68fb      	ldr	r3, [r7, #12]
    2f3e:	6a1b      	ldr	r3, [r3, #32]
    2f40:	f1b3 3fff 	cmp.w	r3, #4294967295
    2f44:	d002      	beq.n	2f4c <RemoveFromLink+0x24>
    2f46:	68f8      	ldr	r0, [r7, #12]
    2f48:	f7fe febc 	bl	1cc4 <RemoveDelayList>
    2f4c:	68fb      	ldr	r3, [r7, #12]
    2f4e:	f04f 32ff 	mov.w	r2, #4294967295
    2f52:	61da      	str	r2, [r3, #28]
    2f54:	4b09      	ldr	r3, [pc, #36]	; (2f7c <RemoveFromLink+0x54>)
    2f56:	681b      	ldr	r3, [r3, #0]
    2f58:	68fa      	ldr	r2, [r7, #12]
    2f5a:	429a      	cmp	r2, r3
    2f5c:	d104      	bne.n	2f68 <RemoveFromLink+0x40>
    2f5e:	68fb      	ldr	r3, [r7, #12]
    2f60:	f04f 0201 	mov.w	r2, #1
    2f64:	715a      	strb	r2, [r3, #5]
    2f66:	e002      	b.n	2f6e <RemoveFromLink+0x46>
    2f68:	68f8      	ldr	r0, [r7, #12]
    2f6a:	f7fd fef7 	bl	d5c <InsertToTCBRdyList>
    2f6e:	687b      	ldr	r3, [r7, #4]
    2f70:	681b      	ldr	r3, [r3, #0]
    2f72:	4618      	mov	r0, r3
    2f74:	f107 0710 	add.w	r7, r7, #16
    2f78:	46bd      	mov	sp, r7
    2f7a:	bd80      	pop	{r7, pc}
    2f7c:	10000608 	.word	0x10000608

00002f80 <RemoveLinkNode>:
    2f80:	b480      	push	{r7}
    2f82:	b083      	sub	sp, #12
    2f84:	af00      	add	r7, sp, #0
    2f86:	6078      	str	r0, [r7, #4]
    2f88:	687b      	ldr	r3, [r7, #4]
    2f8a:	681b      	ldr	r3, [r3, #0]
    2f8c:	2b00      	cmp	r3, #0
    2f8e:	d10c      	bne.n	2faa <RemoveLinkNode+0x2a>
    2f90:	687b      	ldr	r3, [r7, #4]
    2f92:	685b      	ldr	r3, [r3, #4]
    2f94:	2b00      	cmp	r3, #0
    2f96:	d108      	bne.n	2faa <RemoveLinkNode+0x2a>
    2f98:	4b1c      	ldr	r3, [pc, #112]	; (300c <RemoveLinkNode+0x8c>)
    2f9a:	f04f 0200 	mov.w	r2, #0
    2f9e:	60da      	str	r2, [r3, #12]
    2fa0:	4b1a      	ldr	r3, [pc, #104]	; (300c <RemoveLinkNode+0x8c>)
    2fa2:	f04f 0200 	mov.w	r2, #0
    2fa6:	611a      	str	r2, [r3, #16]
    2fa8:	e025      	b.n	2ff6 <RemoveLinkNode+0x76>
    2faa:	687b      	ldr	r3, [r7, #4]
    2fac:	681b      	ldr	r3, [r3, #0]
    2fae:	2b00      	cmp	r3, #0
    2fb0:	d109      	bne.n	2fc6 <RemoveLinkNode+0x46>
    2fb2:	687b      	ldr	r3, [r7, #4]
    2fb4:	685a      	ldr	r2, [r3, #4]
    2fb6:	4b15      	ldr	r3, [pc, #84]	; (300c <RemoveLinkNode+0x8c>)
    2fb8:	611a      	str	r2, [r3, #16]
    2fba:	687b      	ldr	r3, [r7, #4]
    2fbc:	685b      	ldr	r3, [r3, #4]
    2fbe:	f04f 0200 	mov.w	r2, #0
    2fc2:	601a      	str	r2, [r3, #0]
    2fc4:	e017      	b.n	2ff6 <RemoveLinkNode+0x76>
    2fc6:	687b      	ldr	r3, [r7, #4]
    2fc8:	685b      	ldr	r3, [r3, #4]
    2fca:	2b00      	cmp	r3, #0
    2fcc:	d109      	bne.n	2fe2 <RemoveLinkNode+0x62>
    2fce:	687b      	ldr	r3, [r7, #4]
    2fd0:	681a      	ldr	r2, [r3, #0]
    2fd2:	4b0e      	ldr	r3, [pc, #56]	; (300c <RemoveLinkNode+0x8c>)
    2fd4:	60da      	str	r2, [r3, #12]
    2fd6:	687b      	ldr	r3, [r7, #4]
    2fd8:	681b      	ldr	r3, [r3, #0]
    2fda:	f04f 0200 	mov.w	r2, #0
    2fde:	605a      	str	r2, [r3, #4]
    2fe0:	e009      	b.n	2ff6 <RemoveLinkNode+0x76>
    2fe2:	687b      	ldr	r3, [r7, #4]
    2fe4:	681b      	ldr	r3, [r3, #0]
    2fe6:	687a      	ldr	r2, [r7, #4]
    2fe8:	6852      	ldr	r2, [r2, #4]
    2fea:	605a      	str	r2, [r3, #4]
    2fec:	687b      	ldr	r3, [r7, #4]
    2fee:	685b      	ldr	r3, [r3, #4]
    2ff0:	687a      	ldr	r2, [r7, #4]
    2ff2:	6812      	ldr	r2, [r2, #0]
    2ff4:	601a      	str	r2, [r3, #0]
    2ff6:	687b      	ldr	r3, [r7, #4]
    2ff8:	68db      	ldr	r3, [r3, #12]
    2ffa:	f04f 0200 	mov.w	r2, #0
    2ffe:	61da      	str	r2, [r3, #28]
    3000:	f107 070c 	add.w	r7, r7, #12
    3004:	46bd      	mov	sp, r7
    3006:	bc80      	pop	{r7}
    3008:	4770      	bx	lr
    300a:	bf00      	nop
    300c:	100009e8 	.word	0x100009e8

00003010 <drv_tcs_load>:
    3010:	b480      	push	{r7}
    3012:	af00      	add	r7, sp, #0
    3014:	4b2b      	ldr	r3, [pc, #172]	; (30c4 <drv_tcs_load+0xb4>)
    3016:	4a2b      	ldr	r2, [pc, #172]	; (30c4 <drv_tcs_load+0xb4>)
    3018:	68d2      	ldr	r2, [r2, #12]
    301a:	f422 6240 	bic.w	r2, r2, #3072	; 0xc00
    301e:	60da      	str	r2, [r3, #12]
    3020:	4b29      	ldr	r3, [pc, #164]	; (30c8 <drv_tcs_load+0xb8>)
    3022:	4a29      	ldr	r2, [pc, #164]	; (30c8 <drv_tcs_load+0xb8>)
    3024:	6812      	ldr	r2, [r2, #0]
    3026:	f442 1200 	orr.w	r2, r2, #2097152	; 0x200000
    302a:	601a      	str	r2, [r3, #0]
    302c:	4b26      	ldr	r3, [pc, #152]	; (30c8 <drv_tcs_load+0xb8>)
    302e:	4a26      	ldr	r2, [pc, #152]	; (30c8 <drv_tcs_load+0xb8>)
    3030:	6952      	ldr	r2, [r2, #20]
    3032:	f442 1200 	orr.w	r2, r2, #2097152	; 0x200000
    3036:	615a      	str	r2, [r3, #20]
    3038:	4b22      	ldr	r3, [pc, #136]	; (30c4 <drv_tcs_load+0xb4>)
    303a:	4a22      	ldr	r2, [pc, #136]	; (30c4 <drv_tcs_load+0xb4>)
    303c:	6852      	ldr	r2, [r2, #4]
    303e:	f422 6240 	bic.w	r2, r2, #3072	; 0xc00
    3042:	605a      	str	r2, [r3, #4]
    3044:	4b21      	ldr	r3, [pc, #132]	; (30cc <drv_tcs_load+0xbc>)
    3046:	4a21      	ldr	r2, [pc, #132]	; (30cc <drv_tcs_load+0xbc>)
    3048:	6812      	ldr	r2, [r2, #0]
    304a:	f422 1200 	bic.w	r2, r2, #2097152	; 0x200000
    304e:	601a      	str	r2, [r3, #0]
    3050:	4b1c      	ldr	r3, [pc, #112]	; (30c4 <drv_tcs_load+0xb4>)
    3052:	4a1c      	ldr	r2, [pc, #112]	; (30c4 <drv_tcs_load+0xb4>)
    3054:	68d2      	ldr	r2, [r2, #12]
    3056:	f442 7240 	orr.w	r2, r2, #768	; 0x300
    305a:	60da      	str	r2, [r3, #12]
    305c:	4b19      	ldr	r3, [pc, #100]	; (30c4 <drv_tcs_load+0xb4>)
    305e:	4a19      	ldr	r2, [pc, #100]	; (30c4 <drv_tcs_load+0xb4>)
    3060:	68d2      	ldr	r2, [r2, #12]
    3062:	f442 4240 	orr.w	r2, r2, #49152	; 0xc000
    3066:	60da      	str	r2, [r3, #12]
    3068:	4b16      	ldr	r3, [pc, #88]	; (30c4 <drv_tcs_load+0xb4>)
    306a:	4a16      	ldr	r2, [pc, #88]	; (30c4 <drv_tcs_load+0xb4>)
    306c:	68d2      	ldr	r2, [r2, #12]
    306e:	f442 3240 	orr.w	r2, r2, #196608	; 0x30000
    3072:	60da      	str	r2, [r3, #12]
    3074:	4b16      	ldr	r3, [pc, #88]	; (30d0 <drv_tcs_load+0xc0>)
    3076:	4a16      	ldr	r2, [pc, #88]	; (30d0 <drv_tcs_load+0xc0>)
    3078:	f8d2 20c4 	ldr.w	r2, [r2, #196]	; 0xc4
    307c:	f442 1200 	orr.w	r2, r2, #2097152	; 0x200000
    3080:	f8c3 20c4 	str.w	r2, [r3, #196]	; 0xc4
    3084:	4b12      	ldr	r3, [pc, #72]	; (30d0 <drv_tcs_load+0xc0>)
    3086:	4a12      	ldr	r2, [pc, #72]	; (30d0 <drv_tcs_load+0xc0>)
    3088:	f8d2 21ac 	ldr.w	r2, [r2, #428]	; 0x1ac
    308c:	f422 6240 	bic.w	r2, r2, #3072	; 0xc00
    3090:	f8c3 21ac 	str.w	r2, [r3, #428]	; 0x1ac
    3094:	4b0e      	ldr	r3, [pc, #56]	; (30d0 <drv_tcs_load+0xc0>)
    3096:	4a0e      	ldr	r2, [pc, #56]	; (30d0 <drv_tcs_load+0xc0>)
    3098:	f8d2 21ac 	ldr.w	r2, [r2, #428]	; 0x1ac
    309c:	f442 6280 	orr.w	r2, r2, #1024	; 0x400
    30a0:	f8c3 21ac 	str.w	r2, [r3, #428]	; 0x1ac
    30a4:	4b0b      	ldr	r3, [pc, #44]	; (30d4 <drv_tcs_load+0xc4>)
    30a6:	f04f 0248 	mov.w	r2, #72	; 0x48
    30aa:	611a      	str	r2, [r3, #16]
    30ac:	4b09      	ldr	r3, [pc, #36]	; (30d4 <drv_tcs_load+0xc4>)
    30ae:	f04f 0207 	mov.w	r2, #7
    30b2:	601a      	str	r2, [r3, #0]
    30b4:	4b07      	ldr	r3, [pc, #28]	; (30d4 <drv_tcs_load+0xc4>)
    30b6:	f04f 0202 	mov.w	r2, #2
    30ba:	605a      	str	r2, [r3, #4]
    30bc:	46bd      	mov	sp, r7
    30be:	bc80      	pop	{r7}
    30c0:	4770      	bx	lr
    30c2:	bf00      	nop
    30c4:	4002c000 	.word	0x4002c000
    30c8:	2009c020 	.word	0x2009c020
    30cc:	2009c000 	.word	0x2009c000
    30d0:	400fc000 	.word	0x400fc000
    30d4:	40088000 	.word	0x40088000

000030d8 <drv_tcs_open>:
    30d8:	b480      	push	{r7}
    30da:	af00      	add	r7, sp, #0
    30dc:	46bd      	mov	sp, r7
    30de:	bc80      	pop	{r7}
    30e0:	4770      	bx	lr
    30e2:	bf00      	nop

000030e4 <TCS_SPI_Write>:
    30e4:	b480      	push	{r7}
    30e6:	b083      	sub	sp, #12
    30e8:	af00      	add	r7, sp, #0
    30ea:	4603      	mov	r3, r0
    30ec:	71fb      	strb	r3, [r7, #7]
    30ee:	4b09      	ldr	r3, [pc, #36]	; (3114 <TCS_SPI_Write+0x30>)
    30f0:	79fa      	ldrb	r2, [r7, #7]
    30f2:	609a      	str	r2, [r3, #8]
    30f4:	bf00      	nop
    30f6:	4b07      	ldr	r3, [pc, #28]	; (3114 <TCS_SPI_Write+0x30>)
    30f8:	68db      	ldr	r3, [r3, #12]
    30fa:	f003 0310 	and.w	r3, r3, #16
    30fe:	2b00      	cmp	r3, #0
    3100:	d1f9      	bne.n	30f6 <TCS_SPI_Write+0x12>
    3102:	4b04      	ldr	r3, [pc, #16]	; (3114 <TCS_SPI_Write+0x30>)
    3104:	689b      	ldr	r3, [r3, #8]
    3106:	b2db      	uxtb	r3, r3
    3108:	4618      	mov	r0, r3
    310a:	f107 070c 	add.w	r7, r7, #12
    310e:	46bd      	mov	sp, r7
    3110:	bc80      	pop	{r7}
    3112:	4770      	bx	lr
    3114:	40088000 	.word	0x40088000

00003118 <TCS_SPI_Read_Hor>:
    3118:	b580      	push	{r7, lr}
    311a:	b084      	sub	sp, #16
    311c:	af00      	add	r7, sp, #0
    311e:	f000 fa31 	bl	3584 <drv_tcs_get_status_touch>
    3122:	4603      	mov	r3, r0
    3124:	2b00      	cmp	r3, #0
    3126:	d063      	beq.n	31f0 <TCS_SPI_Read_Hor+0xd8>
    3128:	4b33      	ldr	r3, [pc, #204]	; (31f8 <TCS_SPI_Read_Hor+0xe0>)
    312a:	4a33      	ldr	r2, [pc, #204]	; (31f8 <TCS_SPI_Read_Hor+0xe0>)
    312c:	6952      	ldr	r2, [r2, #20]
    312e:	f422 1200 	bic.w	r2, r2, #2097152	; 0x200000
    3132:	615a      	str	r2, [r3, #20]
    3134:	f04f 00d0 	mov.w	r0, #208	; 0xd0
    3138:	f7ff ffd4 	bl	30e4 <TCS_SPI_Write>
    313c:	4603      	mov	r3, r0
    313e:	713b      	strb	r3, [r7, #4]
    3140:	f04f 0000 	mov.w	r0, #0
    3144:	f7ff ffce 	bl	30e4 <TCS_SPI_Write>
    3148:	4603      	mov	r3, r0
    314a:	713b      	strb	r3, [r7, #4]
    314c:	f04f 0090 	mov.w	r0, #144	; 0x90
    3150:	f7ff ffc8 	bl	30e4 <TCS_SPI_Write>
    3154:	4603      	mov	r3, r0
    3156:	717b      	strb	r3, [r7, #5]
    3158:	f04f 0000 	mov.w	r0, #0
    315c:	f7ff ffc2 	bl	30e4 <TCS_SPI_Write>
    3160:	4603      	mov	r3, r0
    3162:	71bb      	strb	r3, [r7, #6]
    3164:	f04f 0000 	mov.w	r0, #0
    3168:	f7ff ffbc 	bl	30e4 <TCS_SPI_Write>
    316c:	4603      	mov	r3, r0
    316e:	71fb      	strb	r3, [r7, #7]
    3170:	793b      	ldrb	r3, [r7, #4]
    3172:	60fb      	str	r3, [r7, #12]
    3174:	68fb      	ldr	r3, [r7, #12]
    3176:	ea4f 1343 	mov.w	r3, r3, lsl #5
    317a:	60fb      	str	r3, [r7, #12]
    317c:	797b      	ldrb	r3, [r7, #5]
    317e:	ea4f 03d3 	mov.w	r3, r3, lsr #3
    3182:	b2db      	uxtb	r3, r3
    3184:	68fa      	ldr	r2, [r7, #12]
    3186:	ea42 0303 	orr.w	r3, r2, r3
    318a:	60fb      	str	r3, [r7, #12]
    318c:	68fb      	ldr	r3, [r7, #12]
    318e:	ea4f 5303 	mov.w	r3, r3, lsl #20
    3192:	ea4f 5313 	mov.w	r3, r3, lsr #20
    3196:	60fb      	str	r3, [r7, #12]
    3198:	79bb      	ldrb	r3, [r7, #6]
    319a:	60bb      	str	r3, [r7, #8]
    319c:	68bb      	ldr	r3, [r7, #8]
    319e:	ea4f 1343 	mov.w	r3, r3, lsl #5
    31a2:	60bb      	str	r3, [r7, #8]
    31a4:	79fb      	ldrb	r3, [r7, #7]
    31a6:	ea4f 03d3 	mov.w	r3, r3, lsr #3
    31aa:	b2db      	uxtb	r3, r3
    31ac:	68ba      	ldr	r2, [r7, #8]
    31ae:	ea42 0303 	orr.w	r3, r2, r3
    31b2:	60bb      	str	r3, [r7, #8]
    31b4:	68bb      	ldr	r3, [r7, #8]
    31b6:	ea4f 5303 	mov.w	r3, r3, lsl #20
    31ba:	ea4f 5313 	mov.w	r3, r3, lsr #20
    31be:	60bb      	str	r3, [r7, #8]
    31c0:	4b0d      	ldr	r3, [pc, #52]	; (31f8 <TCS_SPI_Read_Hor+0xe0>)
    31c2:	4a0d      	ldr	r2, [pc, #52]	; (31f8 <TCS_SPI_Read_Hor+0xe0>)
    31c4:	6952      	ldr	r2, [r2, #20]
    31c6:	f442 1200 	orr.w	r2, r2, #2097152	; 0x200000
    31ca:	615a      	str	r2, [r3, #20]
    31cc:	68bb      	ldr	r3, [r7, #8]
    31ce:	f5c3 637e 	rsb	r3, r3, #4064	; 0xfe0
    31d2:	f103 031f 	add.w	r3, r3, #31
    31d6:	461a      	mov	r2, r3
    31d8:	ea4f 73e3 	mov.w	r3, r3, asr #31
    31dc:	4907      	ldr	r1, [pc, #28]	; (31fc <TCS_SPI_Read_Hor+0xe4>)
    31de:	e9c1 2300 	strd	r2, r3, [r1]
    31e2:	68fb      	ldr	r3, [r7, #12]
    31e4:	461a      	mov	r2, r3
    31e6:	ea4f 73e3 	mov.w	r3, r3, asr #31
    31ea:	4905      	ldr	r1, [pc, #20]	; (3200 <TCS_SPI_Read_Hor+0xe8>)
    31ec:	e9c1 2300 	strd	r2, r3, [r1]
    31f0:	f107 0710 	add.w	r7, r7, #16
    31f4:	46bd      	mov	sp, r7
    31f6:	bd80      	pop	{r7, pc}
    31f8:	2009c020 	.word	0x2009c020
    31fc:	10000a00 	.word	0x10000a00
    3200:	10000a08 	.word	0x10000a08

00003204 <TCS_Average_X_Y>:
    3204:	b480      	push	{r7}
    3206:	b08b      	sub	sp, #44	; 0x2c
    3208:	af00      	add	r7, sp, #0
    320a:	4603      	mov	r3, r0
    320c:	71fb      	strb	r3, [r7, #7]
    320e:	f04f 0300 	mov.w	r3, #0
    3212:	623b      	str	r3, [r7, #32]
    3214:	f04f 0300 	mov.w	r3, #0
    3218:	61fb      	str	r3, [r7, #28]
    321a:	f64f 73ff 	movw	r3, #65535	; 0xffff
    321e:	61bb      	str	r3, [r7, #24]
    3220:	f64f 73ff 	movw	r3, #65535	; 0xffff
    3224:	617b      	str	r3, [r7, #20]
    3226:	f04f 0300 	mov.w	r3, #0
    322a:	613b      	str	r3, [r7, #16]
    322c:	f04f 0300 	mov.w	r3, #0
    3230:	60fb      	str	r3, [r7, #12]
    3232:	f04f 0300 	mov.w	r3, #0
    3236:	f887 3027 	strb.w	r3, [r7, #39]	; 0x27
    323a:	e087      	b.n	334c <TCS_Average_X_Y+0x148>
    323c:	f897 3027 	ldrb.w	r3, [r7, #39]	; 0x27
    3240:	4a58      	ldr	r2, [pc, #352]	; (33a4 <TCS_Average_X_Y+0x1a0>)
    3242:	ea4f 03c3 	mov.w	r3, r3, lsl #3
    3246:	18d3      	adds	r3, r2, r3
    3248:	e9d3 2300 	ldrd	r2, r3, [r3]
    324c:	4613      	mov	r3, r2
    324e:	6a3a      	ldr	r2, [r7, #32]
    3250:	18d3      	adds	r3, r2, r3
    3252:	623b      	str	r3, [r7, #32]
    3254:	f897 3027 	ldrb.w	r3, [r7, #39]	; 0x27
    3258:	4a53      	ldr	r2, [pc, #332]	; (33a8 <TCS_Average_X_Y+0x1a4>)
    325a:	ea4f 03c3 	mov.w	r3, r3, lsl #3
    325e:	18d3      	adds	r3, r2, r3
    3260:	e9d3 2300 	ldrd	r2, r3, [r3]
    3264:	4613      	mov	r3, r2
    3266:	69fa      	ldr	r2, [r7, #28]
    3268:	18d3      	adds	r3, r2, r3
    326a:	61fb      	str	r3, [r7, #28]
    326c:	f897 3027 	ldrb.w	r3, [r7, #39]	; 0x27
    3270:	4a4c      	ldr	r2, [pc, #304]	; (33a4 <TCS_Average_X_Y+0x1a0>)
    3272:	ea4f 03c3 	mov.w	r3, r3, lsl #3
    3276:	18d3      	adds	r3, r2, r3
    3278:	e9d3 0100 	ldrd	r0, r1, [r3]
    327c:	69bb      	ldr	r3, [r7, #24]
    327e:	461a      	mov	r2, r3
    3280:	f04f 0300 	mov.w	r3, #0
    3284:	4290      	cmp	r0, r2
    3286:	eb71 0c03 	sbcs.w	ip, r1, r3
    328a:	d20a      	bcs.n	32a2 <TCS_Average_X_Y+0x9e>
    328c:	f897 3027 	ldrb.w	r3, [r7, #39]	; 0x27
    3290:	4a44      	ldr	r2, [pc, #272]	; (33a4 <TCS_Average_X_Y+0x1a0>)
    3292:	ea4f 03c3 	mov.w	r3, r3, lsl #3
    3296:	18d3      	adds	r3, r2, r3
    3298:	e9d3 2300 	ldrd	r2, r3, [r3]
    329c:	4613      	mov	r3, r2
    329e:	61bb      	str	r3, [r7, #24]
    32a0:	e019      	b.n	32d6 <TCS_Average_X_Y+0xd2>
    32a2:	f897 3027 	ldrb.w	r3, [r7, #39]	; 0x27
    32a6:	4a3f      	ldr	r2, [pc, #252]	; (33a4 <TCS_Average_X_Y+0x1a0>)
    32a8:	ea4f 03c3 	mov.w	r3, r3, lsl #3
    32ac:	18d3      	adds	r3, r2, r3
    32ae:	e9d3 2300 	ldrd	r2, r3, [r3]
    32b2:	6939      	ldr	r1, [r7, #16]
    32b4:	4608      	mov	r0, r1
    32b6:	f04f 0100 	mov.w	r1, #0
    32ba:	4290      	cmp	r0, r2
    32bc:	eb71 0c03 	sbcs.w	ip, r1, r3
    32c0:	d209      	bcs.n	32d6 <TCS_Average_X_Y+0xd2>
    32c2:	f897 3027 	ldrb.w	r3, [r7, #39]	; 0x27
    32c6:	4a37      	ldr	r2, [pc, #220]	; (33a4 <TCS_Average_X_Y+0x1a0>)
    32c8:	ea4f 03c3 	mov.w	r3, r3, lsl #3
    32cc:	18d3      	adds	r3, r2, r3
    32ce:	e9d3 2300 	ldrd	r2, r3, [r3]
    32d2:	4613      	mov	r3, r2
    32d4:	613b      	str	r3, [r7, #16]
    32d6:	f897 3027 	ldrb.w	r3, [r7, #39]	; 0x27
    32da:	4a33      	ldr	r2, [pc, #204]	; (33a8 <TCS_Average_X_Y+0x1a4>)
    32dc:	ea4f 03c3 	mov.w	r3, r3, lsl #3
    32e0:	18d3      	adds	r3, r2, r3
    32e2:	e9d3 0100 	ldrd	r0, r1, [r3]
    32e6:	697b      	ldr	r3, [r7, #20]
    32e8:	461a      	mov	r2, r3
    32ea:	f04f 0300 	mov.w	r3, #0
    32ee:	4290      	cmp	r0, r2
    32f0:	eb71 0c03 	sbcs.w	ip, r1, r3
    32f4:	d20a      	bcs.n	330c <TCS_Average_X_Y+0x108>
    32f6:	f897 3027 	ldrb.w	r3, [r7, #39]	; 0x27
    32fa:	4a2b      	ldr	r2, [pc, #172]	; (33a8 <TCS_Average_X_Y+0x1a4>)
    32fc:	ea4f 03c3 	mov.w	r3, r3, lsl #3
    3300:	18d3      	adds	r3, r2, r3
    3302:	e9d3 2300 	ldrd	r2, r3, [r3]
    3306:	4613      	mov	r3, r2
    3308:	617b      	str	r3, [r7, #20]
    330a:	e019      	b.n	3340 <TCS_Average_X_Y+0x13c>
    330c:	f897 3027 	ldrb.w	r3, [r7, #39]	; 0x27
    3310:	4a25      	ldr	r2, [pc, #148]	; (33a8 <TCS_Average_X_Y+0x1a4>)
    3312:	ea4f 03c3 	mov.w	r3, r3, lsl #3
    3316:	18d3      	adds	r3, r2, r3
    3318:	e9d3 2300 	ldrd	r2, r3, [r3]
    331c:	68f9      	ldr	r1, [r7, #12]
    331e:	4608      	mov	r0, r1
    3320:	f04f 0100 	mov.w	r1, #0
    3324:	4290      	cmp	r0, r2
    3326:	eb71 0c03 	sbcs.w	ip, r1, r3
    332a:	d209      	bcs.n	3340 <TCS_Average_X_Y+0x13c>
    332c:	f897 3027 	ldrb.w	r3, [r7, #39]	; 0x27
    3330:	4a1d      	ldr	r2, [pc, #116]	; (33a8 <TCS_Average_X_Y+0x1a4>)
    3332:	ea4f 03c3 	mov.w	r3, r3, lsl #3
    3336:	18d3      	adds	r3, r2, r3
    3338:	e9d3 2300 	ldrd	r2, r3, [r3]
    333c:	4613      	mov	r3, r2
    333e:	60fb      	str	r3, [r7, #12]
    3340:	f897 3027 	ldrb.w	r3, [r7, #39]	; 0x27
    3344:	f103 0301 	add.w	r3, r3, #1
    3348:	f887 3027 	strb.w	r3, [r7, #39]	; 0x27
    334c:	f897 2027 	ldrb.w	r2, [r7, #39]	; 0x27
    3350:	79fb      	ldrb	r3, [r7, #7]
    3352:	429a      	cmp	r2, r3
    3354:	f4ff af72 	bcc.w	323c <TCS_Average_X_Y+0x38>
    3358:	6a3a      	ldr	r2, [r7, #32]
    335a:	69bb      	ldr	r3, [r7, #24]
    335c:	1ad2      	subs	r2, r2, r3
    335e:	693b      	ldr	r3, [r7, #16]
    3360:	1ad2      	subs	r2, r2, r3
    3362:	79fb      	ldrb	r3, [r7, #7]
    3364:	f1a3 0302 	sub.w	r3, r3, #2
    3368:	fbb2 f3f3 	udiv	r3, r2, r3
    336c:	461a      	mov	r2, r3
    336e:	f04f 0300 	mov.w	r3, #0
    3372:	490e      	ldr	r1, [pc, #56]	; (33ac <TCS_Average_X_Y+0x1a8>)
    3374:	e9c1 2300 	strd	r2, r3, [r1]
    3378:	69fa      	ldr	r2, [r7, #28]
    337a:	697b      	ldr	r3, [r7, #20]
    337c:	1ad2      	subs	r2, r2, r3
    337e:	68fb      	ldr	r3, [r7, #12]
    3380:	1ad2      	subs	r2, r2, r3
    3382:	79fb      	ldrb	r3, [r7, #7]
    3384:	f1a3 0302 	sub.w	r3, r3, #2
    3388:	fbb2 f3f3 	udiv	r3, r2, r3
    338c:	461a      	mov	r2, r3
    338e:	f04f 0300 	mov.w	r3, #0
    3392:	4907      	ldr	r1, [pc, #28]	; (33b0 <TCS_Average_X_Y+0x1ac>)
    3394:	e9c1 2300 	strd	r2, r3, [r1]
    3398:	f107 072c 	add.w	r7, r7, #44	; 0x2c
    339c:	46bd      	mov	sp, r7
    339e:	bc80      	pop	{r7}
    33a0:	4770      	bx	lr
    33a2:	bf00      	nop
    33a4:	10000a10 	.word	0x10000a10
    33a8:	10000d30 	.word	0x10000d30
    33ac:	10001050 	.word	0x10001050
    33b0:	10001058 	.word	0x10001058

000033b4 <drv_tcs_get_point>:
    33b4:	b5f0      	push	{r4, r5, r6, r7, lr}
    33b6:	b08b      	sub	sp, #44	; 0x2c
    33b8:	af00      	add	r7, sp, #0
    33ba:	4603      	mov	r3, r0
    33bc:	60b9      	str	r1, [r7, #8]
    33be:	607a      	str	r2, [r7, #4]
    33c0:	73fb      	strb	r3, [r7, #15]
    33c2:	f04f 0300 	mov.w	r3, #0
    33c6:	f887 3027 	strb.w	r3, [r7, #39]	; 0x27
    33ca:	e01d      	b.n	3408 <drv_tcs_get_point+0x54>
    33cc:	f7ff fea4 	bl	3118 <TCS_SPI_Read_Hor>
    33d0:	f897 1027 	ldrb.w	r1, [r7, #39]	; 0x27
    33d4:	4b5e      	ldr	r3, [pc, #376]	; (3550 <drv_tcs_get_point+0x19c>)
    33d6:	e9d3 2300 	ldrd	r2, r3, [r3]
    33da:	485e      	ldr	r0, [pc, #376]	; (3554 <drv_tcs_get_point+0x1a0>)
    33dc:	ea4f 01c1 	mov.w	r1, r1, lsl #3
    33e0:	1841      	adds	r1, r0, r1
    33e2:	e9c1 2300 	strd	r2, r3, [r1]
    33e6:	f897 1027 	ldrb.w	r1, [r7, #39]	; 0x27
    33ea:	4b5b      	ldr	r3, [pc, #364]	; (3558 <drv_tcs_get_point+0x1a4>)
    33ec:	e9d3 2300 	ldrd	r2, r3, [r3]
    33f0:	485a      	ldr	r0, [pc, #360]	; (355c <drv_tcs_get_point+0x1a8>)
    33f2:	ea4f 01c1 	mov.w	r1, r1, lsl #3
    33f6:	1841      	adds	r1, r0, r1
    33f8:	e9c1 2300 	strd	r2, r3, [r1]
    33fc:	f897 3027 	ldrb.w	r3, [r7, #39]	; 0x27
    3400:	f103 0301 	add.w	r3, r3, #1
    3404:	f887 3027 	strb.w	r3, [r7, #39]	; 0x27
    3408:	f000 f8bc 	bl	3584 <drv_tcs_get_status_touch>
    340c:	4603      	mov	r3, r0
    340e:	2b00      	cmp	r3, #0
    3410:	d004      	beq.n	341c <drv_tcs_get_point+0x68>
    3412:	f897 2027 	ldrb.w	r2, [r7, #39]	; 0x27
    3416:	7bfb      	ldrb	r3, [r7, #15]
    3418:	429a      	cmp	r2, r3
    341a:	d3d7      	bcc.n	33cc <drv_tcs_get_point+0x18>
    341c:	f897 2027 	ldrb.w	r2, [r7, #39]	; 0x27
    3420:	7bfb      	ldrb	r3, [r7, #15]
    3422:	429a      	cmp	r2, r3
    3424:	f040 8090 	bne.w	3548 <drv_tcs_get_point+0x194>
    3428:	7bfb      	ldrb	r3, [r7, #15]
    342a:	4618      	mov	r0, r3
    342c:	f7ff feea 	bl	3204 <TCS_Average_X_Y>
    3430:	4b4b      	ldr	r3, [pc, #300]	; (3560 <drv_tcs_get_point+0x1ac>)
    3432:	e9d3 2300 	ldrd	r2, r3, [r3]
    3436:	4946      	ldr	r1, [pc, #280]	; (3550 <drv_tcs_get_point+0x19c>)
    3438:	e9c1 2300 	strd	r2, r3, [r1]
    343c:	4b49      	ldr	r3, [pc, #292]	; (3564 <drv_tcs_get_point+0x1b0>)
    343e:	e9d3 2300 	ldrd	r2, r3, [r3]
    3442:	4945      	ldr	r1, [pc, #276]	; (3558 <drv_tcs_get_point+0x1a4>)
    3444:	e9c1 2300 	strd	r2, r3, [r1]
    3448:	4b47      	ldr	r3, [pc, #284]	; (3568 <drv_tcs_get_point+0x1b4>)
    344a:	681b      	ldr	r3, [r3, #0]
    344c:	4618      	mov	r0, r3
    344e:	f04f 0100 	mov.w	r1, #0
    3452:	4b3f      	ldr	r3, [pc, #252]	; (3550 <drv_tcs_get_point+0x19c>)
    3454:	e9d3 2300 	ldrd	r2, r3, [r3]
    3458:	fb02 f401 	mul.w	r4, r2, r1
    345c:	fb00 f503 	mul.w	r5, r0, r3
    3460:	1964      	adds	r4, r4, r5
    3462:	fba0 0102 	umull	r0, r1, r0, r2
    3466:	1864      	adds	r4, r4, r1
    3468:	4621      	mov	r1, r4
    346a:	4b40      	ldr	r3, [pc, #256]	; (356c <drv_tcs_get_point+0x1b8>)
    346c:	681b      	ldr	r3, [r3, #0]
    346e:	461c      	mov	r4, r3
    3470:	f04f 0500 	mov.w	r5, #0
    3474:	4b38      	ldr	r3, [pc, #224]	; (3558 <drv_tcs_get_point+0x1a4>)
    3476:	e9d3 2300 	ldrd	r2, r3, [r3]
    347a:	fb02 f605 	mul.w	r6, r2, r5
    347e:	fb04 fe03 	mul.w	lr, r4, r3
    3482:	4476      	add	r6, lr
    3484:	fba4 2302 	umull	r2, r3, r4, r2
    3488:	18f6      	adds	r6, r6, r3
    348a:	4633      	mov	r3, r6
    348c:	1880      	adds	r0, r0, r2
    348e:	eb41 0103 	adc.w	r1, r1, r3
    3492:	4b37      	ldr	r3, [pc, #220]	; (3570 <drv_tcs_get_point+0x1bc>)
    3494:	681b      	ldr	r3, [r3, #0]
    3496:	461a      	mov	r2, r3
    3498:	f04f 0300 	mov.w	r3, #0
    349c:	1880      	adds	r0, r0, r2
    349e:	eb41 0103 	adc.w	r1, r1, r3
    34a2:	4b34      	ldr	r3, [pc, #208]	; (3574 <drv_tcs_get_point+0x1c0>)
    34a4:	681b      	ldr	r3, [r3, #0]
    34a6:	461a      	mov	r2, r3
    34a8:	f04f 0300 	mov.w	r3, #0
    34ac:	f003 f910 	bl	66d0 <__aeabi_uldivmod>
    34b0:	4602      	mov	r2, r0
    34b2:	460b      	mov	r3, r1
    34b4:	e9c7 2306 	strd	r2, r3, [r7, #24]
    34b8:	f107 0318 	add.w	r3, r7, #24
    34bc:	68b8      	ldr	r0, [r7, #8]
    34be:	4619      	mov	r1, r3
    34c0:	f04f 0208 	mov.w	r2, #8
    34c4:	f003 fdc2 	bl	704c <memcpy>
    34c8:	4b2b      	ldr	r3, [pc, #172]	; (3578 <drv_tcs_get_point+0x1c4>)
    34ca:	681b      	ldr	r3, [r3, #0]
    34cc:	4618      	mov	r0, r3
    34ce:	f04f 0100 	mov.w	r1, #0
    34d2:	4b1f      	ldr	r3, [pc, #124]	; (3550 <drv_tcs_get_point+0x19c>)
    34d4:	e9d3 2300 	ldrd	r2, r3, [r3]
    34d8:	fb02 f401 	mul.w	r4, r2, r1
    34dc:	fb00 f503 	mul.w	r5, r0, r3
    34e0:	1964      	adds	r4, r4, r5
    34e2:	fba0 0102 	umull	r0, r1, r0, r2
    34e6:	1864      	adds	r4, r4, r1
    34e8:	4621      	mov	r1, r4
    34ea:	4b24      	ldr	r3, [pc, #144]	; (357c <drv_tcs_get_point+0x1c8>)
    34ec:	681b      	ldr	r3, [r3, #0]
    34ee:	461c      	mov	r4, r3
    34f0:	f04f 0500 	mov.w	r5, #0
    34f4:	4b18      	ldr	r3, [pc, #96]	; (3558 <drv_tcs_get_point+0x1a4>)
    34f6:	e9d3 2300 	ldrd	r2, r3, [r3]
    34fa:	fb02 f605 	mul.w	r6, r2, r5
    34fe:	fb04 fe03 	mul.w	lr, r4, r3
    3502:	4476      	add	r6, lr
    3504:	fba4 2302 	umull	r2, r3, r4, r2
    3508:	18f6      	adds	r6, r6, r3
    350a:	4633      	mov	r3, r6
    350c:	1880      	adds	r0, r0, r2
    350e:	eb41 0103 	adc.w	r1, r1, r3
    3512:	4b1b      	ldr	r3, [pc, #108]	; (3580 <drv_tcs_get_point+0x1cc>)
    3514:	681b      	ldr	r3, [r3, #0]
    3516:	461a      	mov	r2, r3
    3518:	f04f 0300 	mov.w	r3, #0
    351c:	1880      	adds	r0, r0, r2
    351e:	eb41 0103 	adc.w	r1, r1, r3
    3522:	4b14      	ldr	r3, [pc, #80]	; (3574 <drv_tcs_get_point+0x1c0>)
    3524:	681b      	ldr	r3, [r3, #0]
    3526:	461a      	mov	r2, r3
    3528:	f04f 0300 	mov.w	r3, #0
    352c:	f003 f8d0 	bl	66d0 <__aeabi_uldivmod>
    3530:	4602      	mov	r2, r0
    3532:	460b      	mov	r3, r1
    3534:	e9c7 2304 	strd	r2, r3, [r7, #16]
    3538:	f107 0310 	add.w	r3, r7, #16
    353c:	6878      	ldr	r0, [r7, #4]
    353e:	4619      	mov	r1, r3
    3540:	f04f 0208 	mov.w	r2, #8
    3544:	f003 fd82 	bl	704c <memcpy>
    3548:	f107 072c 	add.w	r7, r7, #44	; 0x2c
    354c:	46bd      	mov	sp, r7
    354e:	bdf0      	pop	{r4, r5, r6, r7, pc}
    3550:	10000a00 	.word	0x10000a00
    3554:	10000a10 	.word	0x10000a10
    3558:	10000a08 	.word	0x10000a08
    355c:	10000d30 	.word	0x10000d30
    3560:	10001050 	.word	0x10001050
    3564:	10001058 	.word	0x10001058
    3568:	1000001c 	.word	0x1000001c
    356c:	10000020 	.word	0x10000020
    3570:	10000024 	.word	0x10000024
    3574:	10000018 	.word	0x10000018
    3578:	10000028 	.word	0x10000028
    357c:	1000002c 	.word	0x1000002c
    3580:	10000030 	.word	0x10000030

00003584 <drv_tcs_get_status_touch>:
    3584:	b480      	push	{r7}
    3586:	b083      	sub	sp, #12
    3588:	af00      	add	r7, sp, #0
    358a:	4b0a      	ldr	r3, [pc, #40]	; (35b4 <drv_tcs_get_status_touch+0x30>)
    358c:	695b      	ldr	r3, [r3, #20]
    358e:	ea4f 4313 	mov.w	r3, r3, lsr #16
    3592:	f003 0320 	and.w	r3, r3, #32
    3596:	607b      	str	r3, [r7, #4]
    3598:	687b      	ldr	r3, [r7, #4]
    359a:	2b20      	cmp	r3, #32
    359c:	d102      	bne.n	35a4 <drv_tcs_get_status_touch+0x20>
    359e:	f04f 0300 	mov.w	r3, #0
    35a2:	e001      	b.n	35a8 <drv_tcs_get_status_touch+0x24>
    35a4:	f04f 0301 	mov.w	r3, #1
    35a8:	4618      	mov	r0, r3
    35aa:	f107 070c 	add.w	r7, r7, #12
    35ae:	46bd      	mov	sp, r7
    35b0:	bc80      	pop	{r7}
    35b2:	4770      	bx	lr
    35b4:	2009c000 	.word	0x2009c000

000035b8 <NVIC_EnableIRQ>:
    35b8:	b480      	push	{r7}
    35ba:	b083      	sub	sp, #12
    35bc:	af00      	add	r7, sp, #0
    35be:	4603      	mov	r3, r0
    35c0:	71fb      	strb	r3, [r7, #7]
    35c2:	4b09      	ldr	r3, [pc, #36]	; (35e8 <NVIC_EnableIRQ+0x30>)
    35c4:	f997 2007 	ldrsb.w	r2, [r7, #7]
    35c8:	ea4f 1252 	mov.w	r2, r2, lsr #5
    35cc:	79f9      	ldrb	r1, [r7, #7]
    35ce:	f001 011f 	and.w	r1, r1, #31
    35d2:	f04f 0001 	mov.w	r0, #1
    35d6:	fa00 f101 	lsl.w	r1, r0, r1
    35da:	f843 1022 	str.w	r1, [r3, r2, lsl #2]
    35de:	f107 070c 	add.w	r7, r7, #12
    35e2:	46bd      	mov	sp, r7
    35e4:	bc80      	pop	{r7}
    35e6:	4770      	bx	lr
    35e8:	e000e100 	.word	0xe000e100

000035ec <NVIC_ClearPendingIRQ>:
    35ec:	b480      	push	{r7}
    35ee:	b083      	sub	sp, #12
    35f0:	af00      	add	r7, sp, #0
    35f2:	4603      	mov	r3, r0
    35f4:	71fb      	strb	r3, [r7, #7]
    35f6:	4b0a      	ldr	r3, [pc, #40]	; (3620 <NVIC_ClearPendingIRQ+0x34>)
    35f8:	f997 2007 	ldrsb.w	r2, [r7, #7]
    35fc:	ea4f 1252 	mov.w	r2, r2, lsr #5
    3600:	79f9      	ldrb	r1, [r7, #7]
    3602:	f001 011f 	and.w	r1, r1, #31
    3606:	f04f 0001 	mov.w	r0, #1
    360a:	fa00 f101 	lsl.w	r1, r0, r1
    360e:	f102 0260 	add.w	r2, r2, #96	; 0x60
    3612:	f843 1022 	str.w	r1, [r3, r2, lsl #2]
    3616:	f107 070c 	add.w	r7, r7, #12
    361a:	46bd      	mov	sp, r7
    361c:	bc80      	pop	{r7}
    361e:	4770      	bx	lr
    3620:	e000e100 	.word	0xe000e100

00003624 <NVIC_SetPriority>:
    3624:	b480      	push	{r7}
    3626:	b083      	sub	sp, #12
    3628:	af00      	add	r7, sp, #0
    362a:	4603      	mov	r3, r0
    362c:	6039      	str	r1, [r7, #0]
    362e:	71fb      	strb	r3, [r7, #7]
    3630:	f997 3007 	ldrsb.w	r3, [r7, #7]
    3634:	2b00      	cmp	r3, #0
    3636:	da0d      	bge.n	3654 <NVIC_SetPriority+0x30>
    3638:	490e      	ldr	r1, [pc, #56]	; (3674 <NVIC_SetPriority+0x50>)
    363a:	79fb      	ldrb	r3, [r7, #7]
    363c:	f003 030f 	and.w	r3, r3, #15
    3640:	f1a3 0304 	sub.w	r3, r3, #4
    3644:	683a      	ldr	r2, [r7, #0]
    3646:	b2d2      	uxtb	r2, r2
    3648:	ea4f 02c2 	mov.w	r2, r2, lsl #3
    364c:	b2d2      	uxtb	r2, r2
    364e:	18cb      	adds	r3, r1, r3
    3650:	761a      	strb	r2, [r3, #24]
    3652:	e00a      	b.n	366a <NVIC_SetPriority+0x46>
    3654:	4908      	ldr	r1, [pc, #32]	; (3678 <NVIC_SetPriority+0x54>)
    3656:	f997 3007 	ldrsb.w	r3, [r7, #7]
    365a:	683a      	ldr	r2, [r7, #0]
    365c:	b2d2      	uxtb	r2, r2
    365e:	ea4f 02c2 	mov.w	r2, r2, lsl #3
    3662:	b2d2      	uxtb	r2, r2
    3664:	18cb      	adds	r3, r1, r3
    3666:	f883 2300 	strb.w	r2, [r3, #768]	; 0x300
    366a:	f107 070c 	add.w	r7, r7, #12
    366e:	46bd      	mov	sp, r7
    3670:	bc80      	pop	{r7}
    3672:	4770      	bx	lr
    3674:	e000ed00 	.word	0xe000ed00
    3678:	e000e100 	.word	0xe000e100

0000367c <drv_usr_int_load>:
    367c:	b580      	push	{r7, lr}
    367e:	b082      	sub	sp, #8
    3680:	af00      	add	r7, sp, #0
    3682:	f04f 0301 	mov.w	r3, #1
    3686:	70bb      	strb	r3, [r7, #2]
    3688:	f04f 0300 	mov.w	r3, #0
    368c:	713b      	strb	r3, [r7, #4]
    368e:	f04f 0303 	mov.w	r3, #3
    3692:	70fb      	strb	r3, [r7, #3]
    3694:	f04f 030a 	mov.w	r3, #10
    3698:	707b      	strb	r3, [r7, #1]
    369a:	f04f 0302 	mov.w	r3, #2
    369e:	703b      	strb	r3, [r7, #0]
    36a0:	463b      	mov	r3, r7
    36a2:	4618      	mov	r0, r3
    36a4:	f7fe feec 	bl	2480 <PINSEL_ConfigPin>
    36a8:	4b09      	ldr	r3, [pc, #36]	; (36d0 <drv_usr_int_load+0x54>)
    36aa:	f04f 0201 	mov.w	r2, #1
    36ae:	f8c3 2148 	str.w	r2, [r3, #328]	; 0x148
    36b2:	4b07      	ldr	r3, [pc, #28]	; (36d0 <drv_usr_int_load+0x54>)
    36b4:	f04f 0201 	mov.w	r2, #1
    36b8:	f8c3 214c 	str.w	r2, [r3, #332]	; 0x14c
    36bc:	4b04      	ldr	r3, [pc, #16]	; (36d0 <drv_usr_int_load+0x54>)
    36be:	f04f 0201 	mov.w	r2, #1
    36c2:	f8c3 2140 	str.w	r2, [r3, #320]	; 0x140
    36c6:	f107 0708 	add.w	r7, r7, #8
    36ca:	46bd      	mov	sp, r7
    36cc:	bd80      	pop	{r7, pc}
    36ce:	bf00      	nop
    36d0:	400fc000 	.word	0x400fc000

000036d4 <drv_usr_int_open>:
    36d4:	b580      	push	{r7, lr}
    36d6:	b082      	sub	sp, #8
    36d8:	af00      	add	r7, sp, #0
    36da:	6078      	str	r0, [r7, #4]
    36dc:	4b0c      	ldr	r3, [pc, #48]	; (3710 <drv_usr_int_open+0x3c>)
    36de:	687a      	ldr	r2, [r7, #4]
    36e0:	601a      	str	r2, [r3, #0]
    36e2:	f04f 0012 	mov.w	r0, #18
    36e6:	f04f 0109 	mov.w	r1, #9
    36ea:	f7ff ff9b 	bl	3624 <NVIC_SetPriority>
    36ee:	4b09      	ldr	r3, [pc, #36]	; (3714 <drv_usr_int_open+0x40>)
    36f0:	f04f 0201 	mov.w	r2, #1
    36f4:	f8c3 2140 	str.w	r2, [r3, #320]	; 0x140
    36f8:	f04f 0012 	mov.w	r0, #18
    36fc:	f7ff ff76 	bl	35ec <NVIC_ClearPendingIRQ>
    3700:	f04f 0012 	mov.w	r0, #18
    3704:	f7ff ff58 	bl	35b8 <NVIC_EnableIRQ>
    3708:	f107 0708 	add.w	r7, r7, #8
    370c:	46bd      	mov	sp, r7
    370e:	bd80      	pop	{r7, pc}
    3710:	10001090 	.word	0x10001090
    3714:	400fc000 	.word	0x400fc000

00003718 <EINT0_IRQHandler>:
    3718:	b580      	push	{r7, lr}
    371a:	af00      	add	r7, sp, #0
    371c:	f7fc fd44 	bl	1a8 <CoEnterISR>
    3720:	4b05      	ldr	r3, [pc, #20]	; (3738 <EINT0_IRQHandler+0x20>)
    3722:	681b      	ldr	r3, [r3, #0]
    3724:	4798      	blx	r3
    3726:	4b05      	ldr	r3, [pc, #20]	; (373c <EINT0_IRQHandler+0x24>)
    3728:	f04f 0201 	mov.w	r2, #1
    372c:	f8c3 2140 	str.w	r2, [r3, #320]	; 0x140
    3730:	f7fc fd42 	bl	1b8 <CoExitISR>
    3734:	bd80      	pop	{r7, pc}
    3736:	bf00      	nop
    3738:	10001090 	.word	0x10001090
    373c:	400fc000 	.word	0x400fc000

00003740 <drv_lcd_load>:
    3740:	b480      	push	{r7}
    3742:	af00      	add	r7, sp, #0
    3744:	4b32      	ldr	r3, [pc, #200]	; (3810 <drv_lcd_load+0xd0>)
    3746:	4a32      	ldr	r2, [pc, #200]	; (3810 <drv_lcd_load+0xd0>)
    3748:	6a52      	ldr	r2, [r2, #36]	; 0x24
    374a:	f022 7240 	bic.w	r2, r2, #50331648	; 0x3000000
    374e:	625a      	str	r2, [r3, #36]	; 0x24
    3750:	4b30      	ldr	r3, [pc, #192]	; (3814 <drv_lcd_load+0xd4>)
    3752:	4a30      	ldr	r2, [pc, #192]	; (3814 <drv_lcd_load+0xd4>)
    3754:	6812      	ldr	r2, [r2, #0]
    3756:	f042 5280 	orr.w	r2, r2, #268435456	; 0x10000000
    375a:	601a      	str	r2, [r3, #0]
    375c:	4b2d      	ldr	r3, [pc, #180]	; (3814 <drv_lcd_load+0xd4>)
    375e:	4a2d      	ldr	r2, [pc, #180]	; (3814 <drv_lcd_load+0xd4>)
    3760:	6952      	ldr	r2, [r2, #20]
    3762:	f022 5280 	bic.w	r2, r2, #268435456	; 0x10000000
    3766:	615a      	str	r2, [r3, #20]
    3768:	4b29      	ldr	r3, [pc, #164]	; (3810 <drv_lcd_load+0xd0>)
    376a:	4a29      	ldr	r2, [pc, #164]	; (3810 <drv_lcd_load+0xd0>)
    376c:	6812      	ldr	r2, [r2, #0]
    376e:	f422 5240 	bic.w	r2, r2, #12288	; 0x3000
    3772:	601a      	str	r2, [r3, #0]
    3774:	4b28      	ldr	r3, [pc, #160]	; (3818 <drv_lcd_load+0xd8>)
    3776:	4a28      	ldr	r2, [pc, #160]	; (3818 <drv_lcd_load+0xd8>)
    3778:	6812      	ldr	r2, [r2, #0]
    377a:	f042 0240 	orr.w	r2, r2, #64	; 0x40
    377e:	601a      	str	r2, [r3, #0]
    3780:	4b25      	ldr	r3, [pc, #148]	; (3818 <drv_lcd_load+0xd8>)
    3782:	f04f 0240 	mov.w	r2, #64	; 0x40
    3786:	619a      	str	r2, [r3, #24]
    3788:	4b21      	ldr	r3, [pc, #132]	; (3810 <drv_lcd_load+0xd0>)
    378a:	4a21      	ldr	r2, [pc, #132]	; (3810 <drv_lcd_load+0xd0>)
    378c:	6812      	ldr	r2, [r2, #0]
    378e:	f422 4240 	bic.w	r2, r2, #49152	; 0xc000
    3792:	601a      	str	r2, [r3, #0]
    3794:	4b1e      	ldr	r3, [pc, #120]	; (3810 <drv_lcd_load+0xd0>)
    3796:	4a1e      	ldr	r2, [pc, #120]	; (3810 <drv_lcd_load+0xd0>)
    3798:	6812      	ldr	r2, [r2, #0]
    379a:	f442 4200 	orr.w	r2, r2, #32768	; 0x8000
    379e:	601a      	str	r2, [r3, #0]
    37a0:	4b1b      	ldr	r3, [pc, #108]	; (3810 <drv_lcd_load+0xd0>)
    37a2:	4a1b      	ldr	r2, [pc, #108]	; (3810 <drv_lcd_load+0xd0>)
    37a4:	6812      	ldr	r2, [r2, #0]
    37a6:	f422 3240 	bic.w	r2, r2, #196608	; 0x30000
    37aa:	601a      	str	r2, [r3, #0]
    37ac:	4b18      	ldr	r3, [pc, #96]	; (3810 <drv_lcd_load+0xd0>)
    37ae:	4a18      	ldr	r2, [pc, #96]	; (3810 <drv_lcd_load+0xd0>)
    37b0:	6812      	ldr	r2, [r2, #0]
    37b2:	f442 3200 	orr.w	r2, r2, #131072	; 0x20000
    37b6:	601a      	str	r2, [r3, #0]
    37b8:	4b15      	ldr	r3, [pc, #84]	; (3810 <drv_lcd_load+0xd0>)
    37ba:	4a15      	ldr	r2, [pc, #84]	; (3810 <drv_lcd_load+0xd0>)
    37bc:	6812      	ldr	r2, [r2, #0]
    37be:	f422 2240 	bic.w	r2, r2, #786432	; 0xc0000
    37c2:	601a      	str	r2, [r3, #0]
    37c4:	4b12      	ldr	r3, [pc, #72]	; (3810 <drv_lcd_load+0xd0>)
    37c6:	4a12      	ldr	r2, [pc, #72]	; (3810 <drv_lcd_load+0xd0>)
    37c8:	6812      	ldr	r2, [r2, #0]
    37ca:	f442 2200 	orr.w	r2, r2, #524288	; 0x80000
    37ce:	601a      	str	r2, [r3, #0]
    37d0:	4b12      	ldr	r3, [pc, #72]	; (381c <drv_lcd_load+0xdc>)
    37d2:	4a12      	ldr	r2, [pc, #72]	; (381c <drv_lcd_load+0xdc>)
    37d4:	f8d2 20c4 	ldr.w	r2, [r2, #196]	; 0xc4
    37d8:	f442 6280 	orr.w	r2, r2, #1024	; 0x400
    37dc:	f8c3 20c4 	str.w	r2, [r3, #196]	; 0xc4
    37e0:	4b0e      	ldr	r3, [pc, #56]	; (381c <drv_lcd_load+0xdc>)
    37e2:	4a0e      	ldr	r2, [pc, #56]	; (381c <drv_lcd_load+0xdc>)
    37e4:	f8d2 21a8 	ldr.w	r2, [r2, #424]	; 0x1a8
    37e8:	f442 1200 	orr.w	r2, r2, #2097152	; 0x200000
    37ec:	f8c3 21a8 	str.w	r2, [r3, #424]	; 0x1a8
    37f0:	4b0b      	ldr	r3, [pc, #44]	; (3820 <drv_lcd_load+0xe0>)
    37f2:	f04f 0202 	mov.w	r2, #2
    37f6:	611a      	str	r2, [r3, #16]
    37f8:	4b09      	ldr	r3, [pc, #36]	; (3820 <drv_lcd_load+0xe0>)
    37fa:	f04f 02c7 	mov.w	r2, #199	; 0xc7
    37fe:	601a      	str	r2, [r3, #0]
    3800:	4b07      	ldr	r3, [pc, #28]	; (3820 <drv_lcd_load+0xe0>)
    3802:	f04f 0202 	mov.w	r2, #2
    3806:	605a      	str	r2, [r3, #4]
    3808:	46bd      	mov	sp, r7
    380a:	bc80      	pop	{r7}
    380c:	4770      	bx	lr
    380e:	bf00      	nop
    3810:	4002c000 	.word	0x4002c000
    3814:	2009c080 	.word	0x2009c080
    3818:	2009c000 	.word	0x2009c000
    381c:	400fc000 	.word	0x400fc000
    3820:	40030000 	.word	0x40030000

00003824 <drv_lcd_open>:
    3824:	b580      	push	{r7, lr}
    3826:	b082      	sub	sp, #8
    3828:	af00      	add	r7, sp, #0
    382a:	f04f 0000 	mov.w	r0, #0
    382e:	f000 fcdb 	bl	41e8 <GLCD_Write_Command>
    3832:	f04f 0001 	mov.w	r0, #1
    3836:	f000 fcfb 	bl	4230 <GLCD_Write_Data>
    383a:	f04f 000a 	mov.w	r0, #10
    383e:	f000 fca7 	bl	4190 <delay_ms>
    3842:	f04f 0001 	mov.w	r0, #1
    3846:	f000 fccf 	bl	41e8 <GLCD_Write_Command>
    384a:	f44f 7080 	mov.w	r0, #256	; 0x100
    384e:	f000 fcef 	bl	4230 <GLCD_Write_Data>
    3852:	f04f 0002 	mov.w	r0, #2
    3856:	f000 fcc7 	bl	41e8 <GLCD_Write_Command>
    385a:	f44f 60e0 	mov.w	r0, #1792	; 0x700
    385e:	f000 fce7 	bl	4230 <GLCD_Write_Data>
    3862:	f04f 0003 	mov.w	r0, #3
    3866:	f000 fcbf 	bl	41e8 <GLCD_Write_Command>
    386a:	f241 2028 	movw	r0, #4648	; 0x1228
    386e:	f000 fcdf 	bl	4230 <GLCD_Write_Data>
    3872:	f04f 0007 	mov.w	r0, #7
    3876:	f000 fcb7 	bl	41e8 <GLCD_Write_Command>
    387a:	f240 1001 	movw	r0, #257	; 0x101
    387e:	f000 fcd7 	bl	4230 <GLCD_Write_Data>
    3882:	f04f 0010 	mov.w	r0, #16
    3886:	f000 fcaf 	bl	41e8 <GLCD_Write_Command>
    388a:	f04f 0000 	mov.w	r0, #0
    388e:	f000 fccf 	bl	4230 <GLCD_Write_Data>
    3892:	f04f 0011 	mov.w	r0, #17
    3896:	f000 fca7 	bl	41e8 <GLCD_Write_Command>
    389a:	f04f 0007 	mov.w	r0, #7
    389e:	f000 fcc7 	bl	4230 <GLCD_Write_Data>
    38a2:	f04f 0012 	mov.w	r0, #18
    38a6:	f000 fc9f 	bl	41e8 <GLCD_Write_Command>
    38aa:	f04f 0000 	mov.w	r0, #0
    38ae:	f000 fcbf 	bl	4230 <GLCD_Write_Data>
    38b2:	f04f 0013 	mov.w	r0, #19
    38b6:	f000 fc97 	bl	41e8 <GLCD_Write_Command>
    38ba:	f04f 0000 	mov.w	r0, #0
    38be:	f000 fcb7 	bl	4230 <GLCD_Write_Data>
    38c2:	f04f 0014 	mov.w	r0, #20
    38c6:	f000 fc63 	bl	4190 <delay_ms>
    38ca:	f04f 0010 	mov.w	r0, #16
    38ce:	f000 fc8b 	bl	41e8 <GLCD_Write_Command>
    38d2:	f241 60b0 	movw	r0, #5808	; 0x16b0
    38d6:	f000 fcab 	bl	4230 <GLCD_Write_Data>
    38da:	f04f 0011 	mov.w	r0, #17
    38de:	f000 fc83 	bl	41e8 <GLCD_Write_Command>
    38e2:	f04f 0037 	mov.w	r0, #55	; 0x37
    38e6:	f000 fca3 	bl	4230 <GLCD_Write_Data>
    38ea:	f04f 0014 	mov.w	r0, #20
    38ee:	f000 fc4f 	bl	4190 <delay_ms>
    38f2:	f04f 0012 	mov.w	r0, #18
    38f6:	f000 fc77 	bl	41e8 <GLCD_Write_Command>
    38fa:	f44f 709f 	mov.w	r0, #318	; 0x13e
    38fe:	f000 fc97 	bl	4230 <GLCD_Write_Data>
    3902:	f04f 0014 	mov.w	r0, #20
    3906:	f000 fc43 	bl	4190 <delay_ms>
    390a:	f04f 0013 	mov.w	r0, #19
    390e:	f000 fc6b 	bl	41e8 <GLCD_Write_Command>
    3912:	f44f 50d0 	mov.w	r0, #6656	; 0x1a00
    3916:	f000 fc8b 	bl	4230 <GLCD_Write_Data>
    391a:	f04f 0029 	mov.w	r0, #41	; 0x29
    391e:	f000 fc63 	bl	41e8 <GLCD_Write_Command>
    3922:	f04f 000f 	mov.w	r0, #15
    3926:	f000 fc83 	bl	4230 <GLCD_Write_Data>
    392a:	f04f 0028 	mov.w	r0, #40	; 0x28
    392e:	f000 fc2f 	bl	4190 <delay_ms>
    3932:	f04f 0022 	mov.w	r0, #34	; 0x22
    3936:	f000 fc57 	bl	41e8 <GLCD_Write_Command>
    393a:	f04f 0300 	mov.w	r3, #0
    393e:	607b      	str	r3, [r7, #4]
    3940:	e007      	b.n	3952 <drv_lcd_open+0x12e>
    3942:	f64f 70ff 	movw	r0, #65535	; 0xffff
    3946:	f000 fc73 	bl	4230 <GLCD_Write_Data>
    394a:	687b      	ldr	r3, [r7, #4]
    394c:	f103 0301 	add.w	r3, r3, #1
    3950:	607b      	str	r3, [r7, #4]
    3952:	687a      	ldr	r2, [r7, #4]
    3954:	4b54      	ldr	r3, [pc, #336]	; (3aa8 <drv_lcd_open+0x284>)
    3956:	429a      	cmp	r2, r3
    3958:	d9f3      	bls.n	3942 <drv_lcd_open+0x11e>
    395a:	f04f 0020 	mov.w	r0, #32
    395e:	f000 fc43 	bl	41e8 <GLCD_Write_Command>
    3962:	f04f 0000 	mov.w	r0, #0
    3966:	f000 fc63 	bl	4230 <GLCD_Write_Data>
    396a:	f04f 0021 	mov.w	r0, #33	; 0x21
    396e:	f000 fc3b 	bl	41e8 <GLCD_Write_Command>
    3972:	f04f 0000 	mov.w	r0, #0
    3976:	f000 fc5b 	bl	4230 <GLCD_Write_Data>
    397a:	f04f 0050 	mov.w	r0, #80	; 0x50
    397e:	f000 fc33 	bl	41e8 <GLCD_Write_Command>
    3982:	f04f 0000 	mov.w	r0, #0
    3986:	f000 fc53 	bl	4230 <GLCD_Write_Data>
    398a:	f04f 0051 	mov.w	r0, #81	; 0x51
    398e:	f000 fc2b 	bl	41e8 <GLCD_Write_Command>
    3992:	f04f 00ef 	mov.w	r0, #239	; 0xef
    3996:	f000 fc4b 	bl	4230 <GLCD_Write_Data>
    399a:	f04f 0052 	mov.w	r0, #82	; 0x52
    399e:	f000 fc23 	bl	41e8 <GLCD_Write_Command>
    39a2:	f04f 0000 	mov.w	r0, #0
    39a6:	f000 fc43 	bl	4230 <GLCD_Write_Data>
    39aa:	f04f 0053 	mov.w	r0, #83	; 0x53
    39ae:	f000 fc1b 	bl	41e8 <GLCD_Write_Command>
    39b2:	f240 103f 	movw	r0, #319	; 0x13f
    39b6:	f000 fc3b 	bl	4230 <GLCD_Write_Data>
    39ba:	f04f 0060 	mov.w	r0, #96	; 0x60
    39be:	f000 fc13 	bl	41e8 <GLCD_Write_Command>
    39c2:	f44f 501c 	mov.w	r0, #9984	; 0x2700
    39c6:	f000 fc33 	bl	4230 <GLCD_Write_Data>
    39ca:	f04f 0061 	mov.w	r0, #97	; 0x61
    39ce:	f000 fc0b 	bl	41e8 <GLCD_Write_Command>
    39d2:	f04f 0001 	mov.w	r0, #1
    39d6:	f000 fc2b 	bl	4230 <GLCD_Write_Data>
    39da:	f04f 0030 	mov.w	r0, #48	; 0x30
    39de:	f000 fc03 	bl	41e8 <GLCD_Write_Command>
    39e2:	f04f 0007 	mov.w	r0, #7
    39e6:	f000 fc23 	bl	4230 <GLCD_Write_Data>
    39ea:	f04f 0031 	mov.w	r0, #49	; 0x31
    39ee:	f000 fbfb 	bl	41e8 <GLCD_Write_Command>
    39f2:	f240 4003 	movw	r0, #1027	; 0x403
    39f6:	f000 fc1b 	bl	4230 <GLCD_Write_Data>
    39fa:	f04f 0032 	mov.w	r0, #50	; 0x32
    39fe:	f000 fbf3 	bl	41e8 <GLCD_Write_Command>
    3a02:	f240 4004 	movw	r0, #1028	; 0x404
    3a06:	f000 fc13 	bl	4230 <GLCD_Write_Data>
    3a0a:	f04f 0035 	mov.w	r0, #53	; 0x35
    3a0e:	f000 fbeb 	bl	41e8 <GLCD_Write_Command>
    3a12:	f04f 0002 	mov.w	r0, #2
    3a16:	f000 fc0b 	bl	4230 <GLCD_Write_Data>
    3a1a:	f04f 0036 	mov.w	r0, #54	; 0x36
    3a1e:	f000 fbe3 	bl	41e8 <GLCD_Write_Command>
    3a22:	f240 7007 	movw	r0, #1799	; 0x707
    3a26:	f000 fc03 	bl	4230 <GLCD_Write_Data>
    3a2a:	f04f 0037 	mov.w	r0, #55	; 0x37
    3a2e:	f000 fbdb 	bl	41e8 <GLCD_Write_Command>
    3a32:	f240 6006 	movw	r0, #1542	; 0x606
    3a36:	f000 fbfb 	bl	4230 <GLCD_Write_Data>
    3a3a:	f04f 0038 	mov.w	r0, #56	; 0x38
    3a3e:	f000 fbd3 	bl	41e8 <GLCD_Write_Command>
    3a42:	f44f 7083 	mov.w	r0, #262	; 0x106
    3a46:	f000 fbf3 	bl	4230 <GLCD_Write_Data>
    3a4a:	f04f 0039 	mov.w	r0, #57	; 0x39
    3a4e:	f000 fbcb 	bl	41e8 <GLCD_Write_Command>
    3a52:	f04f 0007 	mov.w	r0, #7
    3a56:	f000 fbeb 	bl	4230 <GLCD_Write_Data>
    3a5a:	f04f 003c 	mov.w	r0, #60	; 0x3c
    3a5e:	f000 fbc3 	bl	41e8 <GLCD_Write_Command>
    3a62:	f44f 60e0 	mov.w	r0, #1792	; 0x700
    3a66:	f000 fbe3 	bl	4230 <GLCD_Write_Data>
    3a6a:	f04f 003d 	mov.w	r0, #61	; 0x3d
    3a6e:	f000 fbbb 	bl	41e8 <GLCD_Write_Command>
    3a72:	f240 7007 	movw	r0, #1799	; 0x707
    3a76:	f000 fbdb 	bl	4230 <GLCD_Write_Data>
    3a7a:	f04f 0007 	mov.w	r0, #7
    3a7e:	f000 fbb3 	bl	41e8 <GLCD_Write_Command>
    3a82:	f240 1073 	movw	r0, #371	; 0x173
    3a86:	f000 fbd3 	bl	4230 <GLCD_Write_Data>
    3a8a:	4b08      	ldr	r3, [pc, #32]	; (3aac <drv_lcd_open+0x288>)
    3a8c:	4a07      	ldr	r2, [pc, #28]	; (3aac <drv_lcd_open+0x288>)
    3a8e:	6952      	ldr	r2, [r2, #20]
    3a90:	f042 5280 	orr.w	r2, r2, #268435456	; 0x10000000
    3a94:	615a      	str	r2, [r3, #20]
    3a96:	f04f 0014 	mov.w	r0, #20
    3a9a:	f000 fb79 	bl	4190 <delay_ms>
    3a9e:	f107 0708 	add.w	r7, r7, #8
    3aa2:	46bd      	mov	sp, r7
    3aa4:	bd80      	pop	{r7, pc}
    3aa6:	bf00      	nop
    3aa8:	00012bff 	.word	0x00012bff
    3aac:	2009c080 	.word	0x2009c080

00003ab0 <drv_lcd_bg_color>:
    3ab0:	b580      	push	{r7, lr}
    3ab2:	b084      	sub	sp, #16
    3ab4:	af00      	add	r7, sp, #0
    3ab6:	6078      	str	r0, [r7, #4]
    3ab8:	f04f 0020 	mov.w	r0, #32
    3abc:	f000 fb94 	bl	41e8 <GLCD_Write_Command>
    3ac0:	f04f 0000 	mov.w	r0, #0
    3ac4:	f000 fbb4 	bl	4230 <GLCD_Write_Data>
    3ac8:	f04f 0021 	mov.w	r0, #33	; 0x21
    3acc:	f000 fb8c 	bl	41e8 <GLCD_Write_Command>
    3ad0:	f04f 0000 	mov.w	r0, #0
    3ad4:	f000 fbac 	bl	4230 <GLCD_Write_Data>
    3ad8:	f04f 0022 	mov.w	r0, #34	; 0x22
    3adc:	f000 fb84 	bl	41e8 <GLCD_Write_Command>
    3ae0:	f04f 0300 	mov.w	r3, #0
    3ae4:	60fb      	str	r3, [r7, #12]
    3ae6:	e007      	b.n	3af8 <drv_lcd_bg_color+0x48>
    3ae8:	687b      	ldr	r3, [r7, #4]
    3aea:	4618      	mov	r0, r3
    3aec:	f000 fba0 	bl	4230 <GLCD_Write_Data>
    3af0:	68fb      	ldr	r3, [r7, #12]
    3af2:	f103 0301 	add.w	r3, r3, #1
    3af6:	60fb      	str	r3, [r7, #12]
    3af8:	68fa      	ldr	r2, [r7, #12]
    3afa:	4b03      	ldr	r3, [pc, #12]	; (3b08 <drv_lcd_bg_color+0x58>)
    3afc:	429a      	cmp	r2, r3
    3afe:	ddf3      	ble.n	3ae8 <drv_lcd_bg_color+0x38>
    3b00:	f107 0710 	add.w	r7, r7, #16
    3b04:	46bd      	mov	sp, r7
    3b06:	bd80      	pop	{r7, pc}
    3b08:	00012bff 	.word	0x00012bff

00003b0c <drv_lcd_plot_dot_hor>:
    3b0c:	b580      	push	{r7, lr}
    3b0e:	b084      	sub	sp, #16
    3b10:	af00      	add	r7, sp, #0
    3b12:	60f8      	str	r0, [r7, #12]
    3b14:	60b9      	str	r1, [r7, #8]
    3b16:	607a      	str	r2, [r7, #4]
    3b18:	f04f 0020 	mov.w	r0, #32
    3b1c:	f000 fb64 	bl	41e8 <GLCD_Write_Command>
    3b20:	68b8      	ldr	r0, [r7, #8]
    3b22:	f000 fb85 	bl	4230 <GLCD_Write_Data>
    3b26:	f04f 0021 	mov.w	r0, #33	; 0x21
    3b2a:	f000 fb5d 	bl	41e8 <GLCD_Write_Command>
    3b2e:	68f8      	ldr	r0, [r7, #12]
    3b30:	f000 fb7e 	bl	4230 <GLCD_Write_Data>
    3b34:	f04f 0022 	mov.w	r0, #34	; 0x22
    3b38:	f000 fb56 	bl	41e8 <GLCD_Write_Command>
    3b3c:	6878      	ldr	r0, [r7, #4]
    3b3e:	f000 fb77 	bl	4230 <GLCD_Write_Data>
    3b42:	f107 0710 	add.w	r7, r7, #16
    3b46:	46bd      	mov	sp, r7
    3b48:	bd80      	pop	{r7, pc}
    3b4a:	bf00      	nop

00003b4c <drv_lcd_text_7x11_hor>:
    3b4c:	b580      	push	{r7, lr}
    3b4e:	b088      	sub	sp, #32
    3b50:	af00      	add	r7, sp, #0
    3b52:	60b9      	str	r1, [r7, #8]
    3b54:	607a      	str	r2, [r7, #4]
    3b56:	603b      	str	r3, [r7, #0]
    3b58:	4603      	mov	r3, r0
    3b5a:	73fb      	strb	r3, [r7, #15]
    3b5c:	68bb      	ldr	r3, [r7, #8]
    3b5e:	61fb      	str	r3, [r7, #28]
    3b60:	687b      	ldr	r3, [r7, #4]
    3b62:	61bb      	str	r3, [r7, #24]
    3b64:	7bfb      	ldrb	r3, [r7, #15]
    3b66:	f1a3 0320 	sub.w	r3, r3, #32
    3b6a:	73fb      	strb	r3, [r7, #15]
    3b6c:	f04f 0300 	mov.w	r3, #0
    3b70:	75fb      	strb	r3, [r7, #23]
    3b72:	e0bd      	b.n	3cf0 <drv_lcd_text_7x11_hor+0x1a4>
    3b74:	7bfa      	ldrb	r2, [r7, #15]
    3b76:	7df8      	ldrb	r0, [r7, #23]
    3b78:	4976      	ldr	r1, [pc, #472]	; (3d54 <drv_lcd_text_7x11_hor+0x208>)
    3b7a:	4613      	mov	r3, r2
    3b7c:	ea4f 03c3 	mov.w	r3, r3, lsl #3
    3b80:	1a9b      	subs	r3, r3, r2
    3b82:	ea4f 0343 	mov.w	r3, r3, lsl #1
    3b86:	181b      	adds	r3, r3, r0
    3b88:	18cb      	adds	r3, r1, r3
    3b8a:	781b      	ldrb	r3, [r3, #0]
    3b8c:	757b      	strb	r3, [r7, #21]
    3b8e:	f04f 0300 	mov.w	r3, #0
    3b92:	75bb      	strb	r3, [r7, #22]
    3b94:	e043      	b.n	3c1e <drv_lcd_text_7x11_hor+0xd2>
    3b96:	7d7b      	ldrb	r3, [r7, #21]
    3b98:	b25b      	sxtb	r3, r3
    3b9a:	2b00      	cmp	r3, #0
    3b9c:	da18      	bge.n	3bd0 <drv_lcd_text_7x11_hor+0x84>
    3b9e:	f04f 0020 	mov.w	r0, #32
    3ba2:	f000 fb21 	bl	41e8 <GLCD_Write_Command>
    3ba6:	69bb      	ldr	r3, [r7, #24]
    3ba8:	4618      	mov	r0, r3
    3baa:	f000 fb41 	bl	4230 <GLCD_Write_Data>
    3bae:	f04f 0021 	mov.w	r0, #33	; 0x21
    3bb2:	f000 fb19 	bl	41e8 <GLCD_Write_Command>
    3bb6:	69fb      	ldr	r3, [r7, #28]
    3bb8:	4618      	mov	r0, r3
    3bba:	f000 fb39 	bl	4230 <GLCD_Write_Data>
    3bbe:	f04f 0022 	mov.w	r0, #34	; 0x22
    3bc2:	f000 fb11 	bl	41e8 <GLCD_Write_Command>
    3bc6:	683b      	ldr	r3, [r7, #0]
    3bc8:	4618      	mov	r0, r3
    3bca:	f000 fb31 	bl	4230 <GLCD_Write_Data>
    3bce:	e01a      	b.n	3c06 <drv_lcd_text_7x11_hor+0xba>
    3bd0:	6abb      	ldr	r3, [r7, #40]	; 0x28
    3bd2:	2b01      	cmp	r3, #1
    3bd4:	d017      	beq.n	3c06 <drv_lcd_text_7x11_hor+0xba>
    3bd6:	f04f 0020 	mov.w	r0, #32
    3bda:	f000 fb05 	bl	41e8 <GLCD_Write_Command>
    3bde:	69bb      	ldr	r3, [r7, #24]
    3be0:	4618      	mov	r0, r3
    3be2:	f000 fb25 	bl	4230 <GLCD_Write_Data>
    3be6:	f04f 0021 	mov.w	r0, #33	; 0x21
    3bea:	f000 fafd 	bl	41e8 <GLCD_Write_Command>
    3bee:	69fb      	ldr	r3, [r7, #28]
    3bf0:	4618      	mov	r0, r3
    3bf2:	f000 fb1d 	bl	4230 <GLCD_Write_Data>
    3bf6:	f04f 0022 	mov.w	r0, #34	; 0x22
    3bfa:	f000 faf5 	bl	41e8 <GLCD_Write_Command>
    3bfe:	6abb      	ldr	r3, [r7, #40]	; 0x28
    3c00:	4618      	mov	r0, r3
    3c02:	f000 fb15 	bl	4230 <GLCD_Write_Data>
    3c06:	7d7b      	ldrb	r3, [r7, #21]
    3c08:	ea4f 0343 	mov.w	r3, r3, lsl #1
    3c0c:	757b      	strb	r3, [r7, #21]
    3c0e:	69bb      	ldr	r3, [r7, #24]
    3c10:	f103 0301 	add.w	r3, r3, #1
    3c14:	61bb      	str	r3, [r7, #24]
    3c16:	7dbb      	ldrb	r3, [r7, #22]
    3c18:	f103 0301 	add.w	r3, r3, #1
    3c1c:	75bb      	strb	r3, [r7, #22]
    3c1e:	7dbb      	ldrb	r3, [r7, #22]
    3c20:	2b07      	cmp	r3, #7
    3c22:	d9b8      	bls.n	3b96 <drv_lcd_text_7x11_hor+0x4a>
    3c24:	7dfb      	ldrb	r3, [r7, #23]
    3c26:	f103 0301 	add.w	r3, r3, #1
    3c2a:	75fb      	strb	r3, [r7, #23]
    3c2c:	7bfa      	ldrb	r2, [r7, #15]
    3c2e:	7df8      	ldrb	r0, [r7, #23]
    3c30:	4948      	ldr	r1, [pc, #288]	; (3d54 <drv_lcd_text_7x11_hor+0x208>)
    3c32:	4613      	mov	r3, r2
    3c34:	ea4f 03c3 	mov.w	r3, r3, lsl #3
    3c38:	1a9b      	subs	r3, r3, r2
    3c3a:	ea4f 0343 	mov.w	r3, r3, lsl #1
    3c3e:	181b      	adds	r3, r3, r0
    3c40:	18cb      	adds	r3, r1, r3
    3c42:	781b      	ldrb	r3, [r3, #0]
    3c44:	757b      	strb	r3, [r7, #21]
    3c46:	f04f 0300 	mov.w	r3, #0
    3c4a:	75bb      	strb	r3, [r7, #22]
    3c4c:	e043      	b.n	3cd6 <drv_lcd_text_7x11_hor+0x18a>
    3c4e:	7d7b      	ldrb	r3, [r7, #21]
    3c50:	b25b      	sxtb	r3, r3
    3c52:	2b00      	cmp	r3, #0
    3c54:	da18      	bge.n	3c88 <drv_lcd_text_7x11_hor+0x13c>
    3c56:	f04f 0020 	mov.w	r0, #32
    3c5a:	f000 fac5 	bl	41e8 <GLCD_Write_Command>
    3c5e:	69bb      	ldr	r3, [r7, #24]
    3c60:	4618      	mov	r0, r3
    3c62:	f000 fae5 	bl	4230 <GLCD_Write_Data>
    3c66:	f04f 0021 	mov.w	r0, #33	; 0x21
    3c6a:	f000 fabd 	bl	41e8 <GLCD_Write_Command>
    3c6e:	69fb      	ldr	r3, [r7, #28]
    3c70:	4618      	mov	r0, r3
    3c72:	f000 fadd 	bl	4230 <GLCD_Write_Data>
    3c76:	f04f 0022 	mov.w	r0, #34	; 0x22
    3c7a:	f000 fab5 	bl	41e8 <GLCD_Write_Command>
    3c7e:	683b      	ldr	r3, [r7, #0]
    3c80:	4618      	mov	r0, r3
    3c82:	f000 fad5 	bl	4230 <GLCD_Write_Data>
    3c86:	e01a      	b.n	3cbe <drv_lcd_text_7x11_hor+0x172>
    3c88:	6abb      	ldr	r3, [r7, #40]	; 0x28
    3c8a:	2b01      	cmp	r3, #1
    3c8c:	d017      	beq.n	3cbe <drv_lcd_text_7x11_hor+0x172>
    3c8e:	f04f 0020 	mov.w	r0, #32
    3c92:	f000 faa9 	bl	41e8 <GLCD_Write_Command>
    3c96:	69bb      	ldr	r3, [r7, #24]
    3c98:	4618      	mov	r0, r3
    3c9a:	f000 fac9 	bl	4230 <GLCD_Write_Data>
    3c9e:	f04f 0021 	mov.w	r0, #33	; 0x21
    3ca2:	f000 faa1 	bl	41e8 <GLCD_Write_Command>
    3ca6:	69fb      	ldr	r3, [r7, #28]
    3ca8:	4618      	mov	r0, r3
    3caa:	f000 fac1 	bl	4230 <GLCD_Write_Data>
    3cae:	f04f 0022 	mov.w	r0, #34	; 0x22
    3cb2:	f000 fa99 	bl	41e8 <GLCD_Write_Command>
    3cb6:	6abb      	ldr	r3, [r7, #40]	; 0x28
    3cb8:	4618      	mov	r0, r3
    3cba:	f000 fab9 	bl	4230 <GLCD_Write_Data>
    3cbe:	7d7b      	ldrb	r3, [r7, #21]
    3cc0:	ea4f 0343 	mov.w	r3, r3, lsl #1
    3cc4:	757b      	strb	r3, [r7, #21]
    3cc6:	69bb      	ldr	r3, [r7, #24]
    3cc8:	f103 0301 	add.w	r3, r3, #1
    3ccc:	61bb      	str	r3, [r7, #24]
    3cce:	7dbb      	ldrb	r3, [r7, #22]
    3cd0:	f103 0301 	add.w	r3, r3, #1
    3cd4:	75bb      	strb	r3, [r7, #22]
    3cd6:	7dbb      	ldrb	r3, [r7, #22]
    3cd8:	2b02      	cmp	r3, #2
    3cda:	d9b8      	bls.n	3c4e <drv_lcd_text_7x11_hor+0x102>
    3cdc:	69fb      	ldr	r3, [r7, #28]
    3cde:	f103 0301 	add.w	r3, r3, #1
    3ce2:	61fb      	str	r3, [r7, #28]
    3ce4:	687b      	ldr	r3, [r7, #4]
    3ce6:	61bb      	str	r3, [r7, #24]
    3ce8:	7dfb      	ldrb	r3, [r7, #23]
    3cea:	f103 0301 	add.w	r3, r3, #1
    3cee:	75fb      	strb	r3, [r7, #23]
    3cf0:	7dfb      	ldrb	r3, [r7, #23]
    3cf2:	2b0d      	cmp	r3, #13
    3cf4:	f67f af3e 	bls.w	3b74 <drv_lcd_text_7x11_hor+0x28>
    3cf8:	6abb      	ldr	r3, [r7, #40]	; 0x28
    3cfa:	2b01      	cmp	r3, #1
    3cfc:	d026      	beq.n	3d4c <drv_lcd_text_7x11_hor+0x200>
    3cfe:	f04f 0300 	mov.w	r3, #0
    3d02:	75bb      	strb	r3, [r7, #22]
    3d04:	e01f      	b.n	3d46 <drv_lcd_text_7x11_hor+0x1fa>
    3d06:	f04f 0020 	mov.w	r0, #32
    3d0a:	f000 fa6d 	bl	41e8 <GLCD_Write_Command>
    3d0e:	69bb      	ldr	r3, [r7, #24]
    3d10:	4618      	mov	r0, r3
    3d12:	f000 fa8d 	bl	4230 <GLCD_Write_Data>
    3d16:	f04f 0021 	mov.w	r0, #33	; 0x21
    3d1a:	f000 fa65 	bl	41e8 <GLCD_Write_Command>
    3d1e:	69fb      	ldr	r3, [r7, #28]
    3d20:	4618      	mov	r0, r3
    3d22:	f000 fa85 	bl	4230 <GLCD_Write_Data>
    3d26:	f04f 0022 	mov.w	r0, #34	; 0x22
    3d2a:	f000 fa5d 	bl	41e8 <GLCD_Write_Command>
    3d2e:	6abb      	ldr	r3, [r7, #40]	; 0x28
    3d30:	4618      	mov	r0, r3
    3d32:	f000 fa7d 	bl	4230 <GLCD_Write_Data>
    3d36:	69bb      	ldr	r3, [r7, #24]
    3d38:	f103 0301 	add.w	r3, r3, #1
    3d3c:	61bb      	str	r3, [r7, #24]
    3d3e:	7dbb      	ldrb	r3, [r7, #22]
    3d40:	f103 0301 	add.w	r3, r3, #1
    3d44:	75bb      	strb	r3, [r7, #22]
    3d46:	7dbb      	ldrb	r3, [r7, #22]
    3d48:	2b0a      	cmp	r3, #10
    3d4a:	d9dc      	bls.n	3d06 <drv_lcd_text_7x11_hor+0x1ba>
    3d4c:	f107 0720 	add.w	r7, r7, #32
    3d50:	46bd      	mov	sp, r7
    3d52:	bd80      	pop	{r7, pc}
    3d54:	00007338 	.word	0x00007338

00003d58 <drv_lcd_printStr_hor>:
    3d58:	b580      	push	{r7, lr}
    3d5a:	b088      	sub	sp, #32
    3d5c:	af02      	add	r7, sp, #8
    3d5e:	60f8      	str	r0, [r7, #12]
    3d60:	60b9      	str	r1, [r7, #8]
    3d62:	607a      	str	r2, [r7, #4]
    3d64:	603b      	str	r3, [r7, #0]
    3d66:	f04f 0300 	mov.w	r3, #0
    3d6a:	75fb      	strb	r3, [r7, #23]
    3d6c:	e013      	b.n	3d96 <drv_lcd_printStr_hor+0x3e>
    3d6e:	7dfb      	ldrb	r3, [r7, #23]
    3d70:	68fa      	ldr	r2, [r7, #12]
    3d72:	18d3      	adds	r3, r2, r3
    3d74:	781b      	ldrb	r3, [r3, #0]
    3d76:	6a3a      	ldr	r2, [r7, #32]
    3d78:	9200      	str	r2, [sp, #0]
    3d7a:	4618      	mov	r0, r3
    3d7c:	68b9      	ldr	r1, [r7, #8]
    3d7e:	687a      	ldr	r2, [r7, #4]
    3d80:	683b      	ldr	r3, [r7, #0]
    3d82:	f7ff fee3 	bl	3b4c <drv_lcd_text_7x11_hor>
    3d86:	68bb      	ldr	r3, [r7, #8]
    3d88:	f103 0308 	add.w	r3, r3, #8
    3d8c:	60bb      	str	r3, [r7, #8]
    3d8e:	7dfb      	ldrb	r3, [r7, #23]
    3d90:	f103 0301 	add.w	r3, r3, #1
    3d94:	75fb      	strb	r3, [r7, #23]
    3d96:	7dfb      	ldrb	r3, [r7, #23]
    3d98:	68fa      	ldr	r2, [r7, #12]
    3d9a:	18d3      	adds	r3, r2, r3
    3d9c:	781b      	ldrb	r3, [r3, #0]
    3d9e:	2b00      	cmp	r3, #0
    3da0:	d1e5      	bne.n	3d6e <drv_lcd_printStr_hor+0x16>
    3da2:	f107 0718 	add.w	r7, r7, #24
    3da6:	46bd      	mov	sp, r7
    3da8:	bd80      	pop	{r7, pc}
    3daa:	bf00      	nop

00003dac <drv_lcd_line>:
    3dac:	e92d 43b0 	stmdb	sp!, {r4, r5, r7, r8, r9, lr}
    3db0:	b096      	sub	sp, #88	; 0x58
    3db2:	af00      	add	r7, sp, #0
    3db4:	60f8      	str	r0, [r7, #12]
    3db6:	60b9      	str	r1, [r7, #8]
    3db8:	607a      	str	r2, [r7, #4]
    3dba:	603b      	str	r3, [r7, #0]
    3dbc:	68fb      	ldr	r3, [r7, #12]
    3dbe:	653b      	str	r3, [r7, #80]	; 0x50
    3dc0:	68fb      	ldr	r3, [r7, #12]
    3dc2:	633b      	str	r3, [r7, #48]	; 0x30
    3dc4:	68bb      	ldr	r3, [r7, #8]
    3dc6:	64fb      	str	r3, [r7, #76]	; 0x4c
    3dc8:	687b      	ldr	r3, [r7, #4]
    3dca:	64bb      	str	r3, [r7, #72]	; 0x48
    3dcc:	687b      	ldr	r3, [r7, #4]
    3dce:	62fb      	str	r3, [r7, #44]	; 0x2c
    3dd0:	683b      	ldr	r3, [r7, #0]
    3dd2:	647b      	str	r3, [r7, #68]	; 0x44
    3dd4:	68fa      	ldr	r2, [r7, #12]
    3dd6:	687b      	ldr	r3, [r7, #4]
    3dd8:	429a      	cmp	r2, r3
    3dda:	dd07      	ble.n	3dec <drv_lcd_line+0x40>
    3ddc:	687b      	ldr	r3, [r7, #4]
    3dde:	653b      	str	r3, [r7, #80]	; 0x50
    3de0:	683b      	ldr	r3, [r7, #0]
    3de2:	64fb      	str	r3, [r7, #76]	; 0x4c
    3de4:	68fb      	ldr	r3, [r7, #12]
    3de6:	64bb      	str	r3, [r7, #72]	; 0x48
    3de8:	68bb      	ldr	r3, [r7, #8]
    3dea:	647b      	str	r3, [r7, #68]	; 0x44
    3dec:	6cba      	ldr	r2, [r7, #72]	; 0x48
    3dee:	6d3b      	ldr	r3, [r7, #80]	; 0x50
    3df0:	1ad3      	subs	r3, r2, r3
    3df2:	4618      	mov	r0, r3
    3df4:	f002 f924 	bl	6040 <__aeabi_i2d>
    3df8:	4602      	mov	r2, r0
    3dfa:	460b      	mov	r3, r1
    3dfc:	4690      	mov	r8, r2
    3dfe:	f023 4900 	bic.w	r9, r3, #2147483648	; 0x80000000
    3e02:	4640      	mov	r0, r8
    3e04:	4649      	mov	r1, r9
    3e06:	f002 fc1b 	bl	6640 <__aeabi_d2iz>
    3e0a:	4603      	mov	r3, r0
    3e0c:	62bb      	str	r3, [r7, #40]	; 0x28
    3e0e:	6c7a      	ldr	r2, [r7, #68]	; 0x44
    3e10:	6cfb      	ldr	r3, [r7, #76]	; 0x4c
    3e12:	1ad3      	subs	r3, r2, r3
    3e14:	4618      	mov	r0, r3
    3e16:	f002 f913 	bl	6040 <__aeabi_i2d>
    3e1a:	4602      	mov	r2, r0
    3e1c:	460b      	mov	r3, r1
    3e1e:	4614      	mov	r4, r2
    3e20:	f023 4500 	bic.w	r5, r3, #2147483648	; 0x80000000
    3e24:	4620      	mov	r0, r4
    3e26:	4629      	mov	r1, r5
    3e28:	f002 fc0a 	bl	6640 <__aeabi_d2iz>
    3e2c:	4603      	mov	r3, r0
    3e2e:	627b      	str	r3, [r7, #36]	; 0x24
    3e30:	6c7a      	ldr	r2, [r7, #68]	; 0x44
    3e32:	6cfb      	ldr	r3, [r7, #76]	; 0x4c
    3e34:	429a      	cmp	r2, r3
    3e36:	db03      	blt.n	3e40 <drv_lcd_line+0x94>
    3e38:	f04f 0301 	mov.w	r3, #1
    3e3c:	643b      	str	r3, [r7, #64]	; 0x40
    3e3e:	e002      	b.n	3e46 <drv_lcd_line+0x9a>
    3e40:	f04f 33ff 	mov.w	r3, #4294967295
    3e44:	643b      	str	r3, [r7, #64]	; 0x40
    3e46:	6aba      	ldr	r2, [r7, #40]	; 0x28
    3e48:	6a7b      	ldr	r3, [r7, #36]	; 0x24
    3e4a:	429a      	cmp	r2, r3
    3e4c:	dd5b      	ble.n	3f06 <drv_lcd_line+0x15a>
    3e4e:	6a7b      	ldr	r3, [r7, #36]	; 0x24
    3e50:	ea4f 0343 	mov.w	r3, r3, lsl #1
    3e54:	623b      	str	r3, [r7, #32]
    3e56:	6a7a      	ldr	r2, [r7, #36]	; 0x24
    3e58:	6abb      	ldr	r3, [r7, #40]	; 0x28
    3e5a:	1ad3      	subs	r3, r2, r3
    3e5c:	ea4f 0343 	mov.w	r3, r3, lsl #1
    3e60:	61fb      	str	r3, [r7, #28]
    3e62:	6a7b      	ldr	r3, [r7, #36]	; 0x24
    3e64:	ea4f 0243 	mov.w	r2, r3, lsl #1
    3e68:	6abb      	ldr	r3, [r7, #40]	; 0x28
    3e6a:	1ad3      	subs	r3, r2, r3
    3e6c:	637b      	str	r3, [r7, #52]	; 0x34
    3e6e:	6d3b      	ldr	r3, [r7, #80]	; 0x50
    3e70:	63fb      	str	r3, [r7, #60]	; 0x3c
    3e72:	6cfb      	ldr	r3, [r7, #76]	; 0x4c
    3e74:	63bb      	str	r3, [r7, #56]	; 0x38
    3e76:	e041      	b.n	3efc <drv_lcd_line+0x150>
    3e78:	f04f 0300 	mov.w	r3, #0
    3e7c:	f887 3057 	strb.w	r3, [r7, #87]	; 0x57
    3e80:	e022      	b.n	3ec8 <drv_lcd_line+0x11c>
    3e82:	6b3a      	ldr	r2, [r7, #48]	; 0x30
    3e84:	6afb      	ldr	r3, [r7, #44]	; 0x2c
    3e86:	429a      	cmp	r2, r3
    3e88:	d10c      	bne.n	3ea4 <drv_lcd_line+0xf8>
    3e8a:	f897 2057 	ldrb.w	r2, [r7, #87]	; 0x57
    3e8e:	6bfb      	ldr	r3, [r7, #60]	; 0x3c
    3e90:	18d3      	adds	r3, r2, r3
    3e92:	4619      	mov	r1, r3
    3e94:	6bba      	ldr	r2, [r7, #56]	; 0x38
    3e96:	6f7b      	ldr	r3, [r7, #116]	; 0x74
    3e98:	4608      	mov	r0, r1
    3e9a:	4611      	mov	r1, r2
    3e9c:	461a      	mov	r2, r3
    3e9e:	f7ff fe35 	bl	3b0c <drv_lcd_plot_dot_hor>
    3ea2:	e00b      	b.n	3ebc <drv_lcd_line+0x110>
    3ea4:	6bf9      	ldr	r1, [r7, #60]	; 0x3c
    3ea6:	f897 2057 	ldrb.w	r2, [r7, #87]	; 0x57
    3eaa:	6bbb      	ldr	r3, [r7, #56]	; 0x38
    3eac:	18d3      	adds	r3, r2, r3
    3eae:	461a      	mov	r2, r3
    3eb0:	6f7b      	ldr	r3, [r7, #116]	; 0x74
    3eb2:	4608      	mov	r0, r1
    3eb4:	4611      	mov	r1, r2
    3eb6:	461a      	mov	r2, r3
    3eb8:	f7ff fe28 	bl	3b0c <drv_lcd_plot_dot_hor>
    3ebc:	f897 3057 	ldrb.w	r3, [r7, #87]	; 0x57
    3ec0:	f103 0301 	add.w	r3, r3, #1
    3ec4:	f887 3057 	strb.w	r3, [r7, #87]	; 0x57
    3ec8:	f897 2057 	ldrb.w	r2, [r7, #87]	; 0x57
    3ecc:	f897 3070 	ldrb.w	r3, [r7, #112]	; 0x70
    3ed0:	429a      	cmp	r2, r3
    3ed2:	d3d6      	bcc.n	3e82 <drv_lcd_line+0xd6>
    3ed4:	6bfb      	ldr	r3, [r7, #60]	; 0x3c
    3ed6:	f103 0301 	add.w	r3, r3, #1
    3eda:	63fb      	str	r3, [r7, #60]	; 0x3c
    3edc:	6b7b      	ldr	r3, [r7, #52]	; 0x34
    3ede:	2b00      	cmp	r3, #0
    3ee0:	da04      	bge.n	3eec <drv_lcd_line+0x140>
    3ee2:	6b7a      	ldr	r2, [r7, #52]	; 0x34
    3ee4:	6a3b      	ldr	r3, [r7, #32]
    3ee6:	18d3      	adds	r3, r2, r3
    3ee8:	637b      	str	r3, [r7, #52]	; 0x34
    3eea:	e007      	b.n	3efc <drv_lcd_line+0x150>
    3eec:	6bba      	ldr	r2, [r7, #56]	; 0x38
    3eee:	6c3b      	ldr	r3, [r7, #64]	; 0x40
    3ef0:	18d3      	adds	r3, r2, r3
    3ef2:	63bb      	str	r3, [r7, #56]	; 0x38
    3ef4:	6b7a      	ldr	r2, [r7, #52]	; 0x34
    3ef6:	69fb      	ldr	r3, [r7, #28]
    3ef8:	18d3      	adds	r3, r2, r3
    3efa:	637b      	str	r3, [r7, #52]	; 0x34
    3efc:	6bfa      	ldr	r2, [r7, #60]	; 0x3c
    3efe:	6cbb      	ldr	r3, [r7, #72]	; 0x48
    3f00:	429a      	cmp	r2, r3
    3f02:	ddb9      	ble.n	3e78 <drv_lcd_line+0xcc>
    3f04:	e05a      	b.n	3fbc <drv_lcd_line+0x210>
    3f06:	6abb      	ldr	r3, [r7, #40]	; 0x28
    3f08:	ea4f 0343 	mov.w	r3, r3, lsl #1
    3f0c:	61bb      	str	r3, [r7, #24]
    3f0e:	6aba      	ldr	r2, [r7, #40]	; 0x28
    3f10:	6a7b      	ldr	r3, [r7, #36]	; 0x24
    3f12:	1ad3      	subs	r3, r2, r3
    3f14:	ea4f 0343 	mov.w	r3, r3, lsl #1
    3f18:	617b      	str	r3, [r7, #20]
    3f1a:	6abb      	ldr	r3, [r7, #40]	; 0x28
    3f1c:	ea4f 0243 	mov.w	r2, r3, lsl #1
    3f20:	6a7b      	ldr	r3, [r7, #36]	; 0x24
    3f22:	1ad3      	subs	r3, r2, r3
    3f24:	637b      	str	r3, [r7, #52]	; 0x34
    3f26:	6d3b      	ldr	r3, [r7, #80]	; 0x50
    3f28:	63fb      	str	r3, [r7, #60]	; 0x3c
    3f2a:	6cfb      	ldr	r3, [r7, #76]	; 0x4c
    3f2c:	63bb      	str	r3, [r7, #56]	; 0x38
    3f2e:	e041      	b.n	3fb4 <drv_lcd_line+0x208>
    3f30:	f04f 0300 	mov.w	r3, #0
    3f34:	f887 3057 	strb.w	r3, [r7, #87]	; 0x57
    3f38:	e022      	b.n	3f80 <drv_lcd_line+0x1d4>
    3f3a:	6b3a      	ldr	r2, [r7, #48]	; 0x30
    3f3c:	6afb      	ldr	r3, [r7, #44]	; 0x2c
    3f3e:	429a      	cmp	r2, r3
    3f40:	d10c      	bne.n	3f5c <drv_lcd_line+0x1b0>
    3f42:	f897 2057 	ldrb.w	r2, [r7, #87]	; 0x57
    3f46:	6bfb      	ldr	r3, [r7, #60]	; 0x3c
    3f48:	18d3      	adds	r3, r2, r3
    3f4a:	4619      	mov	r1, r3
    3f4c:	6bba      	ldr	r2, [r7, #56]	; 0x38
    3f4e:	6f7b      	ldr	r3, [r7, #116]	; 0x74
    3f50:	4608      	mov	r0, r1
    3f52:	4611      	mov	r1, r2
    3f54:	461a      	mov	r2, r3
    3f56:	f7ff fdd9 	bl	3b0c <drv_lcd_plot_dot_hor>
    3f5a:	e00b      	b.n	3f74 <drv_lcd_line+0x1c8>
    3f5c:	6bf9      	ldr	r1, [r7, #60]	; 0x3c
    3f5e:	f897 2057 	ldrb.w	r2, [r7, #87]	; 0x57
    3f62:	6bbb      	ldr	r3, [r7, #56]	; 0x38
    3f64:	18d3      	adds	r3, r2, r3
    3f66:	461a      	mov	r2, r3
    3f68:	6f7b      	ldr	r3, [r7, #116]	; 0x74
    3f6a:	4608      	mov	r0, r1
    3f6c:	4611      	mov	r1, r2
    3f6e:	461a      	mov	r2, r3
    3f70:	f7ff fdcc 	bl	3b0c <drv_lcd_plot_dot_hor>
    3f74:	f897 3057 	ldrb.w	r3, [r7, #87]	; 0x57
    3f78:	f103 0301 	add.w	r3, r3, #1
    3f7c:	f887 3057 	strb.w	r3, [r7, #87]	; 0x57
    3f80:	f897 2057 	ldrb.w	r2, [r7, #87]	; 0x57
    3f84:	f897 3070 	ldrb.w	r3, [r7, #112]	; 0x70
    3f88:	429a      	cmp	r2, r3
    3f8a:	d3d6      	bcc.n	3f3a <drv_lcd_line+0x18e>
    3f8c:	6bba      	ldr	r2, [r7, #56]	; 0x38
    3f8e:	6c3b      	ldr	r3, [r7, #64]	; 0x40
    3f90:	18d3      	adds	r3, r2, r3
    3f92:	63bb      	str	r3, [r7, #56]	; 0x38
    3f94:	6b7b      	ldr	r3, [r7, #52]	; 0x34
    3f96:	2b00      	cmp	r3, #0
    3f98:	da04      	bge.n	3fa4 <drv_lcd_line+0x1f8>
    3f9a:	6b7a      	ldr	r2, [r7, #52]	; 0x34
    3f9c:	69bb      	ldr	r3, [r7, #24]
    3f9e:	18d3      	adds	r3, r2, r3
    3fa0:	637b      	str	r3, [r7, #52]	; 0x34
    3fa2:	e007      	b.n	3fb4 <drv_lcd_line+0x208>
    3fa4:	6bfb      	ldr	r3, [r7, #60]	; 0x3c
    3fa6:	f103 0301 	add.w	r3, r3, #1
    3faa:	63fb      	str	r3, [r7, #60]	; 0x3c
    3fac:	6b7a      	ldr	r2, [r7, #52]	; 0x34
    3fae:	697b      	ldr	r3, [r7, #20]
    3fb0:	18d3      	adds	r3, r2, r3
    3fb2:	637b      	str	r3, [r7, #52]	; 0x34
    3fb4:	6bba      	ldr	r2, [r7, #56]	; 0x38
    3fb6:	6c7b      	ldr	r3, [r7, #68]	; 0x44
    3fb8:	429a      	cmp	r2, r3
    3fba:	d1b9      	bne.n	3f30 <drv_lcd_line+0x184>
    3fbc:	f107 0758 	add.w	r7, r7, #88	; 0x58
    3fc0:	46bd      	mov	sp, r7
    3fc2:	e8bd 83b0 	ldmia.w	sp!, {r4, r5, r7, r8, r9, pc}
    3fc6:	bf00      	nop

00003fc8 <drv_lcd_rectan>:
    3fc8:	b580      	push	{r7, lr}
    3fca:	b08c      	sub	sp, #48	; 0x30
    3fcc:	af02      	add	r7, sp, #8
    3fce:	60f8      	str	r0, [r7, #12]
    3fd0:	60b9      	str	r1, [r7, #8]
    3fd2:	607a      	str	r2, [r7, #4]
    3fd4:	603b      	str	r3, [r7, #0]
    3fd6:	f897 3030 	ldrb.w	r3, [r7, #48]	; 0x30
    3fda:	f103 33ff 	add.w	r3, r3, #4294967295
    3fde:	74fb      	strb	r3, [r7, #19]
    3fe0:	f897 3038 	ldrb.w	r3, [r7, #56]	; 0x38
    3fe4:	2b01      	cmp	r3, #1
    3fe6:	d136      	bne.n	4056 <drv_lcd_rectan+0x8e>
    3fe8:	68fa      	ldr	r2, [r7, #12]
    3fea:	687b      	ldr	r3, [r7, #4]
    3fec:	429a      	cmp	r2, r3
    3fee:	da04      	bge.n	3ffa <drv_lcd_rectan+0x32>
    3ff0:	68fb      	ldr	r3, [r7, #12]
    3ff2:	627b      	str	r3, [r7, #36]	; 0x24
    3ff4:	687b      	ldr	r3, [r7, #4]
    3ff6:	623b      	str	r3, [r7, #32]
    3ff8:	e003      	b.n	4002 <drv_lcd_rectan+0x3a>
    3ffa:	687b      	ldr	r3, [r7, #4]
    3ffc:	627b      	str	r3, [r7, #36]	; 0x24
    3ffe:	68fb      	ldr	r3, [r7, #12]
    4000:	623b      	str	r3, [r7, #32]
    4002:	68ba      	ldr	r2, [r7, #8]
    4004:	683b      	ldr	r3, [r7, #0]
    4006:	429a      	cmp	r2, r3
    4008:	da04      	bge.n	4014 <drv_lcd_rectan+0x4c>
    400a:	68bb      	ldr	r3, [r7, #8]
    400c:	61fb      	str	r3, [r7, #28]
    400e:	683b      	ldr	r3, [r7, #0]
    4010:	61bb      	str	r3, [r7, #24]
    4012:	e01b      	b.n	404c <drv_lcd_rectan+0x84>
    4014:	683b      	ldr	r3, [r7, #0]
    4016:	61fb      	str	r3, [r7, #28]
    4018:	68bb      	ldr	r3, [r7, #8]
    401a:	61bb      	str	r3, [r7, #24]
    401c:	e016      	b.n	404c <drv_lcd_rectan+0x84>
    401e:	69fb      	ldr	r3, [r7, #28]
    4020:	617b      	str	r3, [r7, #20]
    4022:	e00b      	b.n	403c <drv_lcd_rectan+0x74>
    4024:	6a79      	ldr	r1, [r7, #36]	; 0x24
    4026:	697a      	ldr	r2, [r7, #20]
    4028:	6b7b      	ldr	r3, [r7, #52]	; 0x34
    402a:	4608      	mov	r0, r1
    402c:	4611      	mov	r1, r2
    402e:	461a      	mov	r2, r3
    4030:	f7ff fd6c 	bl	3b0c <drv_lcd_plot_dot_hor>
    4034:	697b      	ldr	r3, [r7, #20]
    4036:	f103 0301 	add.w	r3, r3, #1
    403a:	617b      	str	r3, [r7, #20]
    403c:	697a      	ldr	r2, [r7, #20]
    403e:	69bb      	ldr	r3, [r7, #24]
    4040:	429a      	cmp	r2, r3
    4042:	ddef      	ble.n	4024 <drv_lcd_rectan+0x5c>
    4044:	6a7b      	ldr	r3, [r7, #36]	; 0x24
    4046:	f103 0301 	add.w	r3, r3, #1
    404a:	627b      	str	r3, [r7, #36]	; 0x24
    404c:	6a7a      	ldr	r2, [r7, #36]	; 0x24
    404e:	6a3b      	ldr	r3, [r7, #32]
    4050:	429a      	cmp	r2, r3
    4052:	dde4      	ble.n	401e <drv_lcd_rectan+0x56>
    4054:	e036      	b.n	40c4 <drv_lcd_rectan+0xfc>
    4056:	7cfb      	ldrb	r3, [r7, #19]
    4058:	68ba      	ldr	r2, [r7, #8]
    405a:	1ad2      	subs	r2, r2, r3
    405c:	7cfb      	ldrb	r3, [r7, #19]
    405e:	68b9      	ldr	r1, [r7, #8]
    4060:	1acb      	subs	r3, r1, r3
    4062:	f897 1030 	ldrb.w	r1, [r7, #48]	; 0x30
    4066:	9100      	str	r1, [sp, #0]
    4068:	6b79      	ldr	r1, [r7, #52]	; 0x34
    406a:	9101      	str	r1, [sp, #4]
    406c:	68f8      	ldr	r0, [r7, #12]
    406e:	4611      	mov	r1, r2
    4070:	687a      	ldr	r2, [r7, #4]
    4072:	f7ff fe9b 	bl	3dac <drv_lcd_line>
    4076:	f897 3030 	ldrb.w	r3, [r7, #48]	; 0x30
    407a:	9300      	str	r3, [sp, #0]
    407c:	6b7b      	ldr	r3, [r7, #52]	; 0x34
    407e:	9301      	str	r3, [sp, #4]
    4080:	68f8      	ldr	r0, [r7, #12]
    4082:	6839      	ldr	r1, [r7, #0]
    4084:	687a      	ldr	r2, [r7, #4]
    4086:	683b      	ldr	r3, [r7, #0]
    4088:	f7ff fe90 	bl	3dac <drv_lcd_line>
    408c:	f897 3030 	ldrb.w	r3, [r7, #48]	; 0x30
    4090:	9300      	str	r3, [sp, #0]
    4092:	6b7b      	ldr	r3, [r7, #52]	; 0x34
    4094:	9301      	str	r3, [sp, #4]
    4096:	68f8      	ldr	r0, [r7, #12]
    4098:	68b9      	ldr	r1, [r7, #8]
    409a:	68fa      	ldr	r2, [r7, #12]
    409c:	683b      	ldr	r3, [r7, #0]
    409e:	f7ff fe85 	bl	3dac <drv_lcd_line>
    40a2:	7cfb      	ldrb	r3, [r7, #19]
    40a4:	687a      	ldr	r2, [r7, #4]
    40a6:	1ad2      	subs	r2, r2, r3
    40a8:	7cfb      	ldrb	r3, [r7, #19]
    40aa:	6879      	ldr	r1, [r7, #4]
    40ac:	1acb      	subs	r3, r1, r3
    40ae:	f897 1030 	ldrb.w	r1, [r7, #48]	; 0x30
    40b2:	9100      	str	r1, [sp, #0]
    40b4:	6b79      	ldr	r1, [r7, #52]	; 0x34
    40b6:	9101      	str	r1, [sp, #4]
    40b8:	4610      	mov	r0, r2
    40ba:	68b9      	ldr	r1, [r7, #8]
    40bc:	461a      	mov	r2, r3
    40be:	683b      	ldr	r3, [r7, #0]
    40c0:	f7ff fe74 	bl	3dac <drv_lcd_line>
    40c4:	f107 0728 	add.w	r7, r7, #40	; 0x28
    40c8:	46bd      	mov	sp, r7
    40ca:	bd80      	pop	{r7, pc}

000040cc <drv_lcd_plot_picture_hor>:
    40cc:	b580      	push	{r7, lr}
    40ce:	b08a      	sub	sp, #40	; 0x28
    40d0:	af00      	add	r7, sp, #0
    40d2:	60f8      	str	r0, [r7, #12]
    40d4:	60b9      	str	r1, [r7, #8]
    40d6:	607a      	str	r2, [r7, #4]
    40d8:	603b      	str	r3, [r7, #0]
    40da:	f04f 0300 	mov.w	r3, #0
    40de:	627b      	str	r3, [r7, #36]	; 0x24
    40e0:	68bb      	ldr	r3, [r7, #8]
    40e2:	61bb      	str	r3, [r7, #24]
    40e4:	687b      	ldr	r3, [r7, #4]
    40e6:	617b      	str	r3, [r7, #20]
    40e8:	f04f 0300 	mov.w	r3, #0
    40ec:	623b      	str	r3, [r7, #32]
    40ee:	e047      	b.n	4180 <drv_lcd_plot_picture_hor+0xb4>
    40f0:	f04f 0020 	mov.w	r0, #32
    40f4:	f000 f878 	bl	41e8 <GLCD_Write_Command>
    40f8:	697b      	ldr	r3, [r7, #20]
    40fa:	4618      	mov	r0, r3
    40fc:	f000 f898 	bl	4230 <GLCD_Write_Data>
    4100:	f04f 0300 	mov.w	r3, #0
    4104:	61fb      	str	r3, [r7, #28]
    4106:	e02d      	b.n	4164 <drv_lcd_plot_picture_hor+0x98>
    4108:	f04f 0021 	mov.w	r0, #33	; 0x21
    410c:	f000 f86c 	bl	41e8 <GLCD_Write_Command>
    4110:	69bb      	ldr	r3, [r7, #24]
    4112:	4618      	mov	r0, r3
    4114:	f000 f88c 	bl	4230 <GLCD_Write_Data>
    4118:	f04f 0022 	mov.w	r0, #34	; 0x22
    411c:	f000 f864 	bl	41e8 <GLCD_Write_Command>
    4120:	6a7b      	ldr	r3, [r7, #36]	; 0x24
    4122:	f103 0301 	add.w	r3, r3, #1
    4126:	68fa      	ldr	r2, [r7, #12]
    4128:	18d3      	adds	r3, r2, r3
    412a:	781b      	ldrb	r3, [r3, #0]
    412c:	613b      	str	r3, [r7, #16]
    412e:	693b      	ldr	r3, [r7, #16]
    4130:	ea4f 2303 	mov.w	r3, r3, lsl #8
    4134:	613b      	str	r3, [r7, #16]
    4136:	68fa      	ldr	r2, [r7, #12]
    4138:	6a7b      	ldr	r3, [r7, #36]	; 0x24
    413a:	18d3      	adds	r3, r2, r3
    413c:	781b      	ldrb	r3, [r3, #0]
    413e:	693a      	ldr	r2, [r7, #16]
    4140:	ea42 0303 	orr.w	r3, r2, r3
    4144:	613b      	str	r3, [r7, #16]
    4146:	6938      	ldr	r0, [r7, #16]
    4148:	f000 f872 	bl	4230 <GLCD_Write_Data>
    414c:	6a7b      	ldr	r3, [r7, #36]	; 0x24
    414e:	f103 0302 	add.w	r3, r3, #2
    4152:	627b      	str	r3, [r7, #36]	; 0x24
    4154:	69bb      	ldr	r3, [r7, #24]
    4156:	f103 0301 	add.w	r3, r3, #1
    415a:	61bb      	str	r3, [r7, #24]
    415c:	69fb      	ldr	r3, [r7, #28]
    415e:	f103 0301 	add.w	r3, r3, #1
    4162:	61fb      	str	r3, [r7, #28]
    4164:	683a      	ldr	r2, [r7, #0]
    4166:	69fb      	ldr	r3, [r7, #28]
    4168:	429a      	cmp	r2, r3
    416a:	d8cd      	bhi.n	4108 <drv_lcd_plot_picture_hor+0x3c>
    416c:	697b      	ldr	r3, [r7, #20]
    416e:	f103 33ff 	add.w	r3, r3, #4294967295
    4172:	617b      	str	r3, [r7, #20]
    4174:	68bb      	ldr	r3, [r7, #8]
    4176:	61bb      	str	r3, [r7, #24]
    4178:	6a3b      	ldr	r3, [r7, #32]
    417a:	f103 0301 	add.w	r3, r3, #1
    417e:	623b      	str	r3, [r7, #32]
    4180:	6b3a      	ldr	r2, [r7, #48]	; 0x30
    4182:	6a3b      	ldr	r3, [r7, #32]
    4184:	429a      	cmp	r2, r3
    4186:	d8b3      	bhi.n	40f0 <drv_lcd_plot_picture_hor+0x24>
    4188:	f107 0728 	add.w	r7, r7, #40	; 0x28
    418c:	46bd      	mov	sp, r7
    418e:	bd80      	pop	{r7, pc}

00004190 <delay_ms>:
    4190:	b580      	push	{r7, lr}
    4192:	b082      	sub	sp, #8
    4194:	af00      	add	r7, sp, #0
    4196:	6078      	str	r0, [r7, #4]
    4198:	687b      	ldr	r3, [r7, #4]
    419a:	b29b      	uxth	r3, r3
    419c:	f04f 0000 	mov.w	r0, #0
    41a0:	f04f 0100 	mov.w	r1, #0
    41a4:	f04f 0200 	mov.w	r2, #0
    41a8:	f7fd fe2a 	bl	1e00 <CoTimeDelay>
    41ac:	f107 0708 	add.w	r7, r7, #8
    41b0:	46bd      	mov	sp, r7
    41b2:	bd80      	pop	{r7, pc}

000041b4 <GLCD_SPI_Read_Write>:
    41b4:	b480      	push	{r7}
    41b6:	b083      	sub	sp, #12
    41b8:	af00      	add	r7, sp, #0
    41ba:	4603      	mov	r3, r0
    41bc:	71fb      	strb	r3, [r7, #7]
    41be:	4b09      	ldr	r3, [pc, #36]	; (41e4 <GLCD_SPI_Read_Write+0x30>)
    41c0:	79fa      	ldrb	r2, [r7, #7]
    41c2:	609a      	str	r2, [r3, #8]
    41c4:	bf00      	nop
    41c6:	4b07      	ldr	r3, [pc, #28]	; (41e4 <GLCD_SPI_Read_Write+0x30>)
    41c8:	68db      	ldr	r3, [r3, #12]
    41ca:	f003 0310 	and.w	r3, r3, #16
    41ce:	2b00      	cmp	r3, #0
    41d0:	d1f9      	bne.n	41c6 <GLCD_SPI_Read_Write+0x12>
    41d2:	4b04      	ldr	r3, [pc, #16]	; (41e4 <GLCD_SPI_Read_Write+0x30>)
    41d4:	689b      	ldr	r3, [r3, #8]
    41d6:	b2db      	uxtb	r3, r3
    41d8:	4618      	mov	r0, r3
    41da:	f107 070c 	add.w	r7, r7, #12
    41de:	46bd      	mov	sp, r7
    41e0:	bc80      	pop	{r7}
    41e2:	4770      	bx	lr
    41e4:	40030000 	.word	0x40030000

000041e8 <GLCD_Write_Command>:
    41e8:	b580      	push	{r7, lr}
    41ea:	b082      	sub	sp, #8
    41ec:	af00      	add	r7, sp, #0
    41ee:	4603      	mov	r3, r0
    41f0:	71fb      	strb	r3, [r7, #7]
    41f2:	4b0e      	ldr	r3, [pc, #56]	; (422c <GLCD_Write_Command+0x44>)
    41f4:	4a0d      	ldr	r2, [pc, #52]	; (422c <GLCD_Write_Command+0x44>)
    41f6:	6952      	ldr	r2, [r2, #20]
    41f8:	f022 0240 	bic.w	r2, r2, #64	; 0x40
    41fc:	615a      	str	r2, [r3, #20]
    41fe:	f04f 0070 	mov.w	r0, #112	; 0x70
    4202:	f7ff ffd7 	bl	41b4 <GLCD_SPI_Read_Write>
    4206:	f04f 0000 	mov.w	r0, #0
    420a:	f7ff ffd3 	bl	41b4 <GLCD_SPI_Read_Write>
    420e:	79fb      	ldrb	r3, [r7, #7]
    4210:	4618      	mov	r0, r3
    4212:	f7ff ffcf 	bl	41b4 <GLCD_SPI_Read_Write>
    4216:	4b05      	ldr	r3, [pc, #20]	; (422c <GLCD_Write_Command+0x44>)
    4218:	4a04      	ldr	r2, [pc, #16]	; (422c <GLCD_Write_Command+0x44>)
    421a:	6952      	ldr	r2, [r2, #20]
    421c:	f042 0240 	orr.w	r2, r2, #64	; 0x40
    4220:	615a      	str	r2, [r3, #20]
    4222:	f107 0708 	add.w	r7, r7, #8
    4226:	46bd      	mov	sp, r7
    4228:	bd80      	pop	{r7, pc}
    422a:	bf00      	nop
    422c:	2009c000 	.word	0x2009c000

00004230 <GLCD_Write_Data>:
    4230:	b580      	push	{r7, lr}
    4232:	b082      	sub	sp, #8
    4234:	af00      	add	r7, sp, #0
    4236:	6078      	str	r0, [r7, #4]
    4238:	4b0f      	ldr	r3, [pc, #60]	; (4278 <GLCD_Write_Data+0x48>)
    423a:	4a0f      	ldr	r2, [pc, #60]	; (4278 <GLCD_Write_Data+0x48>)
    423c:	6952      	ldr	r2, [r2, #20]
    423e:	f022 0240 	bic.w	r2, r2, #64	; 0x40
    4242:	615a      	str	r2, [r3, #20]
    4244:	f04f 0072 	mov.w	r0, #114	; 0x72
    4248:	f7ff ffb4 	bl	41b4 <GLCD_SPI_Read_Write>
    424c:	687b      	ldr	r3, [r7, #4]
    424e:	ea4f 2313 	mov.w	r3, r3, lsr #8
    4252:	b2db      	uxtb	r3, r3
    4254:	4618      	mov	r0, r3
    4256:	f7ff ffad 	bl	41b4 <GLCD_SPI_Read_Write>
    425a:	687b      	ldr	r3, [r7, #4]
    425c:	b2db      	uxtb	r3, r3
    425e:	4618      	mov	r0, r3
    4260:	f7ff ffa8 	bl	41b4 <GLCD_SPI_Read_Write>
    4264:	4b04      	ldr	r3, [pc, #16]	; (4278 <GLCD_Write_Data+0x48>)
    4266:	4a04      	ldr	r2, [pc, #16]	; (4278 <GLCD_Write_Data+0x48>)
    4268:	6952      	ldr	r2, [r2, #20]
    426a:	f042 0240 	orr.w	r2, r2, #64	; 0x40
    426e:	615a      	str	r2, [r3, #20]
    4270:	f107 0708 	add.w	r7, r7, #8
    4274:	46bd      	mov	sp, r7
    4276:	bd80      	pop	{r7, pc}
    4278:	2009c000 	.word	0x2009c000

0000427c <InitTaskContext>:
    427c:	b480      	push	{r7}
    427e:	b087      	sub	sp, #28
    4280:	af00      	add	r7, sp, #0
    4282:	60f8      	str	r0, [r7, #12]
    4284:	60b9      	str	r1, [r7, #8]
    4286:	607a      	str	r2, [r7, #4]
    4288:	687b      	ldr	r3, [r7, #4]
    428a:	617b      	str	r3, [r7, #20]
    428c:	697b      	ldr	r3, [r7, #20]
    428e:	f04f 7280 	mov.w	r2, #16777216	; 0x1000000
    4292:	601a      	str	r2, [r3, #0]
    4294:	697b      	ldr	r3, [r7, #20]
    4296:	f1a3 0304 	sub.w	r3, r3, #4
    429a:	617b      	str	r3, [r7, #20]
    429c:	68fa      	ldr	r2, [r7, #12]
    429e:	697b      	ldr	r3, [r7, #20]
    42a0:	601a      	str	r2, [r3, #0]
    42a2:	697b      	ldr	r3, [r7, #20]
    42a4:	f1a3 0304 	sub.w	r3, r3, #4
    42a8:	617b      	str	r3, [r7, #20]
    42aa:	697b      	ldr	r3, [r7, #20]
    42ac:	f06f 0201 	mvn.w	r2, #1
    42b0:	601a      	str	r2, [r3, #0]
    42b2:	697b      	ldr	r3, [r7, #20]
    42b4:	f1a3 0314 	sub.w	r3, r3, #20
    42b8:	617b      	str	r3, [r7, #20]
    42ba:	68ba      	ldr	r2, [r7, #8]
    42bc:	697b      	ldr	r3, [r7, #20]
    42be:	601a      	str	r2, [r3, #0]
    42c0:	697b      	ldr	r3, [r7, #20]
    42c2:	f1a3 0320 	sub.w	r3, r3, #32
    42c6:	617b      	str	r3, [r7, #20]
    42c8:	697b      	ldr	r3, [r7, #20]
    42ca:	4618      	mov	r0, r3
    42cc:	f107 071c 	add.w	r7, r7, #28
    42d0:	46bd      	mov	sp, r7
    42d2:	bc80      	pop	{r7}
    42d4:	4770      	bx	lr
    42d6:	bf00      	nop

000042d8 <SysTick_Handler>:
    42d8:	b580      	push	{r7, lr}
    42da:	af00      	add	r7, sp, #0
    42dc:	4b24      	ldr	r3, [pc, #144]	; (4370 <SysTick_Handler+0x98>)
    42de:	781b      	ldrb	r3, [r3, #0]
    42e0:	b2db      	uxtb	r3, r3
    42e2:	f103 0301 	add.w	r3, r3, #1
    42e6:	b2da      	uxtb	r2, r3
    42e8:	4b21      	ldr	r3, [pc, #132]	; (4370 <SysTick_Handler+0x98>)
    42ea:	701a      	strb	r2, [r3, #0]
    42ec:	4b21      	ldr	r3, [pc, #132]	; (4374 <SysTick_Handler+0x9c>)
    42ee:	e9d3 0100 	ldrd	r0, r1, [r3]
    42f2:	f04f 0201 	mov.w	r2, #1
    42f6:	f04f 0300 	mov.w	r3, #0
    42fa:	1812      	adds	r2, r2, r0
    42fc:	eb43 0301 	adc.w	r3, r3, r1
    4300:	491c      	ldr	r1, [pc, #112]	; (4374 <SysTick_Handler+0x9c>)
    4302:	e9c1 2300 	strd	r2, r3, [r1]
    4306:	4b1c      	ldr	r3, [pc, #112]	; (4378 <SysTick_Handler+0xa0>)
    4308:	681b      	ldr	r3, [r3, #0]
    430a:	2b00      	cmp	r3, #0
    430c:	d012      	beq.n	4334 <SysTick_Handler+0x5c>
    430e:	4b1a      	ldr	r3, [pc, #104]	; (4378 <SysTick_Handler+0xa0>)
    4310:	681b      	ldr	r3, [r3, #0]
    4312:	6a1b      	ldr	r3, [r3, #32]
    4314:	2b01      	cmp	r3, #1
    4316:	d906      	bls.n	4326 <SysTick_Handler+0x4e>
    4318:	4b17      	ldr	r3, [pc, #92]	; (4378 <SysTick_Handler+0xa0>)
    431a:	681b      	ldr	r3, [r3, #0]
    431c:	6a1a      	ldr	r2, [r3, #32]
    431e:	f102 32ff 	add.w	r2, r2, #4294967295
    4322:	621a      	str	r2, [r3, #32]
    4324:	e006      	b.n	4334 <SysTick_Handler+0x5c>
    4326:	4b14      	ldr	r3, [pc, #80]	; (4378 <SysTick_Handler+0xa0>)
    4328:	681b      	ldr	r3, [r3, #0]
    432a:	f04f 0200 	mov.w	r2, #0
    432e:	621a      	str	r2, [r3, #32]
    4330:	f7fd fdfe 	bl	1f30 <isr_TimeDispose>
    4334:	4b11      	ldr	r3, [pc, #68]	; (437c <SysTick_Handler+0xa4>)
    4336:	681b      	ldr	r3, [r3, #0]
    4338:	2b00      	cmp	r3, #0
    433a:	d012      	beq.n	4362 <SysTick_Handler+0x8a>
    433c:	4b0f      	ldr	r3, [pc, #60]	; (437c <SysTick_Handler+0xa4>)
    433e:	681b      	ldr	r3, [r3, #0]
    4340:	685b      	ldr	r3, [r3, #4]
    4342:	2b01      	cmp	r3, #1
    4344:	d906      	bls.n	4354 <SysTick_Handler+0x7c>
    4346:	4b0d      	ldr	r3, [pc, #52]	; (437c <SysTick_Handler+0xa4>)
    4348:	681b      	ldr	r3, [r3, #0]
    434a:	685a      	ldr	r2, [r3, #4]
    434c:	f102 32ff 	add.w	r2, r2, #4294967295
    4350:	605a      	str	r2, [r3, #4]
    4352:	e006      	b.n	4362 <SysTick_Handler+0x8a>
    4354:	4b09      	ldr	r3, [pc, #36]	; (437c <SysTick_Handler+0xa4>)
    4356:	681b      	ldr	r3, [r3, #0]
    4358:	f04f 0200 	mov.w	r2, #0
    435c:	605a      	str	r2, [r3, #4]
    435e:	f7fc f9fd 	bl	75c <isr_TmrDispose>
    4362:	4b07      	ldr	r3, [pc, #28]	; (4380 <SysTick_Handler+0xa8>)
    4364:	f04f 0201 	mov.w	r2, #1
    4368:	701a      	strb	r2, [r3, #0]
    436a:	f7fb ff4d 	bl	208 <OsSchedUnlock>
    436e:	bd80      	pop	{r7, pc}
    4370:	10000235 	.word	0x10000235
    4374:	10001098 	.word	0x10001098
    4378:	1000084c 	.word	0x1000084c
    437c:	10000270 	.word	0x10000270
    4380:	10000236 	.word	0x10000236

00004384 <NVIC_EnableIRQ>:
    4384:	b480      	push	{r7}
    4386:	b083      	sub	sp, #12
    4388:	af00      	add	r7, sp, #0
    438a:	4603      	mov	r3, r0
    438c:	71fb      	strb	r3, [r7, #7]
    438e:	4b09      	ldr	r3, [pc, #36]	; (43b4 <NVIC_EnableIRQ+0x30>)
    4390:	f997 2007 	ldrsb.w	r2, [r7, #7]
    4394:	ea4f 1252 	mov.w	r2, r2, lsr #5
    4398:	79f9      	ldrb	r1, [r7, #7]
    439a:	f001 011f 	and.w	r1, r1, #31
    439e:	f04f 0001 	mov.w	r0, #1
    43a2:	fa00 f101 	lsl.w	r1, r0, r1
    43a6:	f843 1022 	str.w	r1, [r3, r2, lsl #2]
    43aa:	f107 070c 	add.w	r7, r7, #12
    43ae:	46bd      	mov	sp, r7
    43b0:	bc80      	pop	{r7}
    43b2:	4770      	bx	lr
    43b4:	e000e100 	.word	0xe000e100

000043b8 <NVIC_DisableIRQ>:
    43b8:	b480      	push	{r7}
    43ba:	b083      	sub	sp, #12
    43bc:	af00      	add	r7, sp, #0
    43be:	4603      	mov	r3, r0
    43c0:	71fb      	strb	r3, [r7, #7]
    43c2:	4b0a      	ldr	r3, [pc, #40]	; (43ec <NVIC_DisableIRQ+0x34>)
    43c4:	f997 2007 	ldrsb.w	r2, [r7, #7]
    43c8:	ea4f 1252 	mov.w	r2, r2, lsr #5
    43cc:	79f9      	ldrb	r1, [r7, #7]
    43ce:	f001 011f 	and.w	r1, r1, #31
    43d2:	f04f 0001 	mov.w	r0, #1
    43d6:	fa00 f101 	lsl.w	r1, r0, r1
    43da:	f102 0220 	add.w	r2, r2, #32
    43de:	f843 1022 	str.w	r1, [r3, r2, lsl #2]
    43e2:	f107 070c 	add.w	r7, r7, #12
    43e6:	46bd      	mov	sp, r7
    43e8:	bc80      	pop	{r7}
    43ea:	4770      	bx	lr
    43ec:	e000e100 	.word	0xe000e100

000043f0 <NVIC_SetPriority>:
    43f0:	b480      	push	{r7}
    43f2:	b083      	sub	sp, #12
    43f4:	af00      	add	r7, sp, #0
    43f6:	4603      	mov	r3, r0
    43f8:	6039      	str	r1, [r7, #0]
    43fa:	71fb      	strb	r3, [r7, #7]
    43fc:	f997 3007 	ldrsb.w	r3, [r7, #7]
    4400:	2b00      	cmp	r3, #0
    4402:	da0d      	bge.n	4420 <NVIC_SetPriority+0x30>
    4404:	490e      	ldr	r1, [pc, #56]	; (4440 <NVIC_SetPriority+0x50>)
    4406:	79fb      	ldrb	r3, [r7, #7]
    4408:	f003 030f 	and.w	r3, r3, #15
    440c:	f1a3 0304 	sub.w	r3, r3, #4
    4410:	683a      	ldr	r2, [r7, #0]
    4412:	b2d2      	uxtb	r2, r2
    4414:	ea4f 02c2 	mov.w	r2, r2, lsl #3
    4418:	b2d2      	uxtb	r2, r2
    441a:	18cb      	adds	r3, r1, r3
    441c:	761a      	strb	r2, [r3, #24]
    441e:	e00a      	b.n	4436 <NVIC_SetPriority+0x46>
    4420:	4908      	ldr	r1, [pc, #32]	; (4444 <NVIC_SetPriority+0x54>)
    4422:	f997 3007 	ldrsb.w	r3, [r7, #7]
    4426:	683a      	ldr	r2, [r7, #0]
    4428:	b2d2      	uxtb	r2, r2
    442a:	ea4f 02c2 	mov.w	r2, r2, lsl #3
    442e:	b2d2      	uxtb	r2, r2
    4430:	18cb      	adds	r3, r1, r3
    4432:	f883 2300 	strb.w	r2, [r3, #768]	; 0x300
    4436:	f107 070c 	add.w	r7, r7, #12
    443a:	46bd      	mov	sp, r7
    443c:	bc80      	pop	{r7}
    443e:	4770      	bx	lr
    4440:	e000ed00 	.word	0xe000ed00
    4444:	e000e100 	.word	0xe000e100

00004448 <drv_pot_load>:
    4448:	b580      	push	{r7, lr}
    444a:	b082      	sub	sp, #8
    444c:	af00      	add	r7, sp, #0
    444e:	f04f 0303 	mov.w	r3, #3
    4452:	70bb      	strb	r3, [r7, #2]
    4454:	f04f 0300 	mov.w	r3, #0
    4458:	713b      	strb	r3, [r7, #4]
    445a:	f04f 0302 	mov.w	r3, #2
    445e:	70fb      	strb	r3, [r7, #3]
    4460:	f04f 031f 	mov.w	r3, #31
    4464:	707b      	strb	r3, [r7, #1]
    4466:	f04f 0301 	mov.w	r3, #1
    446a:	703b      	strb	r3, [r7, #0]
    446c:	463b      	mov	r3, r7
    446e:	4618      	mov	r0, r3
    4470:	f7fe f806 	bl	2480 <PINSEL_ConfigPin>
    4474:	f107 0708 	add.w	r7, r7, #8
    4478:	46bd      	mov	sp, r7
    447a:	bd80      	pop	{r7, pc}

0000447c <drv_pot_open>:
    447c:	b580      	push	{r7, lr}
    447e:	b082      	sub	sp, #8
    4480:	af02      	add	r7, sp, #8
    4482:	4819      	ldr	r0, [pc, #100]	; (44e8 <drv_pot_open+0x6c>)
    4484:	4919      	ldr	r1, [pc, #100]	; (44ec <drv_pot_open+0x70>)
    4486:	f7fd f83b 	bl	1500 <ADC_Init>
    448a:	4817      	ldr	r0, [pc, #92]	; (44e8 <drv_pot_open+0x6c>)
    448c:	f04f 0105 	mov.w	r1, #5
    4490:	f04f 0201 	mov.w	r2, #1
    4494:	f7fd f8c2 	bl	161c <ADC_IntConfig>
    4498:	4813      	ldr	r0, [pc, #76]	; (44e8 <drv_pot_open+0x6c>)
    449a:	f04f 0105 	mov.w	r1, #5
    449e:	f04f 0201 	mov.w	r2, #1
    44a2:	f7fd f90d 	bl	16c0 <ADC_ChannelCmd>
    44a6:	f04f 0016 	mov.w	r0, #22
    44aa:	f04f 0109 	mov.w	r1, #9
    44ae:	f7ff ff9f 	bl	43f0 <NVIC_SetPriority>
    44b2:	f04f 0001 	mov.w	r0, #1
    44b6:	f04f 0100 	mov.w	r1, #0
    44ba:	f7fe fb15 	bl	2ae8 <CoCreateFlag>
    44be:	4603      	mov	r3, r0
    44c0:	461a      	mov	r2, r3
    44c2:	4b0b      	ldr	r3, [pc, #44]	; (44f0 <drv_pot_open+0x74>)
    44c4:	701a      	strb	r2, [r3, #0]
    44c6:	4b0a      	ldr	r3, [pc, #40]	; (44f0 <drv_pot_open+0x74>)
    44c8:	781b      	ldrb	r3, [r3, #0]
    44ca:	2bff      	cmp	r3, #255	; 0xff
    44cc:	d10a      	bne.n	44e4 <drv_pot_open+0x68>
    44ce:	f04f 0311 	mov.w	r3, #17
    44d2:	9300      	str	r3, [sp, #0]
    44d4:	4807      	ldr	r0, [pc, #28]	; (44f4 <drv_pot_open+0x78>)
    44d6:	f04f 010c 	mov.w	r1, #12
    44da:	f04f 022b 	mov.w	r2, #43	; 0x2b
    44de:	4b06      	ldr	r3, [pc, #24]	; (44f8 <drv_pot_open+0x7c>)
    44e0:	f7fc f9e4 	bl	8ac <mdw_log_error>
    44e4:	46bd      	mov	sp, r7
    44e6:	bd80      	pop	{r7, pc}
    44e8:	40034000 	.word	0x40034000
    44ec:	00030d40 	.word	0x00030d40
    44f0:	100012ac 	.word	0x100012ac
    44f4:	00007880 	.word	0x00007880
    44f8:	0000786c 	.word	0x0000786c

000044fc <drv_pot_getValue>:
    44fc:	b580      	push	{r7, lr}
    44fe:	b082      	sub	sp, #8
    4500:	af00      	add	r7, sp, #0
    4502:	480e      	ldr	r0, [pc, #56]	; (453c <drv_pot_getValue+0x40>)
    4504:	f04f 0101 	mov.w	r1, #1
    4508:	f7fd f846 	bl	1598 <ADC_StartCmd>
    450c:	f04f 0016 	mov.w	r0, #22
    4510:	f7ff ff38 	bl	4384 <NVIC_EnableIRQ>
    4514:	4b0a      	ldr	r3, [pc, #40]	; (4540 <drv_pot_getValue+0x44>)
    4516:	781b      	ldrb	r3, [r3, #0]
    4518:	4618      	mov	r0, r3
    451a:	f04f 0100 	mov.w	r1, #0
    451e:	f7fe fb35 	bl	2b8c <CoWaitForSingleFlag>
    4522:	4603      	mov	r3, r0
    4524:	71fb      	strb	r3, [r7, #7]
    4526:	79fb      	ldrb	r3, [r7, #7]
    4528:	2b00      	cmp	r3, #0
    452a:	d000      	beq.n	452e <drv_pot_getValue+0x32>
    452c:	e7fe      	b.n	452c <drv_pot_getValue+0x30>
    452e:	4b05      	ldr	r3, [pc, #20]	; (4544 <drv_pot_getValue+0x48>)
    4530:	681b      	ldr	r3, [r3, #0]
    4532:	4618      	mov	r0, r3
    4534:	f107 0708 	add.w	r7, r7, #8
    4538:	46bd      	mov	sp, r7
    453a:	bd80      	pop	{r7, pc}
    453c:	40034000 	.word	0x40034000
    4540:	100012ac 	.word	0x100012ac
    4544:	100010a0 	.word	0x100010a0

00004548 <ADC_IRQHandler>:
    4548:	b580      	push	{r7, lr}
    454a:	af00      	add	r7, sp, #0
    454c:	f7fb fe2c 	bl	1a8 <CoEnterISR>
    4550:	480f      	ldr	r0, [pc, #60]	; (4590 <ADC_IRQHandler+0x48>)
    4552:	f04f 0105 	mov.w	r1, #5
    4556:	f04f 0201 	mov.w	r2, #1
    455a:	f7fd f90f 	bl	177c <ADC_ChannelGetStatus>
    455e:	4603      	mov	r3, r0
    4560:	2b00      	cmp	r3, #0
    4562:	d011      	beq.n	4588 <ADC_IRQHandler+0x40>
    4564:	480a      	ldr	r0, [pc, #40]	; (4590 <ADC_IRQHandler+0x48>)
    4566:	f04f 0105 	mov.w	r1, #5
    456a:	f7fd f8dd 	bl	1728 <ADC_ChannelGetData>
    456e:	4603      	mov	r3, r0
    4570:	461a      	mov	r2, r3
    4572:	4b08      	ldr	r3, [pc, #32]	; (4594 <ADC_IRQHandler+0x4c>)
    4574:	601a      	str	r2, [r3, #0]
    4576:	f04f 0016 	mov.w	r0, #22
    457a:	f7ff ff1d 	bl	43b8 <NVIC_DisableIRQ>
    457e:	4b06      	ldr	r3, [pc, #24]	; (4598 <ADC_IRQHandler+0x50>)
    4580:	781b      	ldrb	r3, [r3, #0]
    4582:	4618      	mov	r0, r3
    4584:	f7fe fc68 	bl	2e58 <isr_SetFlag>
    4588:	f7fb fe16 	bl	1b8 <CoExitISR>
    458c:	bd80      	pop	{r7, pc}
    458e:	bf00      	nop
    4590:	40034000 	.word	0x40034000
    4594:	100010a0 	.word	0x100010a0
    4598:	100012ac 	.word	0x100012ac

0000459c <mdw_log_load>:
    459c:	b480      	push	{r7}
    459e:	af00      	add	r7, sp, #0
    45a0:	46bd      	mov	sp, r7
    45a2:	bc80      	pop	{r7}
    45a4:	4770      	bx	lr
    45a6:	bf00      	nop

000045a8 <mdw_log_open>:
    45a8:	b580      	push	{r7, lr}
    45aa:	b084      	sub	sp, #16
    45ac:	af04      	add	r7, sp, #16
    45ae:	4838      	ldr	r0, [pc, #224]	; (4690 <mdw_log_open+0xe8>)
    45b0:	f04f 0100 	mov.w	r1, #0
    45b4:	f44f 4200 	mov.w	r2, #32768	; 0x8000
    45b8:	4b36      	ldr	r3, [pc, #216]	; (4694 <mdw_log_open+0xec>)
    45ba:	f7fc fe65 	bl	1288 <CreateTask>
    45be:	4603      	mov	r3, r0
    45c0:	461a      	mov	r2, r3
    45c2:	4b35      	ldr	r3, [pc, #212]	; (4698 <mdw_log_open+0xf0>)
    45c4:	701a      	strb	r2, [r3, #0]
    45c6:	4b34      	ldr	r3, [pc, #208]	; (4698 <mdw_log_open+0xf0>)
    45c8:	781b      	ldrb	r3, [r3, #0]
    45ca:	2bff      	cmp	r3, #255	; 0xff
    45cc:	d10a      	bne.n	45e4 <mdw_log_open+0x3c>
    45ce:	f04f 0311 	mov.w	r3, #17
    45d2:	9300      	str	r3, [sp, #0]
    45d4:	4831      	ldr	r0, [pc, #196]	; (469c <mdw_log_open+0xf4>)
    45d6:	f04f 010c 	mov.w	r1, #12
    45da:	f04f 022a 	mov.w	r2, #42	; 0x2a
    45de:	4b30      	ldr	r3, [pc, #192]	; (46a0 <mdw_log_open+0xf8>)
    45e0:	f7fc f964 	bl	8ac <mdw_log_error>
    45e4:	f7ff f8ac 	bl	3740 <drv_lcd_load>
    45e8:	f7ff f91c 	bl	3824 <drv_lcd_open>
    45ec:	f7fe fd10 	bl	3010 <drv_tcs_load>
    45f0:	f7fe fd72 	bl	30d8 <drv_tcs_open>
    45f4:	4b2b      	ldr	r3, [pc, #172]	; (46a4 <mdw_log_open+0xfc>)
    45f6:	4a2b      	ldr	r2, [pc, #172]	; (46a4 <mdw_log_open+0xfc>)
    45f8:	6952      	ldr	r2, [r2, #20]
    45fa:	f022 5280 	bic.w	r2, r2, #268435456	; 0x10000000
    45fe:	615a      	str	r2, [r3, #20]
    4600:	f64f 70ff 	movw	r0, #65535	; 0xffff
    4604:	f7ff fa54 	bl	3ab0 <drv_lcd_bg_color>
    4608:	f04f 0350 	mov.w	r3, #80	; 0x50
    460c:	9300      	str	r3, [sp, #0]
    460e:	4826      	ldr	r0, [pc, #152]	; (46a8 <mdw_log_open+0x100>)
    4610:	f04f 0100 	mov.w	r1, #0
    4614:	f04f 02e6 	mov.w	r2, #230	; 0xe6
    4618:	f04f 0350 	mov.w	r3, #80	; 0x50
    461c:	f7ff fd56 	bl	40cc <drv_lcd_plot_picture_hor>
    4620:	f64f 73ff 	movw	r3, #65535	; 0xffff
    4624:	9300      	str	r3, [sp, #0]
    4626:	4821      	ldr	r0, [pc, #132]	; (46ac <mdw_log_open+0x104>)
    4628:	f04f 0150 	mov.w	r1, #80	; 0x50
    462c:	f04f 02e1 	mov.w	r2, #225	; 0xe1
    4630:	f04f 0300 	mov.w	r3, #0
    4634:	f7ff fb90 	bl	3d58 <drv_lcd_printStr_hor>
    4638:	f64f 73ff 	movw	r3, #65535	; 0xffff
    463c:	9300      	str	r3, [sp, #0]
    463e:	481c      	ldr	r0, [pc, #112]	; (46b0 <mdw_log_open+0x108>)
    4640:	f04f 0150 	mov.w	r1, #80	; 0x50
    4644:	f04f 02d2 	mov.w	r2, #210	; 0xd2
    4648:	f04f 0300 	mov.w	r3, #0
    464c:	f7ff fb84 	bl	3d58 <drv_lcd_printStr_hor>
    4650:	f04f 0300 	mov.w	r3, #0
    4654:	9300      	str	r3, [sp, #0]
    4656:	f04f 0300 	mov.w	r3, #0
    465a:	9301      	str	r3, [sp, #4]
    465c:	f04f 0301 	mov.w	r3, #1
    4660:	9302      	str	r3, [sp, #8]
    4662:	f04f 0000 	mov.w	r0, #0
    4666:	f04f 0196 	mov.w	r1, #150	; 0x96
    466a:	f44f 72a0 	mov.w	r2, #320	; 0x140
    466e:	f04f 0300 	mov.w	r3, #0
    4672:	f7ff fca9 	bl	3fc8 <drv_lcd_rectan>
    4676:	4b0b      	ldr	r3, [pc, #44]	; (46a4 <mdw_log_open+0xfc>)
    4678:	4a0a      	ldr	r2, [pc, #40]	; (46a4 <mdw_log_open+0xfc>)
    467a:	6952      	ldr	r2, [r2, #20]
    467c:	f042 5280 	orr.w	r2, r2, #268435456	; 0x10000000
    4680:	615a      	str	r2, [r3, #20]
    4682:	4b0c      	ldr	r3, [pc, #48]	; (46b4 <mdw_log_open+0x10c>)
    4684:	f04f 0200 	mov.w	r2, #0
    4688:	601a      	str	r2, [r3, #0]
    468a:	46bd      	mov	sp, r7
    468c:	bd80      	pop	{r7, pc}
    468e:	bf00      	nop
    4690:	00004749 	.word	0x00004749
    4694:	100012a0 	.word	0x100012a0
    4698:	100012a4 	.word	0x100012a4
    469c:	00007918 	.word	0x00007918
    46a0:	000078b0 	.word	0x000078b0
    46a4:	2009c080 	.word	0x2009c080
    46a8:	00007928 	.word	0x00007928
    46ac:	000078c4 	.word	0x000078c4
    46b0:	000078d0 	.word	0x000078d0
    46b4:	100012a8 	.word	0x100012a8

000046b8 <mdw_log_debug>:
    46b8:	b580      	push	{r7, lr}
    46ba:	b088      	sub	sp, #32
    46bc:	af04      	add	r7, sp, #16
    46be:	6078      	str	r0, [r7, #4]
    46c0:	6878      	ldr	r0, [r7, #4]
    46c2:	f002 fd6b 	bl	719c <strlen>
    46c6:	4603      	mov	r3, r0
    46c8:	2b27      	cmp	r3, #39	; 0x27
    46ca:	d900      	bls.n	46ce <mdw_log_debug+0x16>
    46cc:	e7fe      	b.n	46cc <mdw_log_debug+0x14>
    46ce:	4b1d      	ldr	r3, [pc, #116]	; (4744 <mdw_log_debug+0x8c>)
    46d0:	681b      	ldr	r3, [r3, #0]
    46d2:	2b08      	cmp	r3, #8
    46d4:	d103      	bne.n	46de <mdw_log_debug+0x26>
    46d6:	4b1b      	ldr	r3, [pc, #108]	; (4744 <mdw_log_debug+0x8c>)
    46d8:	f04f 0200 	mov.w	r2, #0
    46dc:	601a      	str	r2, [r3, #0]
    46de:	4b19      	ldr	r3, [pc, #100]	; (4744 <mdw_log_debug+0x8c>)
    46e0:	681b      	ldr	r3, [r3, #0]
    46e2:	f103 0201 	add.w	r2, r3, #1
    46e6:	4b17      	ldr	r3, [pc, #92]	; (4744 <mdw_log_debug+0x8c>)
    46e8:	601a      	str	r2, [r3, #0]
    46ea:	4b16      	ldr	r3, [pc, #88]	; (4744 <mdw_log_debug+0x8c>)
    46ec:	681a      	ldr	r2, [r3, #0]
    46ee:	4613      	mov	r3, r2
    46f0:	ea4f 1303 	mov.w	r3, r3, lsl #4
    46f4:	1a9b      	subs	r3, r3, r2
    46f6:	f1c3 0396 	rsb	r3, r3, #150	; 0x96
    46fa:	60fb      	str	r3, [r7, #12]
    46fc:	68fa      	ldr	r2, [r7, #12]
    46fe:	68fb      	ldr	r3, [r7, #12]
    4700:	f103 030e 	add.w	r3, r3, #14
    4704:	f04f 0100 	mov.w	r1, #0
    4708:	9100      	str	r1, [sp, #0]
    470a:	f04f 0100 	mov.w	r1, #0
    470e:	9101      	str	r1, [sp, #4]
    4710:	f04f 0101 	mov.w	r1, #1
    4714:	9102      	str	r1, [sp, #8]
    4716:	f04f 0000 	mov.w	r0, #0
    471a:	4611      	mov	r1, r2
    471c:	f44f 72a0 	mov.w	r2, #320	; 0x140
    4720:	f7ff fc52 	bl	3fc8 <drv_lcd_rectan>
    4724:	68fb      	ldr	r3, [r7, #12]
    4726:	f04f 0200 	mov.w	r2, #0
    472a:	9200      	str	r2, [sp, #0]
    472c:	6878      	ldr	r0, [r7, #4]
    472e:	f04f 0105 	mov.w	r1, #5
    4732:	461a      	mov	r2, r3
    4734:	f64f 73f0 	movw	r3, #65520	; 0xfff0
    4738:	f7ff fb0e 	bl	3d58 <drv_lcd_printStr_hor>
    473c:	f107 0710 	add.w	r7, r7, #16
    4740:	46bd      	mov	sp, r7
    4742:	bd80      	pop	{r7, pc}
    4744:	100012a8 	.word	0x100012a8

00004748 <log_touch_task>:
    4748:	b580      	push	{r7, lr}
    474a:	b088      	sub	sp, #32
    474c:	af02      	add	r7, sp, #8
    474e:	6078      	str	r0, [r7, #4]
    4750:	e008      	b.n	4764 <log_touch_task+0x1c>
    4752:	bf00      	nop
    4754:	e006      	b.n	4764 <log_touch_task+0x1c>
    4756:	bf00      	nop
    4758:	e004      	b.n	4764 <log_touch_task+0x1c>
    475a:	bf00      	nop
    475c:	e002      	b.n	4764 <log_touch_task+0x1c>
    475e:	bf00      	nop
    4760:	e000      	b.n	4764 <log_touch_task+0x1c>
    4762:	bf00      	nop
    4764:	f7fe ff0e 	bl	3584 <drv_tcs_get_status_touch>
    4768:	4603      	mov	r3, r0
    476a:	2b00      	cmp	r3, #0
    476c:	d0f1      	beq.n	4752 <log_touch_task+0xa>
    476e:	f107 0210 	add.w	r2, r7, #16
    4772:	f107 0308 	add.w	r3, r7, #8
    4776:	f04f 0014 	mov.w	r0, #20
    477a:	4611      	mov	r1, r2
    477c:	461a      	mov	r2, r3
    477e:	f7fe fe19 	bl	33b4 <drv_tcs_get_point>
    4782:	4b76      	ldr	r3, [pc, #472]	; (495c <log_touch_task+0x214>)
    4784:	681a      	ldr	r2, [r3, #0]
    4786:	4b76      	ldr	r3, [pc, #472]	; (4960 <log_touch_task+0x218>)
    4788:	681b      	ldr	r3, [r3, #0]
    478a:	18d3      	adds	r3, r2, r3
    478c:	461a      	mov	r2, r3
    478e:	f04f 0300 	mov.w	r3, #0
    4792:	e9d7 0104 	ldrd	r0, r1, [r7, #16]
    4796:	4290      	cmp	r0, r2
    4798:	eb71 0c03 	sbcs.w	ip, r1, r3
    479c:	d2db      	bcs.n	4756 <log_touch_task+0xe>
    479e:	4b6f      	ldr	r3, [pc, #444]	; (495c <log_touch_task+0x214>)
    47a0:	681a      	ldr	r2, [r3, #0]
    47a2:	4b6f      	ldr	r3, [pc, #444]	; (4960 <log_touch_task+0x218>)
    47a4:	681b      	ldr	r3, [r3, #0]
    47a6:	1ad3      	subs	r3, r2, r3
    47a8:	4618      	mov	r0, r3
    47aa:	f04f 0100 	mov.w	r1, #0
    47ae:	e9d7 2304 	ldrd	r2, r3, [r7, #16]
    47b2:	4290      	cmp	r0, r2
    47b4:	eb71 0c03 	sbcs.w	ip, r1, r3
    47b8:	d2cf      	bcs.n	475a <log_touch_task+0x12>
    47ba:	4b6a      	ldr	r3, [pc, #424]	; (4964 <log_touch_task+0x21c>)
    47bc:	681a      	ldr	r2, [r3, #0]
    47be:	4b68      	ldr	r3, [pc, #416]	; (4960 <log_touch_task+0x218>)
    47c0:	681b      	ldr	r3, [r3, #0]
    47c2:	18d3      	adds	r3, r2, r3
    47c4:	461a      	mov	r2, r3
    47c6:	f04f 0300 	mov.w	r3, #0
    47ca:	e9d7 0102 	ldrd	r0, r1, [r7, #8]
    47ce:	4290      	cmp	r0, r2
    47d0:	eb71 0c03 	sbcs.w	ip, r1, r3
    47d4:	d21a      	bcs.n	480c <log_touch_task+0xc4>
    47d6:	4b63      	ldr	r3, [pc, #396]	; (4964 <log_touch_task+0x21c>)
    47d8:	681a      	ldr	r2, [r3, #0]
    47da:	4b61      	ldr	r3, [pc, #388]	; (4960 <log_touch_task+0x218>)
    47dc:	681b      	ldr	r3, [r3, #0]
    47de:	1ad3      	subs	r3, r2, r3
    47e0:	4618      	mov	r0, r3
    47e2:	f04f 0100 	mov.w	r1, #0
    47e6:	e9d7 2302 	ldrd	r2, r3, [r7, #8]
    47ea:	4290      	cmp	r0, r2
    47ec:	eb71 0c03 	sbcs.w	ip, r1, r3
    47f0:	d20c      	bcs.n	480c <log_touch_task+0xc4>
    47f2:	f64f 73ff 	movw	r3, #65535	; 0xffff
    47f6:	9300      	str	r3, [sp, #0]
    47f8:	485b      	ldr	r0, [pc, #364]	; (4968 <log_touch_task+0x220>)
    47fa:	f04f 0150 	mov.w	r1, #80	; 0x50
    47fe:	f04f 02c3 	mov.w	r2, #195	; 0xc3
    4802:	f04f 0300 	mov.w	r3, #0
    4806:	f7ff faa7 	bl	3d58 <drv_lcd_printStr_hor>
    480a:	e0a5      	b.n	4958 <log_touch_task+0x210>
    480c:	4b57      	ldr	r3, [pc, #348]	; (496c <log_touch_task+0x224>)
    480e:	681a      	ldr	r2, [r3, #0]
    4810:	4b53      	ldr	r3, [pc, #332]	; (4960 <log_touch_task+0x218>)
    4812:	681b      	ldr	r3, [r3, #0]
    4814:	18d3      	adds	r3, r2, r3
    4816:	461a      	mov	r2, r3
    4818:	f04f 0300 	mov.w	r3, #0
    481c:	e9d7 0102 	ldrd	r0, r1, [r7, #8]
    4820:	4290      	cmp	r0, r2
    4822:	eb71 0c03 	sbcs.w	ip, r1, r3
    4826:	d21a      	bcs.n	485e <log_touch_task+0x116>
    4828:	4b50      	ldr	r3, [pc, #320]	; (496c <log_touch_task+0x224>)
    482a:	681a      	ldr	r2, [r3, #0]
    482c:	4b4c      	ldr	r3, [pc, #304]	; (4960 <log_touch_task+0x218>)
    482e:	681b      	ldr	r3, [r3, #0]
    4830:	1ad3      	subs	r3, r2, r3
    4832:	4618      	mov	r0, r3
    4834:	f04f 0100 	mov.w	r1, #0
    4838:	e9d7 2302 	ldrd	r2, r3, [r7, #8]
    483c:	4290      	cmp	r0, r2
    483e:	eb71 0c03 	sbcs.w	ip, r1, r3
    4842:	d20c      	bcs.n	485e <log_touch_task+0x116>
    4844:	f64f 73ff 	movw	r3, #65535	; 0xffff
    4848:	9300      	str	r3, [sp, #0]
    484a:	4849      	ldr	r0, [pc, #292]	; (4970 <log_touch_task+0x228>)
    484c:	f04f 0150 	mov.w	r1, #80	; 0x50
    4850:	f04f 02c3 	mov.w	r2, #195	; 0xc3
    4854:	f04f 0300 	mov.w	r3, #0
    4858:	f7ff fa7e 	bl	3d58 <drv_lcd_printStr_hor>
    485c:	e07c      	b.n	4958 <log_touch_task+0x210>
    485e:	4b45      	ldr	r3, [pc, #276]	; (4974 <log_touch_task+0x22c>)
    4860:	681a      	ldr	r2, [r3, #0]
    4862:	4b3f      	ldr	r3, [pc, #252]	; (4960 <log_touch_task+0x218>)
    4864:	681b      	ldr	r3, [r3, #0]
    4866:	18d3      	adds	r3, r2, r3
    4868:	461a      	mov	r2, r3
    486a:	f04f 0300 	mov.w	r3, #0
    486e:	e9d7 0102 	ldrd	r0, r1, [r7, #8]
    4872:	4290      	cmp	r0, r2
    4874:	eb71 0c03 	sbcs.w	ip, r1, r3
    4878:	d21a      	bcs.n	48b0 <log_touch_task+0x168>
    487a:	4b3e      	ldr	r3, [pc, #248]	; (4974 <log_touch_task+0x22c>)
    487c:	681a      	ldr	r2, [r3, #0]
    487e:	4b38      	ldr	r3, [pc, #224]	; (4960 <log_touch_task+0x218>)
    4880:	681b      	ldr	r3, [r3, #0]
    4882:	1ad3      	subs	r3, r2, r3
    4884:	4618      	mov	r0, r3
    4886:	f04f 0100 	mov.w	r1, #0
    488a:	e9d7 2302 	ldrd	r2, r3, [r7, #8]
    488e:	4290      	cmp	r0, r2
    4890:	eb71 0c03 	sbcs.w	ip, r1, r3
    4894:	d20c      	bcs.n	48b0 <log_touch_task+0x168>
    4896:	f64f 73ff 	movw	r3, #65535	; 0xffff
    489a:	9300      	str	r3, [sp, #0]
    489c:	4836      	ldr	r0, [pc, #216]	; (4978 <log_touch_task+0x230>)
    489e:	f04f 0150 	mov.w	r1, #80	; 0x50
    48a2:	f04f 02c3 	mov.w	r2, #195	; 0xc3
    48a6:	f04f 0300 	mov.w	r3, #0
    48aa:	f7ff fa55 	bl	3d58 <drv_lcd_printStr_hor>
    48ae:	e053      	b.n	4958 <log_touch_task+0x210>
    48b0:	4b32      	ldr	r3, [pc, #200]	; (497c <log_touch_task+0x234>)
    48b2:	681a      	ldr	r2, [r3, #0]
    48b4:	4b2a      	ldr	r3, [pc, #168]	; (4960 <log_touch_task+0x218>)
    48b6:	681b      	ldr	r3, [r3, #0]
    48b8:	18d3      	adds	r3, r2, r3
    48ba:	461a      	mov	r2, r3
    48bc:	f04f 0300 	mov.w	r3, #0
    48c0:	e9d7 0102 	ldrd	r0, r1, [r7, #8]
    48c4:	4290      	cmp	r0, r2
    48c6:	eb71 0c03 	sbcs.w	ip, r1, r3
    48ca:	d21a      	bcs.n	4902 <log_touch_task+0x1ba>
    48cc:	4b2b      	ldr	r3, [pc, #172]	; (497c <log_touch_task+0x234>)
    48ce:	681a      	ldr	r2, [r3, #0]
    48d0:	4b23      	ldr	r3, [pc, #140]	; (4960 <log_touch_task+0x218>)
    48d2:	681b      	ldr	r3, [r3, #0]
    48d4:	1ad3      	subs	r3, r2, r3
    48d6:	4618      	mov	r0, r3
    48d8:	f04f 0100 	mov.w	r1, #0
    48dc:	e9d7 2302 	ldrd	r2, r3, [r7, #8]
    48e0:	4290      	cmp	r0, r2
    48e2:	eb71 0c03 	sbcs.w	ip, r1, r3
    48e6:	d20c      	bcs.n	4902 <log_touch_task+0x1ba>
    48e8:	f64f 73ff 	movw	r3, #65535	; 0xffff
    48ec:	9300      	str	r3, [sp, #0]
    48ee:	4824      	ldr	r0, [pc, #144]	; (4980 <log_touch_task+0x238>)
    48f0:	f04f 0150 	mov.w	r1, #80	; 0x50
    48f4:	f04f 02c3 	mov.w	r2, #195	; 0xc3
    48f8:	f04f 0300 	mov.w	r3, #0
    48fc:	f7ff fa2c 	bl	3d58 <drv_lcd_printStr_hor>
    4900:	e02a      	b.n	4958 <log_touch_task+0x210>
    4902:	4b20      	ldr	r3, [pc, #128]	; (4984 <log_touch_task+0x23c>)
    4904:	681a      	ldr	r2, [r3, #0]
    4906:	4b16      	ldr	r3, [pc, #88]	; (4960 <log_touch_task+0x218>)
    4908:	681b      	ldr	r3, [r3, #0]
    490a:	18d3      	adds	r3, r2, r3
    490c:	461a      	mov	r2, r3
    490e:	f04f 0300 	mov.w	r3, #0
    4912:	e9d7 0102 	ldrd	r0, r1, [r7, #8]
    4916:	4290      	cmp	r0, r2
    4918:	eb71 0c03 	sbcs.w	ip, r1, r3
    491c:	f4bf af1f 	bcs.w	475e <log_touch_task+0x16>
    4920:	4b18      	ldr	r3, [pc, #96]	; (4984 <log_touch_task+0x23c>)
    4922:	681a      	ldr	r2, [r3, #0]
    4924:	4b0e      	ldr	r3, [pc, #56]	; (4960 <log_touch_task+0x218>)
    4926:	681b      	ldr	r3, [r3, #0]
    4928:	1ad3      	subs	r3, r2, r3
    492a:	4618      	mov	r0, r3
    492c:	f04f 0100 	mov.w	r1, #0
    4930:	e9d7 2302 	ldrd	r2, r3, [r7, #8]
    4934:	4290      	cmp	r0, r2
    4936:	eb71 0c03 	sbcs.w	ip, r1, r3
    493a:	f4bf af12 	bcs.w	4762 <log_touch_task+0x1a>
    493e:	f64f 73ff 	movw	r3, #65535	; 0xffff
    4942:	9300      	str	r3, [sp, #0]
    4944:	4810      	ldr	r0, [pc, #64]	; (4988 <log_touch_task+0x240>)
    4946:	f04f 0150 	mov.w	r1, #80	; 0x50
    494a:	f04f 02c3 	mov.w	r2, #195	; 0xc3
    494e:	f04f 0300 	mov.w	r3, #0
    4952:	f7ff fa01 	bl	3d58 <drv_lcd_printStr_hor>
    4956:	e705      	b.n	4764 <log_touch_task+0x1c>
    4958:	e704      	b.n	4764 <log_touch_task+0x1c>
    495a:	bf00      	nop
    495c:	00007898 	.word	0x00007898
    4960:	00007890 	.word	0x00007890
    4964:	0000789c 	.word	0x0000789c
    4968:	000078dc 	.word	0x000078dc
    496c:	000078a0 	.word	0x000078a0
    4970:	000078e8 	.word	0x000078e8
    4974:	000078a4 	.word	0x000078a4
    4978:	000078f4 	.word	0x000078f4
    497c:	000078a8 	.word	0x000078a8
    4980:	00007900 	.word	0x00007900
    4984:	000078ac 	.word	0x000078ac
    4988:	0000790c 	.word	0x0000790c

0000498c <CoPostSem>:
    498c:	b580      	push	{r7, lr}
    498e:	b084      	sub	sp, #16
    4990:	af00      	add	r7, sp, #0
    4992:	4603      	mov	r3, r0
    4994:	71fb      	strb	r3, [r7, #7]
    4996:	79fb      	ldrb	r3, [r7, #7]
    4998:	2b13      	cmp	r3, #19
    499a:	d902      	bls.n	49a2 <CoPostSem+0x16>
    499c:	f04f 0301 	mov.w	r3, #1
    49a0:	e02e      	b.n	4a00 <CoPostSem+0x74>
    49a2:	79fb      	ldrb	r3, [r7, #7]
    49a4:	ea4f 1203 	mov.w	r2, r3, lsl #4
    49a8:	4b18      	ldr	r3, [pc, #96]	; (4a0c <CoPostSem+0x80>)
    49aa:	18d3      	adds	r3, r2, r3
    49ac:	60fb      	str	r3, [r7, #12]
    49ae:	68fb      	ldr	r3, [r7, #12]
    49b0:	795b      	ldrb	r3, [r3, #5]
    49b2:	f003 030f 	and.w	r3, r3, #15
    49b6:	b2db      	uxtb	r3, r3
    49b8:	2b01      	cmp	r3, #1
    49ba:	d002      	beq.n	49c2 <CoPostSem+0x36>
    49bc:	f04f 0301 	mov.w	r3, #1
    49c0:	e01e      	b.n	4a00 <CoPostSem+0x74>
    49c2:	68fb      	ldr	r3, [r7, #12]
    49c4:	88da      	ldrh	r2, [r3, #6]
    49c6:	68fb      	ldr	r3, [r7, #12]
    49c8:	891b      	ldrh	r3, [r3, #8]
    49ca:	429a      	cmp	r2, r3
    49cc:	d102      	bne.n	49d4 <CoPostSem+0x48>
    49ce:	f04f 0306 	mov.w	r3, #6
    49d2:	e015      	b.n	4a00 <CoPostSem+0x74>
    49d4:	4b0e      	ldr	r3, [pc, #56]	; (4a10 <CoPostSem+0x84>)
    49d6:	781b      	ldrb	r3, [r3, #0]
    49d8:	b2db      	uxtb	r3, r3
    49da:	f103 0301 	add.w	r3, r3, #1
    49de:	b2da      	uxtb	r2, r3
    49e0:	4b0b      	ldr	r3, [pc, #44]	; (4a10 <CoPostSem+0x84>)
    49e2:	701a      	strb	r2, [r3, #0]
    49e4:	68fb      	ldr	r3, [r7, #12]
    49e6:	88db      	ldrh	r3, [r3, #6]
    49e8:	f103 0301 	add.w	r3, r3, #1
    49ec:	b29a      	uxth	r2, r3
    49ee:	68fb      	ldr	r3, [r7, #12]
    49f0:	80da      	strh	r2, [r3, #6]
    49f2:	68f8      	ldr	r0, [r7, #12]
    49f4:	f7fd fb80 	bl	20f8 <EventTaskToRdy>
    49f8:	f7fb fc06 	bl	208 <OsSchedUnlock>
    49fc:	f04f 0300 	mov.w	r3, #0
    4a00:	4618      	mov	r0, r3
    4a02:	f107 0710 	add.w	r7, r7, #16
    4a06:	46bd      	mov	sp, r7
    4a08:	bd80      	pop	{r7, pc}
    4a0a:	bf00      	nop
    4a0c:	10000850 	.word	0x10000850
    4a10:	10000235 	.word	0x10000235

00004a14 <CoIdleTask>:
    4a14:	b480      	push	{r7}
    4a16:	b083      	sub	sp, #12
    4a18:	af00      	add	r7, sp, #0
    4a1a:	6078      	str	r0, [r7, #4]
    4a1c:	e7fe      	b.n	4a1c <CoIdleTask+0x8>
    4a1e:	bf00      	nop

00004a20 <CoStkOverflowHook>:
    4a20:	b480      	push	{r7}
    4a22:	b083      	sub	sp, #12
    4a24:	af00      	add	r7, sp, #0
    4a26:	4603      	mov	r3, r0
    4a28:	71fb      	strb	r3, [r7, #7]
    4a2a:	e7fe      	b.n	4a2a <CoStkOverflowHook+0xa>

00004a2c <pow>:
    4a2c:	e92d 4ff0 	stmdb	sp!, {r4, r5, r6, r7, r8, r9, sl, fp, lr}
    4a30:	b08b      	sub	sp, #44	; 0x2c
    4a32:	4699      	mov	r9, r3
    4a34:	4682      	mov	sl, r0
    4a36:	468b      	mov	fp, r1
    4a38:	4690      	mov	r8, r2
    4a3a:	f000 f99d 	bl	4d78 <__ieee754_pow>
    4a3e:	f240 0668 	movw	r6, #104	; 0x68
    4a42:	f2c1 0600 	movt	r6, #4096	; 0x1000
    4a46:	f996 3000 	ldrsb.w	r3, [r6]
    4a4a:	f1b3 3fff 	cmp.w	r3, #4294967295
    4a4e:	4604      	mov	r4, r0
    4a50:	460d      	mov	r5, r1
    4a52:	d004      	beq.n	4a5e <pow+0x32>
    4a54:	4640      	mov	r0, r8
    4a56:	4649      	mov	r1, r9
    4a58:	f001 f822 	bl	5aa0 <__fpclassifyd>
    4a5c:	b920      	cbnz	r0, 4a68 <pow+0x3c>
    4a5e:	4620      	mov	r0, r4
    4a60:	4629      	mov	r1, r5
    4a62:	b00b      	add	sp, #44	; 0x2c
    4a64:	e8bd 8ff0 	ldmia.w	sp!, {r4, r5, r6, r7, r8, r9, sl, fp, pc}
    4a68:	4650      	mov	r0, sl
    4a6a:	4659      	mov	r1, fp
    4a6c:	f001 f818 	bl	5aa0 <__fpclassifyd>
    4a70:	4607      	mov	r7, r0
    4a72:	bb48      	cbnz	r0, 4ac8 <pow+0x9c>
    4a74:	4640      	mov	r0, r8
    4a76:	4649      	mov	r1, r9
    4a78:	2200      	movs	r2, #0
    4a7a:	2300      	movs	r3, #0
    4a7c:	f001 fdae 	bl	65dc <__aeabi_dcmpeq>
    4a80:	2800      	cmp	r0, #0
    4a82:	d0ec      	beq.n	4a5e <pow+0x32>
    4a84:	f996 2000 	ldrsb.w	r2, [r6]
    4a88:	f64a 3328 	movw	r3, #43816	; 0xab28
    4a8c:	f2c0 0300 	movt	r3, #0
    4a90:	9301      	str	r3, [sp, #4]
    4a92:	f1a2 30ff 	sub.w	r0, r2, #4294967295
    4a96:	9708      	str	r7, [sp, #32]
    4a98:	4241      	negs	r1, r0
    4a9a:	e9cd ab02 	strd	sl, fp, [sp, #8]
    4a9e:	eb41 0100 	adc.w	r1, r1, r0
    4aa2:	2300      	movs	r3, #0
    4aa4:	2a02      	cmp	r2, #2
    4aa6:	bf08      	it	eq
    4aa8:	f041 0101 	orreq.w	r1, r1, #1
    4aac:	f6c3 73f0 	movt	r3, #16368	; 0x3ff0
    4ab0:	2201      	movs	r2, #1
    4ab2:	e9cd 8904 	strd	r8, r9, [sp, #16]
    4ab6:	9200      	str	r2, [sp, #0]
    4ab8:	2200      	movs	r2, #0
    4aba:	e9cd 2306 	strd	r2, r3, [sp, #24]
    4abe:	2900      	cmp	r1, #0
    4ac0:	d02d      	beq.n	4b1e <pow+0xf2>
    4ac2:	e9dd 4506 	ldrd	r4, r5, [sp, #24]
    4ac6:	e7ca      	b.n	4a5e <pow+0x32>
    4ac8:	4650      	mov	r0, sl
    4aca:	4659      	mov	r1, fp
    4acc:	2200      	movs	r2, #0
    4ace:	2300      	movs	r3, #0
    4ad0:	f001 fd84 	bl	65dc <__aeabi_dcmpeq>
    4ad4:	2800      	cmp	r0, #0
    4ad6:	d02f      	beq.n	4b38 <pow+0x10c>
    4ad8:	4640      	mov	r0, r8
    4ada:	4649      	mov	r1, r9
    4adc:	2200      	movs	r2, #0
    4ade:	2300      	movs	r3, #0
    4ae0:	f001 fd7c 	bl	65dc <__aeabi_dcmpeq>
    4ae4:	2800      	cmp	r0, #0
    4ae6:	d062      	beq.n	4bae <pow+0x182>
    4ae8:	f996 2000 	ldrsb.w	r2, [r6]
    4aec:	f64a 3328 	movw	r3, #43816	; 0xab28
    4af0:	f2c0 0300 	movt	r3, #0
    4af4:	2101      	movs	r1, #1
    4af6:	9301      	str	r3, [sp, #4]
    4af8:	2000      	movs	r0, #0
    4afa:	9100      	str	r1, [sp, #0]
    4afc:	2300      	movs	r3, #0
    4afe:	2100      	movs	r1, #0
    4b00:	9308      	str	r3, [sp, #32]
    4b02:	e9cd ab02 	strd	sl, fp, [sp, #8]
    4b06:	e9cd 8904 	strd	r8, r9, [sp, #16]
    4b0a:	e9cd 0106 	strd	r0, r1, [sp, #24]
    4b0e:	b132      	cbz	r2, 4b1e <pow+0xf2>
    4b10:	2300      	movs	r3, #0
    4b12:	2200      	movs	r2, #0
    4b14:	f6c3 73f0 	movt	r3, #16368	; 0x3ff0
    4b18:	e9cd 2306 	strd	r2, r3, [sp, #24]
    4b1c:	e7d1      	b.n	4ac2 <pow+0x96>
    4b1e:	4668      	mov	r0, sp
    4b20:	f001 f806 	bl	5b30 <matherr>
    4b24:	2800      	cmp	r0, #0
    4b26:	d070      	beq.n	4c0a <pow+0x1de>
    4b28:	9b08      	ldr	r3, [sp, #32]
    4b2a:	2b00      	cmp	r3, #0
    4b2c:	d0c9      	beq.n	4ac2 <pow+0x96>
    4b2e:	f002 fa87 	bl	7040 <__errno>
    4b32:	9b08      	ldr	r3, [sp, #32]
    4b34:	6003      	str	r3, [r0, #0]
    4b36:	e7c4      	b.n	4ac2 <pow+0x96>
    4b38:	4620      	mov	r0, r4
    4b3a:	4629      	mov	r1, r5
    4b3c:	f000 ffa8 	bl	5a90 <finite>
    4b40:	4607      	mov	r7, r0
    4b42:	2800      	cmp	r0, #0
    4b44:	d066      	beq.n	4c14 <pow+0x1e8>
    4b46:	4620      	mov	r0, r4
    4b48:	4629      	mov	r1, r5
    4b4a:	2200      	movs	r2, #0
    4b4c:	2300      	movs	r3, #0
    4b4e:	f001 fd45 	bl	65dc <__aeabi_dcmpeq>
    4b52:	2800      	cmp	r0, #0
    4b54:	d083      	beq.n	4a5e <pow+0x32>
    4b56:	4650      	mov	r0, sl
    4b58:	4659      	mov	r1, fp
    4b5a:	f000 ff99 	bl	5a90 <finite>
    4b5e:	2800      	cmp	r0, #0
    4b60:	f43f af7d 	beq.w	4a5e <pow+0x32>
    4b64:	4640      	mov	r0, r8
    4b66:	4649      	mov	r1, r9
    4b68:	f000 ff92 	bl	5a90 <finite>
    4b6c:	2800      	cmp	r0, #0
    4b6e:	f43f af76 	beq.w	4a5e <pow+0x32>
    4b72:	f996 2000 	ldrsb.w	r2, [r6]
    4b76:	f64a 3328 	movw	r3, #43816	; 0xab28
    4b7a:	2104      	movs	r1, #4
    4b7c:	f2c0 0300 	movt	r3, #0
    4b80:	2000      	movs	r0, #0
    4b82:	9100      	str	r1, [sp, #0]
    4b84:	9301      	str	r3, [sp, #4]
    4b86:	2100      	movs	r1, #0
    4b88:	2300      	movs	r3, #0
    4b8a:	2a02      	cmp	r2, #2
    4b8c:	9308      	str	r3, [sp, #32]
    4b8e:	e9cd ab02 	strd	sl, fp, [sp, #8]
    4b92:	e9cd 8904 	strd	r8, r9, [sp, #16]
    4b96:	e9cd 0106 	strd	r0, r1, [sp, #24]
    4b9a:	d069      	beq.n	4c70 <pow+0x244>
    4b9c:	4668      	mov	r0, sp
    4b9e:	f000 ffc7 	bl	5b30 <matherr>
    4ba2:	2800      	cmp	r0, #0
    4ba4:	d064      	beq.n	4c70 <pow+0x244>
    4ba6:	9b08      	ldr	r3, [sp, #32]
    4ba8:	2b00      	cmp	r3, #0
    4baa:	d08a      	beq.n	4ac2 <pow+0x96>
    4bac:	e7bf      	b.n	4b2e <pow+0x102>
    4bae:	4640      	mov	r0, r8
    4bb0:	4649      	mov	r1, r9
    4bb2:	f000 ff6d 	bl	5a90 <finite>
    4bb6:	2800      	cmp	r0, #0
    4bb8:	f43f af51 	beq.w	4a5e <pow+0x32>
    4bbc:	4640      	mov	r0, r8
    4bbe:	4649      	mov	r1, r9
    4bc0:	2200      	movs	r2, #0
    4bc2:	2300      	movs	r3, #0
    4bc4:	f001 fd14 	bl	65f0 <__aeabi_dcmplt>
    4bc8:	2800      	cmp	r0, #0
    4bca:	f43f af48 	beq.w	4a5e <pow+0x32>
    4bce:	7831      	ldrb	r1, [r6, #0]
    4bd0:	f64a 3328 	movw	r3, #43816	; 0xab28
    4bd4:	f2c0 0300 	movt	r3, #0
    4bd8:	2201      	movs	r2, #1
    4bda:	9301      	str	r3, [sp, #4]
    4bdc:	2300      	movs	r3, #0
    4bde:	9200      	str	r2, [sp, #0]
    4be0:	9308      	str	r3, [sp, #32]
    4be2:	e9cd ab02 	strd	sl, fp, [sp, #8]
    4be6:	e9cd 8904 	strd	r8, r9, [sp, #16]
    4bea:	2900      	cmp	r1, #0
    4bec:	d137      	bne.n	4c5e <pow+0x232>
    4bee:	2200      	movs	r2, #0
    4bf0:	2300      	movs	r3, #0
    4bf2:	e9cd 2306 	strd	r2, r3, [sp, #24]
    4bf6:	4668      	mov	r0, sp
    4bf8:	f000 ff9a 	bl	5b30 <matherr>
    4bfc:	2800      	cmp	r0, #0
    4bfe:	d1d2      	bne.n	4ba6 <pow+0x17a>
    4c00:	f002 fa1e 	bl	7040 <__errno>
    4c04:	2321      	movs	r3, #33	; 0x21
    4c06:	6003      	str	r3, [r0, #0]
    4c08:	e7cd      	b.n	4ba6 <pow+0x17a>
    4c0a:	f002 fa19 	bl	7040 <__errno>
    4c0e:	2321      	movs	r3, #33	; 0x21
    4c10:	6003      	str	r3, [r0, #0]
    4c12:	e789      	b.n	4b28 <pow+0xfc>
    4c14:	4650      	mov	r0, sl
    4c16:	4659      	mov	r1, fp
    4c18:	f000 ff3a 	bl	5a90 <finite>
    4c1c:	2800      	cmp	r0, #0
    4c1e:	d092      	beq.n	4b46 <pow+0x11a>
    4c20:	4640      	mov	r0, r8
    4c22:	4649      	mov	r1, r9
    4c24:	f000 ff34 	bl	5a90 <finite>
    4c28:	2800      	cmp	r0, #0
    4c2a:	d08c      	beq.n	4b46 <pow+0x11a>
    4c2c:	4620      	mov	r0, r4
    4c2e:	4629      	mov	r1, r5
    4c30:	f000 ff36 	bl	5aa0 <__fpclassifyd>
    4c34:	bb08      	cbnz	r0, 4c7a <pow+0x24e>
    4c36:	7834      	ldrb	r4, [r6, #0]
    4c38:	f64a 3328 	movw	r3, #43816	; 0xab28
    4c3c:	f2c0 0300 	movt	r3, #0
    4c40:	2201      	movs	r2, #1
    4c42:	9301      	str	r3, [sp, #4]
    4c44:	9200      	str	r2, [sp, #0]
    4c46:	9008      	str	r0, [sp, #32]
    4c48:	e9cd ab02 	strd	sl, fp, [sp, #8]
    4c4c:	e9cd 8904 	strd	r8, r9, [sp, #16]
    4c50:	2c00      	cmp	r4, #0
    4c52:	d167      	bne.n	4d24 <pow+0x2f8>
    4c54:	2000      	movs	r0, #0
    4c56:	2100      	movs	r1, #0
    4c58:	e9cd 0106 	strd	r0, r1, [sp, #24]
    4c5c:	e7cb      	b.n	4bf6 <pow+0x1ca>
    4c5e:	2200      	movs	r2, #0
    4c60:	2300      	movs	r3, #0
    4c62:	2902      	cmp	r1, #2
    4c64:	f6cf 73f0 	movt	r3, #65520	; 0xfff0
    4c68:	e9cd 2306 	strd	r2, r3, [sp, #24]
    4c6c:	d0c8      	beq.n	4c00 <pow+0x1d4>
    4c6e:	e7c2      	b.n	4bf6 <pow+0x1ca>
    4c70:	f002 f9e6 	bl	7040 <__errno>
    4c74:	2322      	movs	r3, #34	; 0x22
    4c76:	6003      	str	r3, [r0, #0]
    4c78:	e795      	b.n	4ba6 <pow+0x17a>
    4c7a:	f996 2000 	ldrsb.w	r2, [r6]
    4c7e:	f64a 3328 	movw	r3, #43816	; 0xab28
    4c82:	f2c0 0300 	movt	r3, #0
    4c86:	2103      	movs	r1, #3
    4c88:	9301      	str	r3, [sp, #4]
    4c8a:	9100      	str	r1, [sp, #0]
    4c8c:	9708      	str	r7, [sp, #32]
    4c8e:	e9cd ab02 	strd	sl, fp, [sp, #8]
    4c92:	e9cd 8904 	strd	r8, r9, [sp, #16]
    4c96:	b9f2      	cbnz	r2, 4cd6 <pow+0x2aa>
    4c98:	f64f 75ff 	movw	r5, #65535	; 0xffff
    4c9c:	4650      	mov	r0, sl
    4c9e:	4659      	mov	r1, fp
    4ca0:	2200      	movs	r2, #0
    4ca2:	2300      	movs	r3, #0
    4ca4:	f04f 4460 	mov.w	r4, #3758096384	; 0xe0000000
    4ca8:	f2c4 75ef 	movt	r5, #18415	; 0x47ef
    4cac:	e9cd 4506 	strd	r4, r5, [sp, #24]
    4cb0:	f001 fc9e 	bl	65f0 <__aeabi_dcmplt>
    4cb4:	2800      	cmp	r0, #0
    4cb6:	d141      	bne.n	4d3c <pow+0x310>
    4cb8:	f996 3000 	ldrsb.w	r3, [r6]
    4cbc:	2b02      	cmp	r3, #2
    4cbe:	d005      	beq.n	4ccc <pow+0x2a0>
    4cc0:	4668      	mov	r0, sp
    4cc2:	f000 ff35 	bl	5b30 <matherr>
    4cc6:	2800      	cmp	r0, #0
    4cc8:	f47f af2e 	bne.w	4b28 <pow+0xfc>
    4ccc:	f002 f9b8 	bl	7040 <__errno>
    4cd0:	2322      	movs	r3, #34	; 0x22
    4cd2:	6003      	str	r3, [r0, #0]
    4cd4:	e728      	b.n	4b28 <pow+0xfc>
    4cd6:	2500      	movs	r5, #0
    4cd8:	4650      	mov	r0, sl
    4cda:	4659      	mov	r1, fp
    4cdc:	2200      	movs	r2, #0
    4cde:	2300      	movs	r3, #0
    4ce0:	2400      	movs	r4, #0
    4ce2:	f6c7 75f0 	movt	r5, #32752	; 0x7ff0
    4ce6:	e9cd 4506 	strd	r4, r5, [sp, #24]
    4cea:	f001 fc81 	bl	65f0 <__aeabi_dcmplt>
    4cee:	2800      	cmp	r0, #0
    4cf0:	d0e2      	beq.n	4cb8 <pow+0x28c>
    4cf2:	2300      	movs	r3, #0
    4cf4:	2200      	movs	r2, #0
    4cf6:	f6c3 73e0 	movt	r3, #16352	; 0x3fe0
    4cfa:	4640      	mov	r0, r8
    4cfc:	4649      	mov	r1, r9
    4cfe:	f001 fa05 	bl	610c <__aeabi_dmul>
    4d02:	4604      	mov	r4, r0
    4d04:	460d      	mov	r5, r1
    4d06:	f000 ff1b 	bl	5b40 <rint>
    4d0a:	4622      	mov	r2, r4
    4d0c:	462b      	mov	r3, r5
    4d0e:	f001 fc65 	bl	65dc <__aeabi_dcmpeq>
    4d12:	2800      	cmp	r0, #0
    4d14:	d1d0      	bne.n	4cb8 <pow+0x28c>
    4d16:	2300      	movs	r3, #0
    4d18:	2200      	movs	r2, #0
    4d1a:	f6cf 73f0 	movt	r3, #65520	; 0xfff0
    4d1e:	e9cd 2306 	strd	r2, r3, [sp, #24]
    4d22:	e7c9      	b.n	4cb8 <pow+0x28c>
    4d24:	2000      	movs	r0, #0
    4d26:	2100      	movs	r1, #0
    4d28:	4602      	mov	r2, r0
    4d2a:	460b      	mov	r3, r1
    4d2c:	f001 fb18 	bl	6360 <__aeabi_ddiv>
    4d30:	2c02      	cmp	r4, #2
    4d32:	e9cd 0106 	strd	r0, r1, [sp, #24]
    4d36:	f43f af63 	beq.w	4c00 <pow+0x1d4>
    4d3a:	e75c      	b.n	4bf6 <pow+0x1ca>
    4d3c:	2300      	movs	r3, #0
    4d3e:	2200      	movs	r2, #0
    4d40:	f6c3 73e0 	movt	r3, #16352	; 0x3fe0
    4d44:	4640      	mov	r0, r8
    4d46:	4649      	mov	r1, r9
    4d48:	f001 f9e0 	bl	610c <__aeabi_dmul>
    4d4c:	4604      	mov	r4, r0
    4d4e:	460d      	mov	r5, r1
    4d50:	f000 fef6 	bl	5b40 <rint>
    4d54:	4622      	mov	r2, r4
    4d56:	462b      	mov	r3, r5
    4d58:	f001 fc40 	bl	65dc <__aeabi_dcmpeq>
    4d5c:	2800      	cmp	r0, #0
    4d5e:	d1ab      	bne.n	4cb8 <pow+0x28c>
    4d60:	f64f 73ff 	movw	r3, #65535	; 0xffff
    4d64:	f04f 4260 	mov.w	r2, #3758096384	; 0xe0000000
    4d68:	f2cc 73ef 	movt	r3, #51183	; 0xc7ef
    4d6c:	e9cd 2306 	strd	r2, r3, [sp, #24]
    4d70:	e7a2      	b.n	4cb8 <pow+0x28c>
    4d72:	bf00      	nop
    4d74:	0000      	movs	r0, r0
	...

00004d78 <__ieee754_pow>:
    4d78:	e92d 4ff0 	stmdb	sp!, {r4, r5, r6, r7, r8, r9, sl, fp, lr}
    4d7c:	f023 4500 	bic.w	r5, r3, #2147483648	; 0x80000000
    4d80:	4688      	mov	r8, r1
    4d82:	468a      	mov	sl, r1
    4d84:	ea55 0102 	orrs.w	r1, r5, r2
    4d88:	b091      	sub	sp, #68	; 0x44
    4d8a:	4617      	mov	r7, r2
    4d8c:	461e      	mov	r6, r3
    4d8e:	4614      	mov	r4, r2
    4d90:	4683      	mov	fp, r0
    4d92:	469c      	mov	ip, r3
    4d94:	4681      	mov	r9, r0
    4d96:	f000 808d 	beq.w	4eb4 <__ieee754_pow+0x13c>
    4d9a:	2100      	movs	r1, #0
    4d9c:	f028 4000 	bic.w	r0, r8, #2147483648	; 0x80000000
    4da0:	f6c7 71f0 	movt	r1, #32752	; 0x7ff0
    4da4:	9002      	str	r0, [sp, #8]
    4da6:	4288      	cmp	r0, r1
    4da8:	f8cd 8010 	str.w	r8, [sp, #16]
    4dac:	dd0f      	ble.n	4dce <__ieee754_pow+0x56>
    4dae:	9902      	ldr	r1, [sp, #8]
    4db0:	f101 4740 	add.w	r7, r1, #3221225472	; 0xc0000000
    4db4:	f507 1780 	add.w	r7, r7, #1048576	; 0x100000
    4db8:	ea57 0709 	orrs.w	r7, r7, r9
    4dbc:	d17f      	bne.n	4ebe <__ieee754_pow+0x146>
    4dbe:	2600      	movs	r6, #0
    4dc0:	f6c3 76f0 	movt	r6, #16368	; 0x3ff0
    4dc4:	4638      	mov	r0, r7
    4dc6:	4631      	mov	r1, r6
    4dc8:	b011      	add	sp, #68	; 0x44
    4dca:	e8bd 8ff0 	ldmia.w	sp!, {r4, r5, r6, r7, r8, r9, sl, fp, pc}
    4dce:	bf14      	ite	ne
    4dd0:	2200      	movne	r2, #0
    4dd2:	2201      	moveq	r2, #1
    4dd4:	f1bb 0f00 	cmp.w	fp, #0
    4dd8:	bf0c      	ite	eq
    4dda:	2300      	moveq	r3, #0
    4ddc:	f002 0301 	andne.w	r3, r2, #1
    4de0:	2b00      	cmp	r3, #0
    4de2:	d1e4      	bne.n	4dae <__ieee754_pow+0x36>
    4de4:	428d      	cmp	r5, r1
    4de6:	dce2      	bgt.n	4dae <__ieee754_pow+0x36>
    4de8:	bf14      	ite	ne
    4dea:	2000      	movne	r0, #0
    4dec:	2001      	moveq	r0, #1
    4dee:	2f00      	cmp	r7, #0
    4df0:	bf0c      	ite	eq
    4df2:	2100      	moveq	r1, #0
    4df4:	f000 0101 	andne.w	r1, r0, #1
    4df8:	2900      	cmp	r1, #0
    4dfa:	d1d8      	bne.n	4dae <__ieee754_pow+0x36>
    4dfc:	f1b8 0f00 	cmp.w	r8, #0
    4e00:	db66      	blt.n	4ed0 <__ieee754_pow+0x158>
    4e02:	9107      	str	r1, [sp, #28]
    4e04:	b994      	cbnz	r4, 4e2c <__ieee754_pow+0xb4>
    4e06:	2800      	cmp	r0, #0
    4e08:	f040 8081 	bne.w	4f0e <__ieee754_pow+0x196>
    4e0c:	2300      	movs	r3, #0
    4e0e:	f6c3 73f0 	movt	r3, #16368	; 0x3ff0
    4e12:	429d      	cmp	r5, r3
    4e14:	f000 80b8 	beq.w	4f88 <__ieee754_pow+0x210>
    4e18:	f1bc 4f80 	cmp.w	ip, #1073741824	; 0x40000000
    4e1c:	f000 83d7 	beq.w	55ce <__ieee754_pow+0x856>
    4e20:	2300      	movs	r3, #0
    4e22:	f6c3 73e0 	movt	r3, #16352	; 0x3fe0
    4e26:	459c      	cmp	ip, r3
    4e28:	f000 83c0 	beq.w	55ac <__ieee754_pow+0x834>
    4e2c:	4658      	mov	r0, fp
    4e2e:	4641      	mov	r1, r8
    4e30:	9201      	str	r2, [sp, #4]
    4e32:	f8cd c000 	str.w	ip, [sp]
    4e36:	f000 fe27 	bl	5a88 <fabs>
    4e3a:	9a01      	ldr	r2, [sp, #4]
    4e3c:	f8dd c000 	ldr.w	ip, [sp]
    4e40:	460c      	mov	r4, r1
    4e42:	f1b9 0f00 	cmp.w	r9, #0
    4e46:	d10b      	bne.n	4e60 <__ieee754_pow+0xe8>
    4e48:	9902      	ldr	r1, [sp, #8]
    4e4a:	2900      	cmp	r1, #0
    4e4c:	bf08      	it	eq
    4e4e:	f042 0201 	orreq.w	r2, r2, #1
    4e52:	2a00      	cmp	r2, #0
    4e54:	d172      	bne.n	4f3c <__ieee754_pow+0x1c4>
    4e56:	2300      	movs	r3, #0
    4e58:	f6c3 73f0 	movt	r3, #16368	; 0x3ff0
    4e5c:	4299      	cmp	r1, r3
    4e5e:	d06d      	beq.n	4f3c <__ieee754_pow+0x1c4>
    4e60:	ea4f 79da 	mov.w	r9, sl, lsr #31
    4e64:	9b07      	ldr	r3, [sp, #28]
    4e66:	f109 39ff 	add.w	r9, r9, #4294967295
    4e6a:	ea53 0309 	orrs.w	r3, r3, r9
    4e6e:	f000 8086 	beq.w	4f7e <__ieee754_pow+0x206>
    4e72:	2300      	movs	r3, #0
    4e74:	f2c4 13e0 	movt	r3, #16864	; 0x41e0
    4e78:	429d      	cmp	r5, r3
    4e7a:	f340 80a1 	ble.w	4fc0 <__ieee754_pow+0x248>
    4e7e:	2300      	movs	r3, #0
    4e80:	f2c4 33f0 	movt	r3, #17392	; 0x43f0
    4e84:	429d      	cmp	r5, r3
    4e86:	f340 8437 	ble.w	56f8 <__ieee754_pow+0x980>
    4e8a:	f64f 73ff 	movw	r3, #65535	; 0xffff
    4e8e:	9e02      	ldr	r6, [sp, #8]
    4e90:	f6c3 73ef 	movt	r3, #16367	; 0x3fef
    4e94:	429e      	cmp	r6, r3
    4e96:	f340 83a4 	ble.w	55e2 <__ieee754_pow+0x86a>
    4e9a:	f1bc 0f00 	cmp.w	ip, #0
    4e9e:	dd4a      	ble.n	4f36 <__ieee754_pow+0x1be>
    4ea0:	a145      	add	r1, pc, #276	; (adr r1, 4fb8 <__ieee754_pow+0x240>)
    4ea2:	e9d1 0100 	ldrd	r0, r1, [r1]
    4ea6:	4602      	mov	r2, r0
    4ea8:	460b      	mov	r3, r1
    4eaa:	f001 f92f 	bl	610c <__aeabi_dmul>
    4eae:	4607      	mov	r7, r0
    4eb0:	460e      	mov	r6, r1
    4eb2:	e787      	b.n	4dc4 <__ieee754_pow+0x4c>
    4eb4:	2600      	movs	r6, #0
    4eb6:	460f      	mov	r7, r1
    4eb8:	f6c3 76f0 	movt	r6, #16368	; 0x3ff0
    4ebc:	e782      	b.n	4dc4 <__ieee754_pow+0x4c>
    4ebe:	f64a 3060 	movw	r0, #43872	; 0xab60
    4ec2:	f2c0 0000 	movt	r0, #0
    4ec6:	b011      	add	sp, #68	; 0x44
    4ec8:	e8bd 4ff0 	ldmia.w	sp!, {r4, r5, r6, r7, r8, r9, sl, fp, lr}
    4ecc:	f000 be32 	b.w	5b34 <nan>
    4ed0:	f64f 73ff 	movw	r3, #65535	; 0xffff
    4ed4:	f2c4 333f 	movt	r3, #17215	; 0x433f
    4ed8:	429d      	cmp	r5, r3
    4eda:	dc67      	bgt.n	4fac <__ieee754_pow+0x234>
    4edc:	f64f 73ff 	movw	r3, #65535	; 0xffff
    4ee0:	f6c3 73ef 	movt	r3, #16367	; 0x3fef
    4ee4:	429d      	cmp	r5, r3
    4ee6:	dd8c      	ble.n	4e02 <__ieee754_pow+0x8a>
    4ee8:	152b      	asrs	r3, r5, #20
    4eea:	f5a3 737e 	sub.w	r3, r3, #1016	; 0x3f8
    4eee:	3b07      	subs	r3, #7
    4ef0:	2b14      	cmp	r3, #20
    4ef2:	f340 8491 	ble.w	5818 <__ieee754_pow+0xaa0>
    4ef6:	f1c3 0334 	rsb	r3, r3, #52	; 0x34
    4efa:	fa37 f103 	lsrs.w	r1, r7, r3
    4efe:	fa11 f303 	lsls.w	r3, r1, r3
    4f02:	42bb      	cmp	r3, r7
    4f04:	f000 84ae 	beq.w	5864 <__ieee754_pow+0xaec>
    4f08:	2100      	movs	r1, #0
    4f0a:	9107      	str	r1, [sp, #28]
    4f0c:	e77a      	b.n	4e04 <__ieee754_pow+0x8c>
    4f0e:	9a02      	ldr	r2, [sp, #8]
    4f10:	f102 4340 	add.w	r3, r2, #3221225472	; 0xc0000000
    4f14:	f503 1380 	add.w	r3, r3, #1048576	; 0x100000
    4f18:	ea53 0309 	orrs.w	r3, r3, r9
    4f1c:	f000 8351 	beq.w	55c2 <__ieee754_pow+0x84a>
    4f20:	f64f 73ff 	movw	r3, #65535	; 0xffff
    4f24:	f6c3 73ef 	movt	r3, #16367	; 0x3fef
    4f28:	429a      	cmp	r2, r3
    4f2a:	f340 83ba 	ble.w	56a2 <__ieee754_pow+0x92a>
    4f2e:	f1bc 0f00 	cmp.w	ip, #0
    4f32:	f6bf af47 	bge.w	4dc4 <__ieee754_pow+0x4c>
    4f36:	2700      	movs	r7, #0
    4f38:	463e      	mov	r6, r7
    4f3a:	e743      	b.n	4dc4 <__ieee754_pow+0x4c>
    4f3c:	f1bc 0f00 	cmp.w	ip, #0
    4f40:	bfa4      	itt	ge
    4f42:	4607      	movge	r7, r0
    4f44:	4626      	movge	r6, r4
    4f46:	f2c0 844b 	blt.w	57e0 <__ieee754_pow+0xa68>
    4f4a:	9a04      	ldr	r2, [sp, #16]
    4f4c:	2a00      	cmp	r2, #0
    4f4e:	f6bf af39 	bge.w	4dc4 <__ieee754_pow+0x4c>
    4f52:	9802      	ldr	r0, [sp, #8]
    4f54:	9907      	ldr	r1, [sp, #28]
    4f56:	f100 4340 	add.w	r3, r0, #3221225472	; 0xc0000000
    4f5a:	f503 1380 	add.w	r3, r3, #1048576	; 0x100000
    4f5e:	4319      	orrs	r1, r3
    4f60:	f040 8467 	bne.w	5832 <__ieee754_pow+0xaba>
    4f64:	463a      	mov	r2, r7
    4f66:	4633      	mov	r3, r6
    4f68:	4638      	mov	r0, r7
    4f6a:	4631      	mov	r1, r6
    4f6c:	f000 ff1a 	bl	5da4 <__aeabi_dsub>
    4f70:	4602      	mov	r2, r0
    4f72:	460b      	mov	r3, r1
    4f74:	f001 f9f4 	bl	6360 <__aeabi_ddiv>
    4f78:	4607      	mov	r7, r0
    4f7a:	460e      	mov	r6, r1
    4f7c:	e722      	b.n	4dc4 <__ieee754_pow+0x4c>
    4f7e:	4658      	mov	r0, fp
    4f80:	4641      	mov	r1, r8
    4f82:	465a      	mov	r2, fp
    4f84:	4643      	mov	r3, r8
    4f86:	e7f1      	b.n	4f6c <__ieee754_pow+0x1f4>
    4f88:	f1bc 0f00 	cmp.w	ip, #0
    4f8c:	bfa4      	itt	ge
    4f8e:	465f      	movge	r7, fp
    4f90:	4646      	movge	r6, r8
    4f92:	f6bf af17 	bge.w	4dc4 <__ieee754_pow+0x4c>
    4f96:	2100      	movs	r1, #0
    4f98:	465a      	mov	r2, fp
    4f9a:	2000      	movs	r0, #0
    4f9c:	f6c3 71f0 	movt	r1, #16368	; 0x3ff0
    4fa0:	4643      	mov	r3, r8
    4fa2:	f001 f9dd 	bl	6360 <__aeabi_ddiv>
    4fa6:	4607      	mov	r7, r0
    4fa8:	460e      	mov	r6, r1
    4faa:	e70b      	b.n	4dc4 <__ieee754_pow+0x4c>
    4fac:	2302      	movs	r3, #2
    4fae:	9307      	str	r3, [sp, #28]
    4fb0:	2c00      	cmp	r4, #0
    4fb2:	f43f af28 	beq.w	4e06 <__ieee754_pow+0x8e>
    4fb6:	e739      	b.n	4e2c <__ieee754_pow+0xb4>
    4fb8:	8800759c 	.word	0x8800759c
    4fbc:	7e37e43c 	.word	0x7e37e43c
    4fc0:	9b02      	ldr	r3, [sp, #8]
    4fc2:	f5b3 1f80 	cmp.w	r3, #1048576	; 0x100000
    4fc6:	bfa4      	itt	ge
    4fc8:	f64f 4c01 	movwge	ip, #64513	; 0xfc01
    4fcc:	f6cf 7cff 	movtge	ip, #65535	; 0xffff
    4fd0:	da0b      	bge.n	4fea <__ieee754_pow+0x272>
    4fd2:	2300      	movs	r3, #0
    4fd4:	2200      	movs	r2, #0
    4fd6:	f2c4 3340 	movt	r3, #17216	; 0x4340
    4fda:	4621      	mov	r1, r4
    4fdc:	f001 f896 	bl	610c <__aeabi_dmul>
    4fe0:	f64f 3ccc 	movw	ip, #64460	; 0xfbcc
    4fe4:	f6cf 7cff 	movt	ip, #65535	; 0xffff
    4fe8:	9102      	str	r1, [sp, #8]
    4fea:	9902      	ldr	r1, [sp, #8]
    4fec:	f649 028e 	movw	r2, #39054	; 0x988e
    4ff0:	f2c0 0203 	movt	r2, #3
    4ff4:	f021 437f 	bic.w	r3, r1, #4278190080	; 0xff000000
    4ff8:	f423 0370 	bic.w	r3, r3, #15728640	; 0xf00000
    4ffc:	eb0c 5c21 	add.w	ip, ip, r1, asr #20
    5000:	4293      	cmp	r3, r2
    5002:	f043 557e 	orr.w	r5, r3, #1065353216	; 0x3f800000
    5006:	f445 05e0 	orr.w	r5, r5, #7340032	; 0x700000
    500a:	bfdc      	itt	le
    500c:	f44f 2a00 	movle.w	sl, #524288	; 0x80000
    5010:	f04f 0800 	movle.w	r8, #0
    5014:	dd12      	ble.n	503c <__ieee754_pow+0x2c4>
    5016:	f24b 6279 	movw	r2, #46713	; 0xb679
    501a:	f2c0 020b 	movt	r2, #11
    501e:	4293      	cmp	r3, r2
    5020:	bfc1      	itttt	gt
    5022:	f10c 0c01 	addgt.w	ip, ip, #1
    5026:	f5a5 1580 	subgt.w	r5, r5, #1048576	; 0x100000
    502a:	f44f 2a00 	movgt.w	sl, #524288	; 0x80000
    502e:	f04f 0800 	movgt.w	r8, #0
    5032:	bfdc      	itt	le
    5034:	f44f 2a40 	movle.w	sl, #786432	; 0xc0000
    5038:	f04f 0801 	movle.w	r8, #1
    503c:	f64a 3130 	movw	r1, #43824	; 0xab30
    5040:	4602      	mov	r2, r0
    5042:	f2c0 0100 	movt	r1, #0
    5046:	462b      	mov	r3, r5
    5048:	eb01 08c8 	add.w	r8, r1, r8, lsl #3
    504c:	e9cd 2308 	strd	r2, r3, [sp, #32]
    5050:	4629      	mov	r1, r5
    5052:	f8cd c000 	str.w	ip, [sp]
    5056:	e9d8 2300 	ldrd	r2, r3, [r8]
    505a:	f000 fea3 	bl	5da4 <__aeabi_dsub>
    505e:	e9d8 2300 	ldrd	r2, r3, [r8]
    5062:	e9cd 010a 	strd	r0, r1, [sp, #40]	; 0x28
    5066:	e9dd 0108 	ldrd	r0, r1, [sp, #32]
    506a:	f000 fe9d 	bl	5da8 <__adddf3>
    506e:	460b      	mov	r3, r1
    5070:	2100      	movs	r1, #0
    5072:	4602      	mov	r2, r0
    5074:	f6c3 71f0 	movt	r1, #16368	; 0x3ff0
    5078:	2000      	movs	r0, #0
    507a:	f001 f971 	bl	6360 <__aeabi_ddiv>
    507e:	e9cd 010c 	strd	r0, r1, [sp, #48]	; 0x30
    5082:	e9dd 230c 	ldrd	r2, r3, [sp, #48]	; 0x30
    5086:	e9dd 010a 	ldrd	r0, r1, [sp, #40]	; 0x28
    508a:	f001 f83f 	bl	610c <__aeabi_dmul>
    508e:	e9cd 0104 	strd	r0, r1, [sp, #16]
    5092:	1069      	asrs	r1, r5, #1
    5094:	e9dd 2304 	ldrd	r2, r3, [sp, #16]
    5098:	2000      	movs	r0, #0
    509a:	f041 5100 	orr.w	r1, r1, #536870912	; 0x20000000
    509e:	e9cd 2302 	strd	r2, r3, [sp, #8]
    50a2:	eb01 030a 	add.w	r3, r1, sl
    50a6:	9002      	str	r0, [sp, #8]
    50a8:	2200      	movs	r2, #0
    50aa:	e9dd ab02 	ldrd	sl, fp, [sp, #8]
    50ae:	4614      	mov	r4, r2
    50b0:	461d      	mov	r5, r3
    50b2:	4650      	mov	r0, sl
    50b4:	4659      	mov	r1, fp
    50b6:	f001 f829 	bl	610c <__aeabi_dmul>
    50ba:	4602      	mov	r2, r0
    50bc:	460b      	mov	r3, r1
    50be:	e9dd 010a 	ldrd	r0, r1, [sp, #40]	; 0x28
    50c2:	f000 fe6f 	bl	5da4 <__aeabi_dsub>
    50c6:	e9d8 2300 	ldrd	r2, r3, [r8]
    50ca:	e9cd 010a 	strd	r0, r1, [sp, #40]	; 0x28
    50ce:	4620      	mov	r0, r4
    50d0:	4629      	mov	r1, r5
    50d2:	f000 fe67 	bl	5da4 <__aeabi_dsub>
    50d6:	4602      	mov	r2, r0
    50d8:	460b      	mov	r3, r1
    50da:	e9dd 0108 	ldrd	r0, r1, [sp, #32]
    50de:	f000 fe61 	bl	5da4 <__aeabi_dsub>
    50e2:	4602      	mov	r2, r0
    50e4:	460b      	mov	r3, r1
    50e6:	4650      	mov	r0, sl
    50e8:	4659      	mov	r1, fp
    50ea:	f001 f80f 	bl	610c <__aeabi_dmul>
    50ee:	4602      	mov	r2, r0
    50f0:	460b      	mov	r3, r1
    50f2:	e9dd 010a 	ldrd	r0, r1, [sp, #40]	; 0x28
    50f6:	f000 fe55 	bl	5da4 <__aeabi_dsub>
    50fa:	e9dd 230c 	ldrd	r2, r3, [sp, #48]	; 0x30
    50fe:	f001 f805 	bl	610c <__aeabi_dmul>
    5102:	e9cd 0108 	strd	r0, r1, [sp, #32]
    5106:	e9dd 0104 	ldrd	r0, r1, [sp, #16]
    510a:	4602      	mov	r2, r0
    510c:	460b      	mov	r3, r1
    510e:	f000 fffd 	bl	610c <__aeabi_dmul>
    5112:	4602      	mov	r2, r0
    5114:	460b      	mov	r3, r1
    5116:	4604      	mov	r4, r0
    5118:	460d      	mov	r5, r1
    511a:	f000 fff7 	bl	610c <__aeabi_dmul>
    511e:	a3a4      	add	r3, pc, #656	; (adr r3, 53b0 <__ieee754_pow+0x638>)
    5120:	e9d3 2300 	ldrd	r2, r3, [r3]
    5124:	e9cd 010a 	strd	r0, r1, [sp, #40]	; 0x28
    5128:	4620      	mov	r0, r4
    512a:	4629      	mov	r1, r5
    512c:	f000 ffee 	bl	610c <__aeabi_dmul>
    5130:	a3a1      	add	r3, pc, #644	; (adr r3, 53b8 <__ieee754_pow+0x640>)
    5132:	e9d3 2300 	ldrd	r2, r3, [r3]
    5136:	f000 fe37 	bl	5da8 <__adddf3>
    513a:	4622      	mov	r2, r4
    513c:	462b      	mov	r3, r5
    513e:	f000 ffe5 	bl	610c <__aeabi_dmul>
    5142:	a39f      	add	r3, pc, #636	; (adr r3, 53c0 <__ieee754_pow+0x648>)
    5144:	e9d3 2300 	ldrd	r2, r3, [r3]
    5148:	f000 fe2e 	bl	5da8 <__adddf3>
    514c:	4622      	mov	r2, r4
    514e:	462b      	mov	r3, r5
    5150:	f000 ffdc 	bl	610c <__aeabi_dmul>
    5154:	a39c      	add	r3, pc, #624	; (adr r3, 53c8 <__ieee754_pow+0x650>)
    5156:	e9d3 2300 	ldrd	r2, r3, [r3]
    515a:	f000 fe25 	bl	5da8 <__adddf3>
    515e:	4622      	mov	r2, r4
    5160:	462b      	mov	r3, r5
    5162:	f000 ffd3 	bl	610c <__aeabi_dmul>
    5166:	a39a      	add	r3, pc, #616	; (adr r3, 53d0 <__ieee754_pow+0x658>)
    5168:	e9d3 2300 	ldrd	r2, r3, [r3]
    516c:	f000 fe1c 	bl	5da8 <__adddf3>
    5170:	4622      	mov	r2, r4
    5172:	462b      	mov	r3, r5
    5174:	f000 ffca 	bl	610c <__aeabi_dmul>
    5178:	a397      	add	r3, pc, #604	; (adr r3, 53d8 <__ieee754_pow+0x660>)
    517a:	e9d3 2300 	ldrd	r2, r3, [r3]
    517e:	f000 fe13 	bl	5da8 <__adddf3>
    5182:	4602      	mov	r2, r0
    5184:	460b      	mov	r3, r1
    5186:	e9dd 010a 	ldrd	r0, r1, [sp, #40]	; 0x28
    518a:	f000 ffbf 	bl	610c <__aeabi_dmul>
    518e:	e9dd 2304 	ldrd	r2, r3, [sp, #16]
    5192:	4604      	mov	r4, r0
    5194:	460d      	mov	r5, r1
    5196:	4650      	mov	r0, sl
    5198:	4659      	mov	r1, fp
    519a:	f000 fe05 	bl	5da8 <__adddf3>
    519e:	e9dd 2308 	ldrd	r2, r3, [sp, #32]
    51a2:	f000 ffb3 	bl	610c <__aeabi_dmul>
    51a6:	4622      	mov	r2, r4
    51a8:	462b      	mov	r3, r5
    51aa:	f000 fdfd 	bl	5da8 <__adddf3>
    51ae:	4652      	mov	r2, sl
    51b0:	465b      	mov	r3, fp
    51b2:	e9cd 010a 	strd	r0, r1, [sp, #40]	; 0x28
    51b6:	4650      	mov	r0, sl
    51b8:	4659      	mov	r1, fp
    51ba:	f000 ffa7 	bl	610c <__aeabi_dmul>
    51be:	2200      	movs	r2, #0
    51c0:	2300      	movs	r3, #0
    51c2:	f2c4 0308 	movt	r3, #16392	; 0x4008
    51c6:	e9cd 010e 	strd	r0, r1, [sp, #56]	; 0x38
    51ca:	f000 fded 	bl	5da8 <__adddf3>
    51ce:	e9dd 230a 	ldrd	r2, r3, [sp, #40]	; 0x28
    51d2:	f000 fde9 	bl	5da8 <__adddf3>
    51d6:	4650      	mov	r0, sl
    51d8:	460d      	mov	r5, r1
    51da:	9902      	ldr	r1, [sp, #8]
    51dc:	462b      	mov	r3, r5
    51de:	460c      	mov	r4, r1
    51e0:	4659      	mov	r1, fp
    51e2:	4622      	mov	r2, r4
    51e4:	f000 ff92 	bl	610c <__aeabi_dmul>
    51e8:	4622      	mov	r2, r4
    51ea:	462b      	mov	r3, r5
    51ec:	e9cd 010c 	strd	r0, r1, [sp, #48]	; 0x30
    51f0:	e9dd 0108 	ldrd	r0, r1, [sp, #32]
    51f4:	f000 ff8a 	bl	610c <__aeabi_dmul>
    51f8:	2300      	movs	r3, #0
    51fa:	2200      	movs	r2, #0
    51fc:	f2c4 0308 	movt	r3, #16392	; 0x4008
    5200:	4682      	mov	sl, r0
    5202:	468b      	mov	fp, r1
    5204:	4620      	mov	r0, r4
    5206:	4629      	mov	r1, r5
    5208:	f000 fdcc 	bl	5da4 <__aeabi_dsub>
    520c:	e9dd 230e 	ldrd	r2, r3, [sp, #56]	; 0x38
    5210:	f000 fdc8 	bl	5da4 <__aeabi_dsub>
    5214:	4602      	mov	r2, r0
    5216:	460b      	mov	r3, r1
    5218:	e9dd 010a 	ldrd	r0, r1, [sp, #40]	; 0x28
    521c:	f000 fdc2 	bl	5da4 <__aeabi_dsub>
    5220:	e9dd 2304 	ldrd	r2, r3, [sp, #16]
    5224:	f000 ff72 	bl	610c <__aeabi_dmul>
    5228:	4602      	mov	r2, r0
    522a:	460b      	mov	r3, r1
    522c:	4650      	mov	r0, sl
    522e:	4659      	mov	r1, fp
    5230:	f000 fdba 	bl	5da8 <__adddf3>
    5234:	4682      	mov	sl, r0
    5236:	468b      	mov	fp, r1
    5238:	4652      	mov	r2, sl
    523a:	465b      	mov	r3, fp
    523c:	e9dd 010c 	ldrd	r0, r1, [sp, #48]	; 0x30
    5240:	f000 fdb2 	bl	5da8 <__adddf3>
    5244:	9a02      	ldr	r2, [sp, #8]
    5246:	4610      	mov	r0, r2
    5248:	a365      	add	r3, pc, #404	; (adr r3, 53e0 <__ieee754_pow+0x668>)
    524a:	e9d3 2300 	ldrd	r2, r3, [r3]
    524e:	4604      	mov	r4, r0
    5250:	460d      	mov	r5, r1
    5252:	f000 ff5b 	bl	610c <__aeabi_dmul>
    5256:	a364      	add	r3, pc, #400	; (adr r3, 53e8 <__ieee754_pow+0x670>)
    5258:	e9d3 2300 	ldrd	r2, r3, [r3]
    525c:	e9cd 0104 	strd	r0, r1, [sp, #16]
    5260:	4620      	mov	r0, r4
    5262:	4629      	mov	r1, r5
    5264:	f000 ff52 	bl	610c <__aeabi_dmul>
    5268:	e9dd 230c 	ldrd	r2, r3, [sp, #48]	; 0x30
    526c:	e9cd 0108 	strd	r0, r1, [sp, #32]
    5270:	4620      	mov	r0, r4
    5272:	4629      	mov	r1, r5
    5274:	f000 fd96 	bl	5da4 <__aeabi_dsub>
    5278:	4602      	mov	r2, r0
    527a:	460b      	mov	r3, r1
    527c:	4650      	mov	r0, sl
    527e:	4659      	mov	r1, fp
    5280:	f000 fd90 	bl	5da4 <__aeabi_dsub>
    5284:	a35a      	add	r3, pc, #360	; (adr r3, 53f0 <__ieee754_pow+0x678>)
    5286:	e9d3 2300 	ldrd	r2, r3, [r3]
    528a:	f000 ff3f 	bl	610c <__aeabi_dmul>
    528e:	4602      	mov	r2, r0
    5290:	460b      	mov	r3, r1
    5292:	e9dd 0108 	ldrd	r0, r1, [sp, #32]
    5296:	f000 fd87 	bl	5da8 <__adddf3>
    529a:	e9d8 2304 	ldrd	r2, r3, [r8, #16]
    529e:	f000 fd83 	bl	5da8 <__adddf3>
    52a2:	f8dd c000 	ldr.w	ip, [sp]
    52a6:	e9cd 0108 	strd	r0, r1, [sp, #32]
    52aa:	4660      	mov	r0, ip
    52ac:	f000 fec8 	bl	6040 <__aeabi_i2d>
    52b0:	e9d8 ab08 	ldrd	sl, fp, [r8, #32]
    52b4:	e9dd 2308 	ldrd	r2, r3, [sp, #32]
    52b8:	4604      	mov	r4, r0
    52ba:	460d      	mov	r5, r1
    52bc:	e9dd 0104 	ldrd	r0, r1, [sp, #16]
    52c0:	f000 fd72 	bl	5da8 <__adddf3>
    52c4:	4652      	mov	r2, sl
    52c6:	465b      	mov	r3, fp
    52c8:	f000 fd6e 	bl	5da8 <__adddf3>
    52cc:	4622      	mov	r2, r4
    52ce:	462b      	mov	r3, r5
    52d0:	f000 fd6a 	bl	5da8 <__adddf3>
    52d4:	9b02      	ldr	r3, [sp, #8]
    52d6:	4622      	mov	r2, r4
    52d8:	4618      	mov	r0, r3
    52da:	462b      	mov	r3, r5
    52dc:	4604      	mov	r4, r0
    52de:	460d      	mov	r5, r1
    52e0:	f000 fd60 	bl	5da4 <__aeabi_dsub>
    52e4:	4652      	mov	r2, sl
    52e6:	465b      	mov	r3, fp
    52e8:	f000 fd5c 	bl	5da4 <__aeabi_dsub>
    52ec:	e9dd 2304 	ldrd	r2, r3, [sp, #16]
    52f0:	f000 fd58 	bl	5da4 <__aeabi_dsub>
    52f4:	4602      	mov	r2, r0
    52f6:	460b      	mov	r3, r1
    52f8:	e9dd 0108 	ldrd	r0, r1, [sp, #32]
    52fc:	f000 fd52 	bl	5da4 <__aeabi_dsub>
    5300:	4682      	mov	sl, r0
    5302:	468b      	mov	fp, r1
    5304:	9807      	ldr	r0, [sp, #28]
    5306:	1e43      	subs	r3, r0, #1
    5308:	ea53 0309 	orrs.w	r3, r3, r9
    530c:	f040 81c2 	bne.w	5694 <__ieee754_pow+0x91c>
    5310:	2300      	movs	r3, #0
    5312:	2200      	movs	r2, #0
    5314:	f6cb 73f0 	movt	r3, #49136	; 0xbff0
    5318:	e9cd 2302 	strd	r2, r3, [sp, #8]
    531c:	2200      	movs	r2, #0
    531e:	4633      	mov	r3, r6
    5320:	4638      	mov	r0, r7
    5322:	4631      	mov	r1, r6
    5324:	4690      	mov	r8, r2
    5326:	f000 fd3d 	bl	5da4 <__aeabi_dsub>
    532a:	4622      	mov	r2, r4
    532c:	462b      	mov	r3, r5
    532e:	f000 feed 	bl	610c <__aeabi_dmul>
    5332:	4652      	mov	r2, sl
    5334:	465b      	mov	r3, fp
    5336:	e9cd 0104 	strd	r0, r1, [sp, #16]
    533a:	4638      	mov	r0, r7
    533c:	4631      	mov	r1, r6
    533e:	f000 fee5 	bl	610c <__aeabi_dmul>
    5342:	4602      	mov	r2, r0
    5344:	460b      	mov	r3, r1
    5346:	e9dd 0104 	ldrd	r0, r1, [sp, #16]
    534a:	f000 fd2d 	bl	5da8 <__adddf3>
    534e:	4622      	mov	r2, r4
    5350:	462b      	mov	r3, r5
    5352:	4682      	mov	sl, r0
    5354:	468b      	mov	fp, r1
    5356:	4640      	mov	r0, r8
    5358:	4631      	mov	r1, r6
    535a:	f000 fed7 	bl	610c <__aeabi_dmul>
    535e:	f64f 76ff 	movw	r6, #65535	; 0xffff
    5362:	f2c4 068f 	movt	r6, #16527	; 0x408f
    5366:	4604      	mov	r4, r0
    5368:	460d      	mov	r5, r1
    536a:	4650      	mov	r0, sl
    536c:	4659      	mov	r1, fp
    536e:	4622      	mov	r2, r4
    5370:	462b      	mov	r3, r5
    5372:	f000 fd19 	bl	5da8 <__adddf3>
    5376:	42b1      	cmp	r1, r6
    5378:	4680      	mov	r8, r0
    537a:	4689      	mov	r9, r1
    537c:	460f      	mov	r7, r1
    537e:	f340 8135 	ble.w	55ec <__ieee754_pow+0x874>
    5382:	f101 433f 	add.w	r3, r1, #3204448256	; 0xbf000000
    5386:	f503 03e0 	add.w	r3, r3, #7340032	; 0x700000
    538a:	4303      	orrs	r3, r0
    538c:	f040 8234 	bne.w	57f8 <__ieee754_pow+0xa80>
    5390:	a319      	add	r3, pc, #100	; (adr r3, 53f8 <__ieee754_pow+0x680>)
    5392:	e9d3 2300 	ldrd	r2, r3, [r3]
    5396:	4650      	mov	r0, sl
    5398:	4659      	mov	r1, fp
    539a:	f029 4600 	bic.w	r6, r9, #2147483648	; 0x80000000
    539e:	f000 fd03 	bl	5da8 <__adddf3>
    53a2:	4622      	mov	r2, r4
    53a4:	462b      	mov	r3, r5
    53a6:	e9cd 0104 	strd	r0, r1, [sp, #16]
    53aa:	4640      	mov	r0, r8
    53ac:	e028      	b.n	5400 <__ieee754_pow+0x688>
    53ae:	bf00      	nop
    53b0:	4a454eef 	.word	0x4a454eef
    53b4:	3fca7e28 	.word	0x3fca7e28
    53b8:	93c9db65 	.word	0x93c9db65
    53bc:	3fcd864a 	.word	0x3fcd864a
    53c0:	a91d4101 	.word	0xa91d4101
    53c4:	3fd17460 	.word	0x3fd17460
    53c8:	518f264d 	.word	0x518f264d
    53cc:	3fd55555 	.word	0x3fd55555
    53d0:	db6fabff 	.word	0xdb6fabff
    53d4:	3fdb6db6 	.word	0x3fdb6db6
    53d8:	33333303 	.word	0x33333303
    53dc:	3fe33333 	.word	0x3fe33333
    53e0:	e0000000 	.word	0xe0000000
    53e4:	3feec709 	.word	0x3feec709
    53e8:	145b01f5 	.word	0x145b01f5
    53ec:	be3e2fe0 	.word	0xbe3e2fe0
    53f0:	dc3a03fd 	.word	0xdc3a03fd
    53f4:	3feec709 	.word	0x3feec709
    53f8:	652b82fe 	.word	0x652b82fe
    53fc:	3c971547 	.word	0x3c971547
    5400:	4649      	mov	r1, r9
    5402:	f000 fccf 	bl	5da4 <__aeabi_dsub>
    5406:	4602      	mov	r2, r0
    5408:	460b      	mov	r3, r1
    540a:	e9dd 0104 	ldrd	r0, r1, [sp, #16]
    540e:	f001 f90d 	bl	662c <__aeabi_dcmpgt>
    5412:	2800      	cmp	r0, #0
    5414:	f040 81f0 	bne.w	57f8 <__ieee754_pow+0xa80>
    5418:	2300      	movs	r3, #0
    541a:	f6c3 73e0 	movt	r3, #16352	; 0x3fe0
    541e:	429e      	cmp	r6, r3
    5420:	f300 8100 	bgt.w	5624 <__ieee754_pow+0x8ac>
    5424:	2200      	movs	r2, #0
    5426:	9207      	str	r2, [sp, #28]
    5428:	4694      	mov	ip, r2
    542a:	f04f 0800 	mov.w	r8, #0
    542e:	a3a2      	add	r3, pc, #648	; (adr r3, 56b8 <__ieee754_pow+0x940>)
    5430:	e9d3 2300 	ldrd	r2, r3, [r3]
    5434:	4640      	mov	r0, r8
    5436:	4649      	mov	r1, r9
    5438:	f8cd c000 	str.w	ip, [sp]
    543c:	f000 fe66 	bl	610c <__aeabi_dmul>
    5440:	4622      	mov	r2, r4
    5442:	462b      	mov	r3, r5
    5444:	e9cd 0104 	strd	r0, r1, [sp, #16]
    5448:	4640      	mov	r0, r8
    544a:	4649      	mov	r1, r9
    544c:	f000 fcaa 	bl	5da4 <__aeabi_dsub>
    5450:	4602      	mov	r2, r0
    5452:	460b      	mov	r3, r1
    5454:	4650      	mov	r0, sl
    5456:	4659      	mov	r1, fp
    5458:	f000 fca4 	bl	5da4 <__aeabi_dsub>
    545c:	a398      	add	r3, pc, #608	; (adr r3, 56c0 <__ieee754_pow+0x948>)
    545e:	e9d3 2300 	ldrd	r2, r3, [r3]
    5462:	f000 fe53 	bl	610c <__aeabi_dmul>
    5466:	a398      	add	r3, pc, #608	; (adr r3, 56c8 <__ieee754_pow+0x950>)
    5468:	e9d3 2300 	ldrd	r2, r3, [r3]
    546c:	4604      	mov	r4, r0
    546e:	460d      	mov	r5, r1
    5470:	4640      	mov	r0, r8
    5472:	4649      	mov	r1, r9
    5474:	f000 fe4a 	bl	610c <__aeabi_dmul>
    5478:	4602      	mov	r2, r0
    547a:	460b      	mov	r3, r1
    547c:	4620      	mov	r0, r4
    547e:	4629      	mov	r1, r5
    5480:	f000 fc92 	bl	5da8 <__adddf3>
    5484:	4606      	mov	r6, r0
    5486:	460f      	mov	r7, r1
    5488:	4632      	mov	r2, r6
    548a:	463b      	mov	r3, r7
    548c:	e9dd 0104 	ldrd	r0, r1, [sp, #16]
    5490:	f000 fc8a 	bl	5da8 <__adddf3>
    5494:	e9dd 2304 	ldrd	r2, r3, [sp, #16]
    5498:	4604      	mov	r4, r0
    549a:	460d      	mov	r5, r1
    549c:	f000 fc82 	bl	5da4 <__aeabi_dsub>
    54a0:	4602      	mov	r2, r0
    54a2:	460b      	mov	r3, r1
    54a4:	4630      	mov	r0, r6
    54a6:	4639      	mov	r1, r7
    54a8:	f000 fc7c 	bl	5da4 <__aeabi_dsub>
    54ac:	4622      	mov	r2, r4
    54ae:	462b      	mov	r3, r5
    54b0:	4680      	mov	r8, r0
    54b2:	4689      	mov	r9, r1
    54b4:	4620      	mov	r0, r4
    54b6:	4629      	mov	r1, r5
    54b8:	f000 fe28 	bl	610c <__aeabi_dmul>
    54bc:	a384      	add	r3, pc, #528	; (adr r3, 56d0 <__ieee754_pow+0x958>)
    54be:	e9d3 2300 	ldrd	r2, r3, [r3]
    54c2:	4606      	mov	r6, r0
    54c4:	460f      	mov	r7, r1
    54c6:	f000 fe21 	bl	610c <__aeabi_dmul>
    54ca:	a383      	add	r3, pc, #524	; (adr r3, 56d8 <__ieee754_pow+0x960>)
    54cc:	e9d3 2300 	ldrd	r2, r3, [r3]
    54d0:	f000 fc68 	bl	5da4 <__aeabi_dsub>
    54d4:	4632      	mov	r2, r6
    54d6:	463b      	mov	r3, r7
    54d8:	f000 fe18 	bl	610c <__aeabi_dmul>
    54dc:	a380      	add	r3, pc, #512	; (adr r3, 56e0 <__ieee754_pow+0x968>)
    54de:	e9d3 2300 	ldrd	r2, r3, [r3]
    54e2:	f000 fc61 	bl	5da8 <__adddf3>
    54e6:	4632      	mov	r2, r6
    54e8:	463b      	mov	r3, r7
    54ea:	f000 fe0f 	bl	610c <__aeabi_dmul>
    54ee:	a37e      	add	r3, pc, #504	; (adr r3, 56e8 <__ieee754_pow+0x970>)
    54f0:	e9d3 2300 	ldrd	r2, r3, [r3]
    54f4:	f000 fc56 	bl	5da4 <__aeabi_dsub>
    54f8:	4632      	mov	r2, r6
    54fa:	463b      	mov	r3, r7
    54fc:	f000 fe06 	bl	610c <__aeabi_dmul>
    5500:	a37b      	add	r3, pc, #492	; (adr r3, 56f0 <__ieee754_pow+0x978>)
    5502:	e9d3 2300 	ldrd	r2, r3, [r3]
    5506:	f000 fc4f 	bl	5da8 <__adddf3>
    550a:	4632      	mov	r2, r6
    550c:	463b      	mov	r3, r7
    550e:	f000 fdfd 	bl	610c <__aeabi_dmul>
    5512:	4602      	mov	r2, r0
    5514:	460b      	mov	r3, r1
    5516:	4620      	mov	r0, r4
    5518:	4629      	mov	r1, r5
    551a:	f000 fc43 	bl	5da4 <__aeabi_dsub>
    551e:	4606      	mov	r6, r0
    5520:	460f      	mov	r7, r1
    5522:	4632      	mov	r2, r6
    5524:	463b      	mov	r3, r7
    5526:	4620      	mov	r0, r4
    5528:	4629      	mov	r1, r5
    552a:	f000 fdef 	bl	610c <__aeabi_dmul>
    552e:	2200      	movs	r2, #0
    5530:	f04f 4380 	mov.w	r3, #1073741824	; 0x40000000
    5534:	4682      	mov	sl, r0
    5536:	468b      	mov	fp, r1
    5538:	4630      	mov	r0, r6
    553a:	4639      	mov	r1, r7
    553c:	f000 fc32 	bl	5da4 <__aeabi_dsub>
    5540:	4602      	mov	r2, r0
    5542:	460b      	mov	r3, r1
    5544:	4650      	mov	r0, sl
    5546:	4659      	mov	r1, fp
    5548:	f000 ff0a 	bl	6360 <__aeabi_ddiv>
    554c:	4642      	mov	r2, r8
    554e:	464b      	mov	r3, r9
    5550:	4606      	mov	r6, r0
    5552:	460f      	mov	r7, r1
    5554:	4620      	mov	r0, r4
    5556:	4629      	mov	r1, r5
    5558:	f000 fdd8 	bl	610c <__aeabi_dmul>
    555c:	4642      	mov	r2, r8
    555e:	464b      	mov	r3, r9
    5560:	f000 fc22 	bl	5da8 <__adddf3>
    5564:	4602      	mov	r2, r0
    5566:	460b      	mov	r3, r1
    5568:	4630      	mov	r0, r6
    556a:	4639      	mov	r1, r7
    556c:	f000 fc1a 	bl	5da4 <__aeabi_dsub>
    5570:	4622      	mov	r2, r4
    5572:	462b      	mov	r3, r5
    5574:	f000 fc16 	bl	5da4 <__aeabi_dsub>
    5578:	460b      	mov	r3, r1
    557a:	2100      	movs	r1, #0
    557c:	4602      	mov	r2, r0
    557e:	f6c3 71f0 	movt	r1, #16368	; 0x3ff0
    5582:	2000      	movs	r0, #0
    5584:	f000 fc0e 	bl	5da4 <__aeabi_dsub>
    5588:	9e07      	ldr	r6, [sp, #28]
    558a:	f8dd c000 	ldr.w	ip, [sp]
    558e:	1874      	adds	r4, r6, r1
    5590:	4602      	mov	r2, r0
    5592:	1525      	asrs	r5, r4, #20
    5594:	2d00      	cmp	r5, #0
    5596:	bfc8      	it	gt
    5598:	4623      	movgt	r3, r4
    559a:	f340 816d 	ble.w	5878 <__ieee754_pow+0xb00>
    559e:	e9dd 0102 	ldrd	r0, r1, [sp, #8]
    55a2:	f000 fdb3 	bl	610c <__aeabi_dmul>
    55a6:	4607      	mov	r7, r0
    55a8:	460e      	mov	r6, r1
    55aa:	e40b      	b.n	4dc4 <__ieee754_pow+0x4c>
    55ac:	9b04      	ldr	r3, [sp, #16]
    55ae:	2b00      	cmp	r3, #0
    55b0:	f6ff ac3c 	blt.w	4e2c <__ieee754_pow+0xb4>
    55b4:	4658      	mov	r0, fp
    55b6:	4641      	mov	r1, r8
    55b8:	b011      	add	sp, #68	; 0x44
    55ba:	e8bd 4ff0 	ldmia.w	sp!, {r4, r5, r6, r7, r8, r9, sl, fp, lr}
    55be:	f000 b983 	b.w	58c8 <__ieee754_sqrt>
    55c2:	2600      	movs	r6, #0
    55c4:	461f      	mov	r7, r3
    55c6:	f6c3 76f0 	movt	r6, #16368	; 0x3ff0
    55ca:	f7ff bbfb 	b.w	4dc4 <__ieee754_pow+0x4c>
    55ce:	4658      	mov	r0, fp
    55d0:	4641      	mov	r1, r8
    55d2:	465a      	mov	r2, fp
    55d4:	4643      	mov	r3, r8
    55d6:	f000 fd99 	bl	610c <__aeabi_dmul>
    55da:	4607      	mov	r7, r0
    55dc:	460e      	mov	r6, r1
    55de:	f7ff bbf1 	b.w	4dc4 <__ieee754_pow+0x4c>
    55e2:	f1bc 0f00 	cmp.w	ip, #0
    55e6:	f6bf aca6 	bge.w	4f36 <__ieee754_pow+0x1be>
    55ea:	e459      	b.n	4ea0 <__ieee754_pow+0x128>
    55ec:	f64c 33ff 	movw	r3, #52223	; 0xcbff
    55f0:	f021 4600 	bic.w	r6, r1, #2147483648	; 0x80000000
    55f4:	f2c4 0390 	movt	r3, #16528	; 0x4090
    55f8:	429e      	cmp	r6, r3
    55fa:	f77f af0d 	ble.w	5418 <__ieee754_pow+0x6a0>
    55fe:	f44f 5350 	mov.w	r3, #13312	; 0x3400
    5602:	f6c3 736f 	movt	r3, #16239	; 0x3f6f
    5606:	18cb      	adds	r3, r1, r3
    5608:	4303      	orrs	r3, r0
    560a:	f040 8117 	bne.w	583c <__ieee754_pow+0xac4>
    560e:	4622      	mov	r2, r4
    5610:	462b      	mov	r3, r5
    5612:	f000 fbc7 	bl	5da4 <__aeabi_dsub>
    5616:	4652      	mov	r2, sl
    5618:	465b      	mov	r3, fp
    561a:	f000 fffd 	bl	6618 <__aeabi_dcmpge>
    561e:	2800      	cmp	r0, #0
    5620:	f040 810c 	bne.w	583c <__ieee754_pow+0xac4>
    5624:	1533      	asrs	r3, r6, #20
    5626:	f44f 1180 	mov.w	r1, #1048576	; 0x100000
    562a:	f5a3 737e 	sub.w	r3, r3, #1016	; 0x3f8
    562e:	f64f 76ff 	movw	r6, #65535	; 0xffff
    5632:	3b06      	subs	r3, #6
    5634:	f2c0 060f 	movt	r6, #15
    5638:	4119      	asrs	r1, r3
    563a:	2200      	movs	r2, #0
    563c:	19c9      	adds	r1, r1, r7
    563e:	f3c1 500a 	ubfx	r0, r1, #20, #11
    5642:	f021 4c7f 	bic.w	ip, r1, #4278190080	; 0xff000000
    5646:	f5a0 707e 	sub.w	r0, r0, #1016	; 0x3f8
    564a:	f42c 0c70 	bic.w	ip, ip, #15728640	; 0xf00000
    564e:	3807      	subs	r0, #7
    5650:	f44c 1c80 	orr.w	ip, ip, #1048576	; 0x100000
    5654:	4106      	asrs	r6, r0
    5656:	f1c0 0014 	rsb	r0, r0, #20
    565a:	fa4c fc00 	asr.w	ip, ip, r0
    565e:	ea21 0306 	bic.w	r3, r1, r6
    5662:	2f00      	cmp	r7, #0
    5664:	4620      	mov	r0, r4
    5666:	4629      	mov	r1, r5
    5668:	bfb8      	it	lt
    566a:	f1cc 0c00 	rsblt	ip, ip, #0
    566e:	f8cd c000 	str.w	ip, [sp]
    5672:	f000 fb97 	bl	5da4 <__aeabi_dsub>
    5676:	4604      	mov	r4, r0
    5678:	460d      	mov	r5, r1
    567a:	4650      	mov	r0, sl
    567c:	4659      	mov	r1, fp
    567e:	4622      	mov	r2, r4
    5680:	462b      	mov	r3, r5
    5682:	f000 fb91 	bl	5da8 <__adddf3>
    5686:	f8dd c000 	ldr.w	ip, [sp]
    568a:	4689      	mov	r9, r1
    568c:	ea4f 510c 	mov.w	r1, ip, lsl #20
    5690:	9107      	str	r1, [sp, #28]
    5692:	e6ca      	b.n	542a <__ieee754_pow+0x6b2>
    5694:	2100      	movs	r1, #0
    5696:	2000      	movs	r0, #0
    5698:	f6c3 71f0 	movt	r1, #16368	; 0x3ff0
    569c:	e9cd 0102 	strd	r0, r1, [sp, #8]
    56a0:	e63c      	b.n	531c <__ieee754_pow+0x5a4>
    56a2:	f1bc 0f00 	cmp.w	ip, #0
    56a6:	f6bf ac46 	bge.w	4f36 <__ieee754_pow+0x1be>
    56aa:	f106 4600 	add.w	r6, r6, #2147483648	; 0x80000000
    56ae:	f7ff bb89 	b.w	4dc4 <__ieee754_pow+0x4c>
    56b2:	bf00      	nop
    56b4:	f3af 8000 	nop.w
    56b8:	00000000 	.word	0x00000000
    56bc:	3fe62e43 	.word	0x3fe62e43
    56c0:	fefa39ef 	.word	0xfefa39ef
    56c4:	3fe62e42 	.word	0x3fe62e42
    56c8:	0ca86c39 	.word	0x0ca86c39
    56cc:	be205c61 	.word	0xbe205c61
    56d0:	72bea4d0 	.word	0x72bea4d0
    56d4:	3e663769 	.word	0x3e663769
    56d8:	c5d26bf1 	.word	0xc5d26bf1
    56dc:	3ebbbd41 	.word	0x3ebbbd41
    56e0:	af25de2c 	.word	0xaf25de2c
    56e4:	3f11566a 	.word	0x3f11566a
    56e8:	16bebd93 	.word	0x16bebd93
    56ec:	3f66c16c 	.word	0x3f66c16c
    56f0:	5555553e 	.word	0x5555553e
    56f4:	3fc55555 	.word	0x3fc55555
    56f8:	f64f 73fe 	movw	r3, #65534	; 0xfffe
    56fc:	9902      	ldr	r1, [sp, #8]
    56fe:	f6c3 73ef 	movt	r3, #16367	; 0x3fef
    5702:	4299      	cmp	r1, r3
    5704:	f77f af6d 	ble.w	55e2 <__ieee754_pow+0x86a>
    5708:	2300      	movs	r3, #0
    570a:	9a02      	ldr	r2, [sp, #8]
    570c:	f6c3 73f0 	movt	r3, #16368	; 0x3ff0
    5710:	429a      	cmp	r2, r3
    5712:	f73f abc2 	bgt.w	4e9a <__ieee754_pow+0x122>
    5716:	2300      	movs	r3, #0
    5718:	2200      	movs	r2, #0
    571a:	f6c3 73f0 	movt	r3, #16368	; 0x3ff0
    571e:	4621      	mov	r1, r4
    5720:	f000 fb40 	bl	5da4 <__aeabi_dsub>
    5724:	a35c      	add	r3, pc, #368	; (adr r3, 5898 <__ieee754_pow+0xb20>)
    5726:	e9d3 2300 	ldrd	r2, r3, [r3]
    572a:	4604      	mov	r4, r0
    572c:	460d      	mov	r5, r1
    572e:	f000 fced 	bl	610c <__aeabi_dmul>
    5732:	a35b      	add	r3, pc, #364	; (adr r3, 58a0 <__ieee754_pow+0xb28>)
    5734:	e9d3 2300 	ldrd	r2, r3, [r3]
    5738:	4682      	mov	sl, r0
    573a:	468b      	mov	fp, r1
    573c:	4620      	mov	r0, r4
    573e:	4629      	mov	r1, r5
    5740:	f000 fce4 	bl	610c <__aeabi_dmul>
    5744:	4622      	mov	r2, r4
    5746:	462b      	mov	r3, r5
    5748:	e9cd 0102 	strd	r0, r1, [sp, #8]
    574c:	4620      	mov	r0, r4
    574e:	4629      	mov	r1, r5
    5750:	f000 fcdc 	bl	610c <__aeabi_dmul>
    5754:	2300      	movs	r3, #0
    5756:	2200      	movs	r2, #0
    5758:	f6c3 73d0 	movt	r3, #16336	; 0x3fd0
    575c:	e9cd 0104 	strd	r0, r1, [sp, #16]
    5760:	4620      	mov	r0, r4
    5762:	4629      	mov	r1, r5
    5764:	f000 fcd2 	bl	610c <__aeabi_dmul>
    5768:	4602      	mov	r2, r0
    576a:	460b      	mov	r3, r1
    576c:	a14e      	add	r1, pc, #312	; (adr r1, 58a8 <__ieee754_pow+0xb30>)
    576e:	e9d1 0100 	ldrd	r0, r1, [r1]
    5772:	f000 fb17 	bl	5da4 <__aeabi_dsub>
    5776:	4622      	mov	r2, r4
    5778:	462b      	mov	r3, r5
    577a:	2400      	movs	r4, #0
    577c:	f000 fcc6 	bl	610c <__aeabi_dmul>
    5780:	460b      	mov	r3, r1
    5782:	2100      	movs	r1, #0
    5784:	4602      	mov	r2, r0
    5786:	f6c3 71e0 	movt	r1, #16352	; 0x3fe0
    578a:	2000      	movs	r0, #0
    578c:	f000 fb0a 	bl	5da4 <__aeabi_dsub>
    5790:	4602      	mov	r2, r0
    5792:	460b      	mov	r3, r1
    5794:	e9dd 0104 	ldrd	r0, r1, [sp, #16]
    5798:	f000 fcb8 	bl	610c <__aeabi_dmul>
    579c:	a344      	add	r3, pc, #272	; (adr r3, 58b0 <__ieee754_pow+0xb38>)
    579e:	e9d3 2300 	ldrd	r2, r3, [r3]
    57a2:	f000 fcb3 	bl	610c <__aeabi_dmul>
    57a6:	4602      	mov	r2, r0
    57a8:	460b      	mov	r3, r1
    57aa:	e9dd 0102 	ldrd	r0, r1, [sp, #8]
    57ae:	f000 faf9 	bl	5da4 <__aeabi_dsub>
    57b2:	e9cd 0102 	strd	r0, r1, [sp, #8]
    57b6:	4650      	mov	r0, sl
    57b8:	e9dd 2302 	ldrd	r2, r3, [sp, #8]
    57bc:	4659      	mov	r1, fp
    57be:	f000 faf3 	bl	5da8 <__adddf3>
    57c2:	4652      	mov	r2, sl
    57c4:	465b      	mov	r3, fp
    57c6:	4620      	mov	r0, r4
    57c8:	460d      	mov	r5, r1
    57ca:	f000 faeb 	bl	5da4 <__aeabi_dsub>
    57ce:	4602      	mov	r2, r0
    57d0:	460b      	mov	r3, r1
    57d2:	e9dd 0102 	ldrd	r0, r1, [sp, #8]
    57d6:	f000 fae5 	bl	5da4 <__aeabi_dsub>
    57da:	4682      	mov	sl, r0
    57dc:	468b      	mov	fp, r1
    57de:	e591      	b.n	5304 <__ieee754_pow+0x58c>
    57e0:	2100      	movs	r1, #0
    57e2:	4602      	mov	r2, r0
    57e4:	f6c3 71f0 	movt	r1, #16368	; 0x3ff0
    57e8:	2000      	movs	r0, #0
    57ea:	4623      	mov	r3, r4
    57ec:	f000 fdb8 	bl	6360 <__aeabi_ddiv>
    57f0:	4607      	mov	r7, r0
    57f2:	460e      	mov	r6, r1
    57f4:	f7ff bba9 	b.w	4f4a <__ieee754_pow+0x1d2>
    57f8:	a32f      	add	r3, pc, #188	; (adr r3, 58b8 <__ieee754_pow+0xb40>)
    57fa:	e9d3 2300 	ldrd	r2, r3, [r3]
    57fe:	e9dd 0102 	ldrd	r0, r1, [sp, #8]
    5802:	f000 fc83 	bl	610c <__aeabi_dmul>
    5806:	a32c      	add	r3, pc, #176	; (adr r3, 58b8 <__ieee754_pow+0xb40>)
    5808:	e9d3 2300 	ldrd	r2, r3, [r3]
    580c:	f000 fc7e 	bl	610c <__aeabi_dmul>
    5810:	4607      	mov	r7, r0
    5812:	460e      	mov	r6, r1
    5814:	f7ff bad6 	b.w	4dc4 <__ieee754_pow+0x4c>
    5818:	bb07      	cbnz	r7, 585c <__ieee754_pow+0xae4>
    581a:	f1c3 0314 	rsb	r3, r3, #20
    581e:	fa55 f103 	asrs.w	r1, r5, r3
    5822:	fa11 f303 	lsls.w	r3, r1, r3
    5826:	42ab      	cmp	r3, r5
    5828:	d02c      	beq.n	5884 <__ieee754_pow+0xb0c>
    582a:	2100      	movs	r1, #0
    582c:	9107      	str	r1, [sp, #28]
    582e:	f7ff baea 	b.w	4e06 <__ieee754_pow+0x8e>
    5832:	9a07      	ldr	r2, [sp, #28]
    5834:	2a01      	cmp	r2, #1
    5836:	f47f aac5 	bne.w	4dc4 <__ieee754_pow+0x4c>
    583a:	e736      	b.n	56aa <__ieee754_pow+0x932>
    583c:	a320      	add	r3, pc, #128	; (adr r3, 58c0 <__ieee754_pow+0xb48>)
    583e:	e9d3 2300 	ldrd	r2, r3, [r3]
    5842:	e9dd 0102 	ldrd	r0, r1, [sp, #8]
    5846:	f000 fc61 	bl	610c <__aeabi_dmul>
    584a:	a31d      	add	r3, pc, #116	; (adr r3, 58c0 <__ieee754_pow+0xb48>)
    584c:	e9d3 2300 	ldrd	r2, r3, [r3]
    5850:	f000 fc5c 	bl	610c <__aeabi_dmul>
    5854:	4607      	mov	r7, r0
    5856:	460e      	mov	r6, r1
    5858:	f7ff bab4 	b.w	4dc4 <__ieee754_pow+0x4c>
    585c:	2000      	movs	r0, #0
    585e:	9007      	str	r0, [sp, #28]
    5860:	f7ff bae4 	b.w	4e2c <__ieee754_pow+0xb4>
    5864:	f001 0301 	and.w	r3, r1, #1
    5868:	f1c3 0302 	rsb	r3, r3, #2
    586c:	9307      	str	r3, [sp, #28]
    586e:	2c00      	cmp	r4, #0
    5870:	f43f aac9 	beq.w	4e06 <__ieee754_pow+0x8e>
    5874:	f7ff bada 	b.w	4e2c <__ieee754_pow+0xb4>
    5878:	4662      	mov	r2, ip
    587a:	f000 fa01 	bl	5c80 <scalbn>
    587e:	4602      	mov	r2, r0
    5880:	460b      	mov	r3, r1
    5882:	e68c      	b.n	559e <__ieee754_pow+0x826>
    5884:	f001 0301 	and.w	r3, r1, #1
    5888:	f1c3 0302 	rsb	r3, r3, #2
    588c:	9307      	str	r3, [sp, #28]
    588e:	f7ff baba 	b.w	4e06 <__ieee754_pow+0x8e>
    5892:	bf00      	nop
    5894:	f3af 8000 	nop.w
    5898:	60000000 	.word	0x60000000
    589c:	3ff71547 	.word	0x3ff71547
    58a0:	f85ddf44 	.word	0xf85ddf44
    58a4:	3e54ae0b 	.word	0x3e54ae0b
    58a8:	55555555 	.word	0x55555555
    58ac:	3fd55555 	.word	0x3fd55555
    58b0:	652b82fe 	.word	0x652b82fe
    58b4:	3ff71547 	.word	0x3ff71547
    58b8:	8800759c 	.word	0x8800759c
    58bc:	7e37e43c 	.word	0x7e37e43c
    58c0:	c2f8f359 	.word	0xc2f8f359
    58c4:	01a56e1f 	.word	0x01a56e1f

000058c8 <__ieee754_sqrt>:
    58c8:	f04f 0c00 	mov.w	ip, #0
    58cc:	4602      	mov	r2, r0
    58ce:	e92d 43f8 	stmdb	sp!, {r3, r4, r5, r6, r7, r8, r9, lr}
    58d2:	46e0      	mov	r8, ip
    58d4:	f6c7 7cf0 	movt	ip, #32752	; 0x7ff0
    58d8:	f6c7 78f0 	movt	r8, #32752	; 0x7ff0
    58dc:	ea01 0c0c 	and.w	ip, r1, ip
    58e0:	4604      	mov	r4, r0
    58e2:	45c4      	cmp	ip, r8
    58e4:	460d      	mov	r5, r1
    58e6:	460b      	mov	r3, r1
    58e8:	460e      	mov	r6, r1
    58ea:	4607      	mov	r7, r0
    58ec:	f000 80b0 	beq.w	5a50 <__ieee754_sqrt+0x188>
    58f0:	2900      	cmp	r1, #0
    58f2:	f340 80a0 	ble.w	5a36 <__ieee754_sqrt+0x16e>
    58f6:	150a      	asrs	r2, r1, #20
    58f8:	d07e      	beq.n	59f8 <__ieee754_sqrt+0x130>
    58fa:	f026 437f 	bic.w	r3, r6, #4278190080	; 0xff000000
    58fe:	f012 0f01 	tst.w	r2, #1
    5902:	f5a2 7c7e 	sub.w	ip, r2, #1016	; 0x3f8
    5906:	f423 0370 	bic.w	r3, r3, #15728640	; 0xf00000
    590a:	f1ac 0c07 	sub.w	ip, ip, #7
    590e:	f443 1380 	orr.w	r3, r3, #1048576	; 0x100000
    5912:	d062      	beq.n	59da <__ieee754_sqrt+0x112>
    5914:	0ffa      	lsrs	r2, r7, #31
    5916:	2600      	movs	r6, #0
    5918:	eb02 0343 	add.w	r3, r2, r3, lsl #1
    591c:	ea4f 0c6c 	mov.w	ip, ip, asr #1
    5920:	007f      	lsls	r7, r7, #1
    5922:	2016      	movs	r0, #22
    5924:	4631      	mov	r1, r6
    5926:	f44f 1200 	mov.w	r2, #2097152	; 0x200000
    592a:	188c      	adds	r4, r1, r2
    592c:	0ffd      	lsrs	r5, r7, #31
    592e:	429c      	cmp	r4, r3
    5930:	ea4f 0747 	mov.w	r7, r7, lsl #1
    5934:	bfde      	ittt	le
    5936:	ebc4 0303 	rsble	r3, r4, r3
    593a:	18a1      	addle	r1, r4, r2
    593c:	18b6      	addle	r6, r6, r2
    593e:	0852      	lsrs	r2, r2, #1
    5940:	3801      	subs	r0, #1
    5942:	eb05 0343 	add.w	r3, r5, r3, lsl #1
    5946:	d1f0      	bne.n	592a <__ieee754_sqrt+0x62>
    5948:	2520      	movs	r5, #32
    594a:	4680      	mov	r8, r0
    594c:	f04f 4200 	mov.w	r2, #2147483648	; 0x80000000
    5950:	4299      	cmp	r1, r3
    5952:	eb02 0408 	add.w	r4, r2, r8
    5956:	db0e      	blt.n	5976 <__ieee754_sqrt+0xae>
    5958:	428b      	cmp	r3, r1
    595a:	bf14      	ite	ne
    595c:	f04f 0900 	movne.w	r9, #0
    5960:	f04f 0901 	moveq.w	r9, #1
    5964:	42bc      	cmp	r4, r7
    5966:	bf8c      	ite	hi
    5968:	f04f 0900 	movhi.w	r9, #0
    596c:	f009 0901 	andls.w	r9, r9, #1
    5970:	f1b9 0f00 	cmp.w	r9, #0
    5974:	d00e      	beq.n	5994 <__ieee754_sqrt+0xcc>
    5976:	f004 4900 	and.w	r9, r4, #2147483648	; 0x80000000
    597a:	eb04 0802 	add.w	r8, r4, r2
    597e:	f1b9 4f00 	cmp.w	r9, #2147483648	; 0x80000000
    5982:	d023      	beq.n	59cc <__ieee754_sqrt+0x104>
    5984:	4689      	mov	r9, r1
    5986:	1a5b      	subs	r3, r3, r1
    5988:	42bc      	cmp	r4, r7
    598a:	bf88      	it	hi
    598c:	3b01      	subhi	r3, #1
    598e:	1b3f      	subs	r7, r7, r4
    5990:	1880      	adds	r0, r0, r2
    5992:	4649      	mov	r1, r9
    5994:	0ffc      	lsrs	r4, r7, #31
    5996:	0852      	lsrs	r2, r2, #1
    5998:	007f      	lsls	r7, r7, #1
    599a:	3d01      	subs	r5, #1
    599c:	eb04 0343 	add.w	r3, r4, r3, lsl #1
    59a0:	d1d6      	bne.n	5950 <__ieee754_sqrt+0x88>
    59a2:	433b      	orrs	r3, r7
    59a4:	d11e      	bne.n	59e4 <__ieee754_sqrt+0x11c>
    59a6:	0840      	lsrs	r0, r0, #1
    59a8:	ea4f 520c 	mov.w	r2, ip, lsl #20
    59ac:	1073      	asrs	r3, r6, #1
    59ae:	f102 527e 	add.w	r2, r2, #1065353216	; 0x3f800000
    59b2:	f016 0f01 	tst.w	r6, #1
    59b6:	bf18      	it	ne
    59b8:	f040 4000 	orrne.w	r0, r0, #2147483648	; 0x80000000
    59bc:	f502 02c0 	add.w	r2, r2, #6291456	; 0x600000
    59c0:	18d5      	adds	r5, r2, r3
    59c2:	4604      	mov	r4, r0
    59c4:	4620      	mov	r0, r4
    59c6:	4629      	mov	r1, r5
    59c8:	e8bd 83f8 	ldmia.w	sp!, {r3, r4, r5, r6, r7, r8, r9, pc}
    59cc:	f1b8 0f00 	cmp.w	r8, #0
    59d0:	bfa8      	it	ge
    59d2:	f101 0901 	addge.w	r9, r1, #1
    59d6:	dad6      	bge.n	5986 <__ieee754_sqrt+0xbe>
    59d8:	e7d4      	b.n	5984 <__ieee754_sqrt+0xbc>
    59da:	0ffa      	lsrs	r2, r7, #31
    59dc:	007f      	lsls	r7, r7, #1
    59de:	eb02 0343 	add.w	r3, r2, r3, lsl #1
    59e2:	e797      	b.n	5914 <__ieee754_sqrt+0x4c>
    59e4:	f1b0 3fff 	cmp.w	r0, #4294967295
    59e8:	bf1c      	itt	ne
    59ea:	f000 0301 	andne.w	r3, r0, #1
    59ee:	1818      	addne	r0, r3, r0
    59f0:	d1d9      	bne.n	59a6 <__ieee754_sqrt+0xde>
    59f2:	3601      	adds	r6, #1
    59f4:	4628      	mov	r0, r5
    59f6:	e7d7      	b.n	59a8 <__ieee754_sqrt+0xe0>
    59f8:	2201      	movs	r2, #1
    59fa:	f416 1380 	ands.w	r3, r6, #1048576	; 0x100000
    59fe:	d135      	bne.n	5a6c <__ieee754_sqrt+0x1a4>
    5a00:	0076      	lsls	r6, r6, #1
    5a02:	3301      	adds	r3, #1
    5a04:	f416 1f80 	tst.w	r6, #1048576	; 0x100000
    5a08:	d0fa      	beq.n	5a00 <__ieee754_sqrt+0x138>
    5a0a:	f1c3 0120 	rsb	r1, r3, #32
    5a0e:	fa37 f101 	lsrs.w	r1, r7, r1
    5a12:	1ad2      	subs	r2, r2, r3
    5a14:	430e      	orrs	r6, r1
    5a16:	409f      	lsls	r7, r3
    5a18:	f026 437f 	bic.w	r3, r6, #4278190080	; 0xff000000
    5a1c:	f012 0f01 	tst.w	r2, #1
    5a20:	f5a2 7c7e 	sub.w	ip, r2, #1016	; 0x3f8
    5a24:	f423 0370 	bic.w	r3, r3, #15728640	; 0xf00000
    5a28:	f1ac 0c07 	sub.w	ip, ip, #7
    5a2c:	f443 1380 	orr.w	r3, r3, #1048576	; 0x100000
    5a30:	f47f af70 	bne.w	5914 <__ieee754_sqrt+0x4c>
    5a34:	e7d1      	b.n	59da <__ieee754_sqrt+0x112>
    5a36:	f021 4c00 	bic.w	ip, r1, #2147483648	; 0x80000000
    5a3a:	ea5c 0c00 	orrs.w	ip, ip, r0
    5a3e:	d0c1      	beq.n	59c4 <__ieee754_sqrt+0xfc>
    5a40:	b9b9      	cbnz	r1, 5a72 <__ieee754_sqrt+0x1aa>
    5a42:	0afe      	lsrs	r6, r7, #11
    5a44:	3b15      	subs	r3, #21
    5a46:	057f      	lsls	r7, r7, #21
    5a48:	2e00      	cmp	r6, #0
    5a4a:	d0fa      	beq.n	5a42 <__ieee754_sqrt+0x17a>
    5a4c:	1c5a      	adds	r2, r3, #1
    5a4e:	e7d4      	b.n	59fa <__ieee754_sqrt+0x132>
    5a50:	f000 fb5c 	bl	610c <__aeabi_dmul>
    5a54:	4602      	mov	r2, r0
    5a56:	460b      	mov	r3, r1
    5a58:	4620      	mov	r0, r4
    5a5a:	4629      	mov	r1, r5
    5a5c:	f000 f9a4 	bl	5da8 <__adddf3>
    5a60:	4604      	mov	r4, r0
    5a62:	460d      	mov	r5, r1
    5a64:	4620      	mov	r0, r4
    5a66:	4629      	mov	r1, r5
    5a68:	e8bd 83f8 	ldmia.w	sp!, {r3, r4, r5, r6, r7, r8, r9, pc}
    5a6c:	2120      	movs	r1, #32
    5a6e:	2300      	movs	r3, #0
    5a70:	e7cd      	b.n	5a0e <__ieee754_sqrt+0x146>
    5a72:	4602      	mov	r2, r0
    5a74:	460b      	mov	r3, r1
    5a76:	f000 f995 	bl	5da4 <__aeabi_dsub>
    5a7a:	4602      	mov	r2, r0
    5a7c:	460b      	mov	r3, r1
    5a7e:	f000 fc6f 	bl	6360 <__aeabi_ddiv>
    5a82:	4604      	mov	r4, r0
    5a84:	460d      	mov	r5, r1
    5a86:	e79d      	b.n	59c4 <__ieee754_sqrt+0xfc>

00005a88 <fabs>:
    5a88:	f021 4100 	bic.w	r1, r1, #2147483648	; 0x80000000
    5a8c:	4770      	bx	lr
    5a8e:	bf00      	nop

00005a90 <finite>:
    5a90:	f021 4000 	bic.w	r0, r1, #2147483648	; 0x80000000
    5a94:	f100 4000 	add.w	r0, r0, #2147483648	; 0x80000000
    5a98:	f500 1080 	add.w	r0, r0, #1048576	; 0x100000
    5a9c:	0fc0      	lsrs	r0, r0, #31
    5a9e:	4770      	bx	lr

00005aa0 <__fpclassifyd>:
    5aa0:	ea50 0301 	orrs.w	r3, r0, r1
    5aa4:	b410      	push	{r4}
    5aa6:	d03c      	beq.n	5b22 <__fpclassifyd+0x82>
    5aa8:	f1d0 0201 	rsbs	r2, r0, #1
    5aac:	bf38      	it	cc
    5aae:	2200      	movcc	r2, #0
    5ab0:	f1b1 4f00 	cmp.w	r1, #2147483648	; 0x80000000
    5ab4:	bf14      	ite	ne
    5ab6:	2300      	movne	r3, #0
    5ab8:	f002 0301 	andeq.w	r3, r2, #1
    5abc:	2b00      	cmp	r3, #0
    5abe:	d130      	bne.n	5b22 <__fpclassifyd+0x82>
    5ac0:	f64f 73ff 	movw	r3, #65535	; 0xffff
    5ac4:	f5a1 1080 	sub.w	r0, r1, #1048576	; 0x100000
    5ac8:	f6c7 73df 	movt	r3, #32735	; 0x7fdf
    5acc:	f101 44fe 	add.w	r4, r1, #2130706432	; 0x7f000000
    5ad0:	4298      	cmp	r0, r3
    5ad2:	f504 0470 	add.w	r4, r4, #15728640	; 0xf00000
    5ad6:	bf8c      	ite	hi
    5ad8:	2000      	movhi	r0, #0
    5ada:	2001      	movls	r0, #1
    5adc:	429c      	cmp	r4, r3
    5ade:	bf8c      	ite	hi
    5ae0:	4603      	movhi	r3, r0
    5ae2:	f040 0301 	orrls.w	r3, r0, #1
    5ae6:	2b00      	cmp	r3, #0
    5ae8:	d120      	bne.n	5b2c <__fpclassifyd+0x8c>
    5aea:	f5b1 1f80 	cmp.w	r1, #1048576	; 0x100000
    5aee:	f101 4000 	add.w	r0, r1, #2147483648	; 0x80000000
    5af2:	bf2c      	ite	cs
    5af4:	2300      	movcs	r3, #0
    5af6:	2301      	movcc	r3, #1
    5af8:	f5b0 1f80 	cmp.w	r0, #1048576	; 0x100000
    5afc:	bf38      	it	cc
    5afe:	f043 0301 	orrcc.w	r3, r3, #1
    5b02:	b98b      	cbnz	r3, 5b28 <__fpclassifyd+0x88>
    5b04:	f511 1f80 	cmn.w	r1, #1048576	; 0x100000
    5b08:	f6c7 73f0 	movt	r3, #32752	; 0x7ff0
    5b0c:	bf14      	ite	ne
    5b0e:	2000      	movne	r0, #0
    5b10:	2001      	moveq	r0, #1
    5b12:	4299      	cmp	r1, r3
    5b14:	bf14      	ite	ne
    5b16:	4601      	movne	r1, r0
    5b18:	f040 0101 	orreq.w	r1, r0, #1
    5b1c:	ea02 0001 	and.w	r0, r2, r1
    5b20:	e000      	b.n	5b24 <__fpclassifyd+0x84>
    5b22:	2002      	movs	r0, #2
    5b24:	bc10      	pop	{r4}
    5b26:	4770      	bx	lr
    5b28:	2003      	movs	r0, #3
    5b2a:	e7fb      	b.n	5b24 <__fpclassifyd+0x84>
    5b2c:	2004      	movs	r0, #4
    5b2e:	e7f9      	b.n	5b24 <__fpclassifyd+0x84>

00005b30 <matherr>:
    5b30:	2000      	movs	r0, #0
    5b32:	4770      	bx	lr

00005b34 <nan>:
    5b34:	2100      	movs	r1, #0
    5b36:	2000      	movs	r0, #0
    5b38:	f6c7 71f8 	movt	r1, #32760	; 0x7ff8
    5b3c:	4770      	bx	lr
    5b3e:	bf00      	nop

00005b40 <rint>:
    5b40:	e92d 41f0 	stmdb	sp!, {r4, r5, r6, r7, r8, lr}
    5b44:	f3c1 580a 	ubfx	r8, r1, #20, #11
    5b48:	f5a8 787e 	sub.w	r8, r8, #1016	; 0x3f8
    5b4c:	0fcd      	lsrs	r5, r1, #31
    5b4e:	f1a8 0c07 	sub.w	ip, r8, #7
    5b52:	b082      	sub	sp, #8
    5b54:	f1bc 0f13 	cmp.w	ip, #19
    5b58:	4602      	mov	r2, r0
    5b5a:	460b      	mov	r3, r1
    5b5c:	4604      	mov	r4, r0
    5b5e:	460f      	mov	r7, r1
    5b60:	460e      	mov	r6, r1
    5b62:	dc3d      	bgt.n	5be0 <rint+0xa0>
    5b64:	f1bc 0f00 	cmp.w	ip, #0
    5b68:	db59      	blt.n	5c1e <rint+0xde>
    5b6a:	f64f 71ff 	movw	r1, #65535	; 0xffff
    5b6e:	f2c0 010f 	movt	r1, #15
    5b72:	fa41 f10c 	asr.w	r1, r1, ip
    5b76:	ea01 0003 	and.w	r0, r1, r3
    5b7a:	4310      	orrs	r0, r2
    5b7c:	d02b      	beq.n	5bd6 <rint+0x96>
    5b7e:	0849      	lsrs	r1, r1, #1
    5b80:	ea01 0303 	and.w	r3, r1, r3
    5b84:	ea53 0402 	orrs.w	r4, r3, r2
    5b88:	d00d      	beq.n	5ba6 <rint+0x66>
    5b8a:	f44f 2380 	mov.w	r3, #262144	; 0x40000
    5b8e:	ea27 0601 	bic.w	r6, r7, r1
    5b92:	f1bc 0f13 	cmp.w	ip, #19
    5b96:	bf0c      	ite	eq
    5b98:	f04f 4400 	moveq.w	r4, #2147483648	; 0x80000000
    5b9c:	2400      	movne	r4, #0
    5b9e:	fa43 fc0c 	asr.w	ip, r3, ip
    5ba2:	ea46 060c 	orr.w	r6, r6, ip
    5ba6:	f64a 3168 	movw	r1, #43880	; 0xab68
    5baa:	4622      	mov	r2, r4
    5bac:	f2c0 0100 	movt	r1, #0
    5bb0:	4633      	mov	r3, r6
    5bb2:	eb01 05c5 	add.w	r5, r1, r5, lsl #3
    5bb6:	e9d5 4500 	ldrd	r4, r5, [r5]
    5bba:	4620      	mov	r0, r4
    5bbc:	4629      	mov	r1, r5
    5bbe:	f000 f8f3 	bl	5da8 <__adddf3>
    5bc2:	4622      	mov	r2, r4
    5bc4:	462b      	mov	r3, r5
    5bc6:	e9cd 0100 	strd	r0, r1, [sp]
    5bca:	e9dd 0100 	ldrd	r0, r1, [sp]
    5bce:	f000 f8e9 	bl	5da4 <__aeabi_dsub>
    5bd2:	4602      	mov	r2, r0
    5bd4:	460b      	mov	r3, r1
    5bd6:	4610      	mov	r0, r2
    5bd8:	4619      	mov	r1, r3
    5bda:	b002      	add	sp, #8
    5bdc:	e8bd 81f0 	ldmia.w	sp!, {r4, r5, r6, r7, r8, pc}
    5be0:	f1bc 0f33 	cmp.w	ip, #51	; 0x33
    5be4:	dd07      	ble.n	5bf6 <rint+0xb6>
    5be6:	f5bc 6f80 	cmp.w	ip, #1024	; 0x400
    5bea:	d1f4      	bne.n	5bd6 <rint+0x96>
    5bec:	f000 f8dc 	bl	5da8 <__adddf3>
    5bf0:	4602      	mov	r2, r0
    5bf2:	460b      	mov	r3, r1
    5bf4:	e7ef      	b.n	5bd6 <rint+0x96>
    5bf6:	f04f 31ff 	mov.w	r1, #4294967295
    5bfa:	f1a8 081b 	sub.w	r8, r8, #27
    5bfe:	fa21 f108 	lsr.w	r1, r1, r8
    5c02:	4201      	tst	r1, r0
    5c04:	d0e7      	beq.n	5bd6 <rint+0x96>
    5c06:	0849      	lsrs	r1, r1, #1
    5c08:	4201      	tst	r1, r0
    5c0a:	bf1f      	itttt	ne
    5c0c:	f04f 4380 	movne.w	r3, #1073741824	; 0x40000000
    5c10:	ea20 0401 	bicne.w	r4, r0, r1
    5c14:	fa43 f808 	asrne.w	r8, r3, r8
    5c18:	ea44 0408 	orrne.w	r4, r4, r8
    5c1c:	e7c3      	b.n	5ba6 <rint+0x66>
    5c1e:	f021 4100 	bic.w	r1, r1, #2147483648	; 0x80000000
    5c22:	4301      	orrs	r1, r0
    5c24:	d0d7      	beq.n	5bd6 <rint+0x96>
    5c26:	f023 407f 	bic.w	r0, r3, #4278190080	; 0xff000000
    5c2a:	f64a 3168 	movw	r1, #43880	; 0xab68
    5c2e:	f420 0070 	bic.w	r0, r0, #15728640	; 0xf00000
    5c32:	f2c0 0100 	movt	r1, #0
    5c36:	ea40 0402 	orr.w	r4, r0, r2
    5c3a:	eb01 01c5 	add.w	r1, r1, r5, lsl #3
    5c3e:	4260      	negs	r0, r4
    5c40:	ea4f 4e53 	mov.w	lr, r3, lsr #17
    5c44:	ea40 0404 	orr.w	r4, r0, r4
    5c48:	e9d1 6700 	ldrd	r6, r7, [r1]
    5c4c:	0b24      	lsrs	r4, r4, #12
    5c4e:	4630      	mov	r0, r6
    5c50:	f404 2400 	and.w	r4, r4, #524288	; 0x80000
    5c54:	4639      	mov	r1, r7
    5c56:	ea44 434e 	orr.w	r3, r4, lr, lsl #17
    5c5a:	f000 f8a5 	bl	5da8 <__adddf3>
    5c5e:	4632      	mov	r2, r6
    5c60:	463b      	mov	r3, r7
    5c62:	e9cd 0100 	strd	r0, r1, [sp]
    5c66:	e9dd 0100 	ldrd	r0, r1, [sp]
    5c6a:	f000 f89b 	bl	5da4 <__aeabi_dsub>
    5c6e:	f021 4100 	bic.w	r1, r1, #2147483648	; 0x80000000
    5c72:	4602      	mov	r2, r0
    5c74:	ea41 73c5 	orr.w	r3, r1, r5, lsl #31
    5c78:	e7ad      	b.n	5bd6 <rint+0x96>
    5c7a:	bf00      	nop
    5c7c:	0000      	movs	r0, r0
	...

00005c80 <scalbn>:
    5c80:	b5f8      	push	{r3, r4, r5, r6, r7, lr}
    5c82:	f3c1 530a 	ubfx	r3, r1, #20, #11
    5c86:	4604      	mov	r4, r0
    5c88:	460d      	mov	r5, r1
    5c8a:	4616      	mov	r6, r2
    5c8c:	460f      	mov	r7, r1
    5c8e:	2b00      	cmp	r3, #0
    5c90:	d12b      	bne.n	5cea <scalbn+0x6a>
    5c92:	f021 4700 	bic.w	r7, r1, #2147483648	; 0x80000000
    5c96:	4307      	orrs	r7, r0
    5c98:	d024      	beq.n	5ce4 <scalbn+0x64>
    5c9a:	2300      	movs	r3, #0
    5c9c:	2200      	movs	r2, #0
    5c9e:	f2c4 3350 	movt	r3, #17232	; 0x4350
    5ca2:	f643 47b0 	movw	r7, #15536	; 0x3cb0
    5ca6:	f000 fa31 	bl	610c <__aeabi_dmul>
    5caa:	f6cf 77ff 	movt	r7, #65535	; 0xffff
    5cae:	42be      	cmp	r6, r7
    5cb0:	4604      	mov	r4, r0
    5cb2:	460d      	mov	r5, r1
    5cb4:	db39      	blt.n	5d2a <scalbn+0xaa>
    5cb6:	f3c1 530a 	ubfx	r3, r1, #20, #11
    5cba:	f240 72fe 	movw	r2, #2046	; 0x7fe
    5cbe:	3b36      	subs	r3, #54	; 0x36
    5cc0:	460f      	mov	r7, r1
    5cc2:	199b      	adds	r3, r3, r6
    5cc4:	4293      	cmp	r3, r2
    5cc6:	dd19      	ble.n	5cfc <scalbn+0x7c>
    5cc8:	4622      	mov	r2, r4
    5cca:	462b      	mov	r3, r5
    5ccc:	a12a      	add	r1, pc, #168	; (adr r1, 5d78 <scalbn+0xf8>)
    5cce:	e9d1 0100 	ldrd	r0, r1, [r1]
    5cd2:	f000 f859 	bl	5d88 <copysign>
    5cd6:	a328      	add	r3, pc, #160	; (adr r3, 5d78 <scalbn+0xf8>)
    5cd8:	e9d3 2300 	ldrd	r2, r3, [r3]
    5cdc:	f000 fa16 	bl	610c <__aeabi_dmul>
    5ce0:	4604      	mov	r4, r0
    5ce2:	460d      	mov	r5, r1
    5ce4:	4620      	mov	r0, r4
    5ce6:	4629      	mov	r1, r5
    5ce8:	bdf8      	pop	{r3, r4, r5, r6, r7, pc}
    5cea:	f240 72ff 	movw	r2, #2047	; 0x7ff
    5cee:	4293      	cmp	r3, r2
    5cf0:	d025      	beq.n	5d3e <scalbn+0xbe>
    5cf2:	199b      	adds	r3, r3, r6
    5cf4:	f240 72fe 	movw	r2, #2046	; 0x7fe
    5cf8:	4293      	cmp	r3, r2
    5cfa:	dce5      	bgt.n	5cc8 <scalbn+0x48>
    5cfc:	2b00      	cmp	r3, #0
    5cfe:	bfc2      	ittt	gt
    5d00:	f027 47fe 	bicgt.w	r7, r7, #2130706432	; 0x7f000000
    5d04:	f427 0770 	bicgt.w	r7, r7, #15728640	; 0xf00000
    5d08:	ea47 5503 	orrgt.w	r5, r7, r3, lsl #20
    5d0c:	dcea      	bgt.n	5ce4 <scalbn+0x64>
    5d0e:	f113 0f35 	cmn.w	r3, #53	; 0x35
    5d12:	da1d      	bge.n	5d50 <scalbn+0xd0>
    5d14:	f24c 3350 	movw	r3, #50000	; 0xc350
    5d18:	429e      	cmp	r6, r3
    5d1a:	dcd5      	bgt.n	5cc8 <scalbn+0x48>
    5d1c:	4622      	mov	r2, r4
    5d1e:	462b      	mov	r3, r5
    5d20:	a117      	add	r1, pc, #92	; (adr r1, 5d80 <scalbn+0x100>)
    5d22:	e9d1 0100 	ldrd	r0, r1, [r1]
    5d26:	f000 f82f 	bl	5d88 <copysign>
    5d2a:	a315      	add	r3, pc, #84	; (adr r3, 5d80 <scalbn+0x100>)
    5d2c:	e9d3 2300 	ldrd	r2, r3, [r3]
    5d30:	f000 f9ec 	bl	610c <__aeabi_dmul>
    5d34:	4604      	mov	r4, r0
    5d36:	460d      	mov	r5, r1
    5d38:	4620      	mov	r0, r4
    5d3a:	4629      	mov	r1, r5
    5d3c:	bdf8      	pop	{r3, r4, r5, r6, r7, pc}
    5d3e:	4602      	mov	r2, r0
    5d40:	460b      	mov	r3, r1
    5d42:	f000 f831 	bl	5da8 <__adddf3>
    5d46:	4604      	mov	r4, r0
    5d48:	460d      	mov	r5, r1
    5d4a:	4620      	mov	r0, r4
    5d4c:	4629      	mov	r1, r5
    5d4e:	bdf8      	pop	{r3, r4, r5, r6, r7, pc}
    5d50:	3336      	adds	r3, #54	; 0x36
    5d52:	f027 47fe 	bic.w	r7, r7, #2130706432	; 0x7f000000
    5d56:	f427 0770 	bic.w	r7, r7, #15728640	; 0xf00000
    5d5a:	4620      	mov	r0, r4
    5d5c:	ea47 5503 	orr.w	r5, r7, r3, lsl #20
    5d60:	2300      	movs	r3, #0
    5d62:	4629      	mov	r1, r5
    5d64:	2200      	movs	r2, #0
    5d66:	f6c3 4390 	movt	r3, #15504	; 0x3c90
    5d6a:	f000 f9cf 	bl	610c <__aeabi_dmul>
    5d6e:	4604      	mov	r4, r0
    5d70:	460d      	mov	r5, r1
    5d72:	e7b7      	b.n	5ce4 <scalbn+0x64>
    5d74:	f3af 8000 	nop.w
    5d78:	8800759c 	.word	0x8800759c
    5d7c:	7e37e43c 	.word	0x7e37e43c
    5d80:	c2f8f359 	.word	0xc2f8f359
    5d84:	01a56e1f 	.word	0x01a56e1f

00005d88 <copysign>:
    5d88:	b410      	push	{r4}
    5d8a:	f021 4200 	bic.w	r2, r1, #2147483648	; 0x80000000
    5d8e:	f003 4400 	and.w	r4, r3, #2147483648	; 0x80000000
    5d92:	ea44 0102 	orr.w	r1, r4, r2
    5d96:	bc10      	pop	{r4}
    5d98:	4770      	bx	lr
    5d9a:	bf00      	nop

00005d9c <__aeabi_drsub>:
    5d9c:	f081 4100 	eor.w	r1, r1, #2147483648	; 0x80000000
    5da0:	e002      	b.n	5da8 <__adddf3>
    5da2:	bf00      	nop

00005da4 <__aeabi_dsub>:
    5da4:	f083 4300 	eor.w	r3, r3, #2147483648	; 0x80000000

00005da8 <__adddf3>:
    5da8:	b530      	push	{r4, r5, lr}
    5daa:	ea4f 0441 	mov.w	r4, r1, lsl #1
    5dae:	ea4f 0543 	mov.w	r5, r3, lsl #1
    5db2:	ea94 0f05 	teq	r4, r5
    5db6:	bf08      	it	eq
    5db8:	ea90 0f02 	teqeq	r0, r2
    5dbc:	bf1f      	itttt	ne
    5dbe:	ea54 0c00 	orrsne.w	ip, r4, r0
    5dc2:	ea55 0c02 	orrsne.w	ip, r5, r2
    5dc6:	ea7f 5c64 	mvnsne.w	ip, r4, asr #21
    5dca:	ea7f 5c65 	mvnsne.w	ip, r5, asr #21
    5dce:	f000 80e2 	beq.w	5f96 <__adddf3+0x1ee>
    5dd2:	ea4f 5454 	mov.w	r4, r4, lsr #21
    5dd6:	ebd4 5555 	rsbs	r5, r4, r5, lsr #21
    5dda:	bfb8      	it	lt
    5ddc:	426d      	neglt	r5, r5
    5dde:	dd0c      	ble.n	5dfa <__adddf3+0x52>
    5de0:	442c      	add	r4, r5
    5de2:	ea80 0202 	eor.w	r2, r0, r2
    5de6:	ea81 0303 	eor.w	r3, r1, r3
    5dea:	ea82 0000 	eor.w	r0, r2, r0
    5dee:	ea83 0101 	eor.w	r1, r3, r1
    5df2:	ea80 0202 	eor.w	r2, r0, r2
    5df6:	ea81 0303 	eor.w	r3, r1, r3
    5dfa:	2d36      	cmp	r5, #54	; 0x36
    5dfc:	bf88      	it	hi
    5dfe:	bd30      	pophi	{r4, r5, pc}
    5e00:	f011 4f00 	tst.w	r1, #2147483648	; 0x80000000
    5e04:	ea4f 3101 	mov.w	r1, r1, lsl #12
    5e08:	f44f 1c80 	mov.w	ip, #1048576	; 0x100000
    5e0c:	ea4c 3111 	orr.w	r1, ip, r1, lsr #12
    5e10:	d002      	beq.n	5e18 <__adddf3+0x70>
    5e12:	4240      	negs	r0, r0
    5e14:	eb61 0141 	sbc.w	r1, r1, r1, lsl #1
    5e18:	f013 4f00 	tst.w	r3, #2147483648	; 0x80000000
    5e1c:	ea4f 3303 	mov.w	r3, r3, lsl #12
    5e20:	ea4c 3313 	orr.w	r3, ip, r3, lsr #12
    5e24:	d002      	beq.n	5e2c <__adddf3+0x84>
    5e26:	4252      	negs	r2, r2
    5e28:	eb63 0343 	sbc.w	r3, r3, r3, lsl #1
    5e2c:	ea94 0f05 	teq	r4, r5
    5e30:	f000 80a7 	beq.w	5f82 <__adddf3+0x1da>
    5e34:	f1a4 0401 	sub.w	r4, r4, #1
    5e38:	f1d5 0e20 	rsbs	lr, r5, #32
    5e3c:	db0d      	blt.n	5e5a <__adddf3+0xb2>
    5e3e:	fa02 fc0e 	lsl.w	ip, r2, lr
    5e42:	fa22 f205 	lsr.w	r2, r2, r5
    5e46:	1880      	adds	r0, r0, r2
    5e48:	f141 0100 	adc.w	r1, r1, #0
    5e4c:	fa03 f20e 	lsl.w	r2, r3, lr
    5e50:	1880      	adds	r0, r0, r2
    5e52:	fa43 f305 	asr.w	r3, r3, r5
    5e56:	4159      	adcs	r1, r3
    5e58:	e00e      	b.n	5e78 <__adddf3+0xd0>
    5e5a:	f1a5 0520 	sub.w	r5, r5, #32
    5e5e:	f10e 0e20 	add.w	lr, lr, #32
    5e62:	2a01      	cmp	r2, #1
    5e64:	fa03 fc0e 	lsl.w	ip, r3, lr
    5e68:	bf28      	it	cs
    5e6a:	f04c 0c02 	orrcs.w	ip, ip, #2
    5e6e:	fa43 f305 	asr.w	r3, r3, r5
    5e72:	18c0      	adds	r0, r0, r3
    5e74:	eb51 71e3 	adcs.w	r1, r1, r3, asr #31
    5e78:	f001 4500 	and.w	r5, r1, #2147483648	; 0x80000000
    5e7c:	d507      	bpl.n	5e8e <__adddf3+0xe6>
    5e7e:	f04f 0e00 	mov.w	lr, #0
    5e82:	f1dc 0c00 	rsbs	ip, ip, #0
    5e86:	eb7e 0000 	sbcs.w	r0, lr, r0
    5e8a:	eb6e 0101 	sbc.w	r1, lr, r1
    5e8e:	f5b1 1f80 	cmp.w	r1, #1048576	; 0x100000
    5e92:	d31b      	bcc.n	5ecc <__adddf3+0x124>
    5e94:	f5b1 1f00 	cmp.w	r1, #2097152	; 0x200000
    5e98:	d30c      	bcc.n	5eb4 <__adddf3+0x10c>
    5e9a:	0849      	lsrs	r1, r1, #1
    5e9c:	ea5f 0030 	movs.w	r0, r0, rrx
    5ea0:	ea4f 0c3c 	mov.w	ip, ip, rrx
    5ea4:	f104 0401 	add.w	r4, r4, #1
    5ea8:	ea4f 5244 	mov.w	r2, r4, lsl #21
    5eac:	f512 0f80 	cmn.w	r2, #4194304	; 0x400000
    5eb0:	f080 809a 	bcs.w	5fe8 <__adddf3+0x240>
    5eb4:	f1bc 4f00 	cmp.w	ip, #2147483648	; 0x80000000
    5eb8:	bf08      	it	eq
    5eba:	ea5f 0c50 	movseq.w	ip, r0, lsr #1
    5ebe:	f150 0000 	adcs.w	r0, r0, #0
    5ec2:	eb41 5104 	adc.w	r1, r1, r4, lsl #20
    5ec6:	ea41 0105 	orr.w	r1, r1, r5
    5eca:	bd30      	pop	{r4, r5, pc}
    5ecc:	ea5f 0c4c 	movs.w	ip, ip, lsl #1
    5ed0:	4140      	adcs	r0, r0
    5ed2:	eb41 0101 	adc.w	r1, r1, r1
    5ed6:	f411 1f80 	tst.w	r1, #1048576	; 0x100000
    5eda:	f1a4 0401 	sub.w	r4, r4, #1
    5ede:	d1e9      	bne.n	5eb4 <__adddf3+0x10c>
    5ee0:	f091 0f00 	teq	r1, #0
    5ee4:	bf04      	itt	eq
    5ee6:	4601      	moveq	r1, r0
    5ee8:	2000      	moveq	r0, #0
    5eea:	fab1 f381 	clz	r3, r1
    5eee:	bf08      	it	eq
    5ef0:	3320      	addeq	r3, #32
    5ef2:	f1a3 030b 	sub.w	r3, r3, #11
    5ef6:	f1b3 0220 	subs.w	r2, r3, #32
    5efa:	da0c      	bge.n	5f16 <__adddf3+0x16e>
    5efc:	320c      	adds	r2, #12
    5efe:	dd08      	ble.n	5f12 <__adddf3+0x16a>
    5f00:	f102 0c14 	add.w	ip, r2, #20
    5f04:	f1c2 020c 	rsb	r2, r2, #12
    5f08:	fa01 f00c 	lsl.w	r0, r1, ip
    5f0c:	fa21 f102 	lsr.w	r1, r1, r2
    5f10:	e00c      	b.n	5f2c <__adddf3+0x184>
    5f12:	f102 0214 	add.w	r2, r2, #20
    5f16:	bfd8      	it	le
    5f18:	f1c2 0c20 	rsble	ip, r2, #32
    5f1c:	fa01 f102 	lsl.w	r1, r1, r2
    5f20:	fa20 fc0c 	lsr.w	ip, r0, ip
    5f24:	bfdc      	itt	le
    5f26:	ea41 010c 	orrle.w	r1, r1, ip
    5f2a:	4090      	lslle	r0, r2
    5f2c:	1ae4      	subs	r4, r4, r3
    5f2e:	bfa2      	ittt	ge
    5f30:	eb01 5104 	addge.w	r1, r1, r4, lsl #20
    5f34:	4329      	orrge	r1, r5
    5f36:	bd30      	popge	{r4, r5, pc}
    5f38:	ea6f 0404 	mvn.w	r4, r4
    5f3c:	3c1f      	subs	r4, #31
    5f3e:	da1c      	bge.n	5f7a <__adddf3+0x1d2>
    5f40:	340c      	adds	r4, #12
    5f42:	dc0e      	bgt.n	5f62 <__adddf3+0x1ba>
    5f44:	f104 0414 	add.w	r4, r4, #20
    5f48:	f1c4 0220 	rsb	r2, r4, #32
    5f4c:	fa20 f004 	lsr.w	r0, r0, r4
    5f50:	fa01 f302 	lsl.w	r3, r1, r2
    5f54:	ea40 0003 	orr.w	r0, r0, r3
    5f58:	fa21 f304 	lsr.w	r3, r1, r4
    5f5c:	ea45 0103 	orr.w	r1, r5, r3
    5f60:	bd30      	pop	{r4, r5, pc}
    5f62:	f1c4 040c 	rsb	r4, r4, #12
    5f66:	f1c4 0220 	rsb	r2, r4, #32
    5f6a:	fa20 f002 	lsr.w	r0, r0, r2
    5f6e:	fa01 f304 	lsl.w	r3, r1, r4
    5f72:	ea40 0003 	orr.w	r0, r0, r3
    5f76:	4629      	mov	r1, r5
    5f78:	bd30      	pop	{r4, r5, pc}
    5f7a:	fa21 f004 	lsr.w	r0, r1, r4
    5f7e:	4629      	mov	r1, r5
    5f80:	bd30      	pop	{r4, r5, pc}
    5f82:	f094 0f00 	teq	r4, #0
    5f86:	f483 1380 	eor.w	r3, r3, #1048576	; 0x100000
    5f8a:	bf06      	itte	eq
    5f8c:	f481 1180 	eoreq.w	r1, r1, #1048576	; 0x100000
    5f90:	3401      	addeq	r4, #1
    5f92:	3d01      	subne	r5, #1
    5f94:	e74e      	b.n	5e34 <__adddf3+0x8c>
    5f96:	ea7f 5c64 	mvns.w	ip, r4, asr #21
    5f9a:	bf18      	it	ne
    5f9c:	ea7f 5c65 	mvnsne.w	ip, r5, asr #21
    5fa0:	d029      	beq.n	5ff6 <__adddf3+0x24e>
    5fa2:	ea94 0f05 	teq	r4, r5
    5fa6:	bf08      	it	eq
    5fa8:	ea90 0f02 	teqeq	r0, r2
    5fac:	d005      	beq.n	5fba <__adddf3+0x212>
    5fae:	ea54 0c00 	orrs.w	ip, r4, r0
    5fb2:	bf04      	itt	eq
    5fb4:	4619      	moveq	r1, r3
    5fb6:	4610      	moveq	r0, r2
    5fb8:	bd30      	pop	{r4, r5, pc}
    5fba:	ea91 0f03 	teq	r1, r3
    5fbe:	bf1e      	ittt	ne
    5fc0:	2100      	movne	r1, #0
    5fc2:	2000      	movne	r0, #0
    5fc4:	bd30      	popne	{r4, r5, pc}
    5fc6:	ea5f 5c54 	movs.w	ip, r4, lsr #21
    5fca:	d105      	bne.n	5fd8 <__adddf3+0x230>
    5fcc:	0040      	lsls	r0, r0, #1
    5fce:	4149      	adcs	r1, r1
    5fd0:	bf28      	it	cs
    5fd2:	f041 4100 	orrcs.w	r1, r1, #2147483648	; 0x80000000
    5fd6:	bd30      	pop	{r4, r5, pc}
    5fd8:	f514 0480 	adds.w	r4, r4, #4194304	; 0x400000
    5fdc:	bf3c      	itt	cc
    5fde:	f501 1180 	addcc.w	r1, r1, #1048576	; 0x100000
    5fe2:	bd30      	popcc	{r4, r5, pc}
    5fe4:	f001 4500 	and.w	r5, r1, #2147483648	; 0x80000000
    5fe8:	f045 41fe 	orr.w	r1, r5, #2130706432	; 0x7f000000
    5fec:	f441 0170 	orr.w	r1, r1, #15728640	; 0xf00000
    5ff0:	f04f 0000 	mov.w	r0, #0
    5ff4:	bd30      	pop	{r4, r5, pc}
    5ff6:	ea7f 5c64 	mvns.w	ip, r4, asr #21
    5ffa:	bf1a      	itte	ne
    5ffc:	4619      	movne	r1, r3
    5ffe:	4610      	movne	r0, r2
    6000:	ea7f 5c65 	mvnseq.w	ip, r5, asr #21
    6004:	bf1c      	itt	ne
    6006:	460b      	movne	r3, r1
    6008:	4602      	movne	r2, r0
    600a:	ea50 3401 	orrs.w	r4, r0, r1, lsl #12
    600e:	bf06      	itte	eq
    6010:	ea52 3503 	orrseq.w	r5, r2, r3, lsl #12
    6014:	ea91 0f03 	teqeq	r1, r3
    6018:	f441 2100 	orrne.w	r1, r1, #524288	; 0x80000
    601c:	bd30      	pop	{r4, r5, pc}
    601e:	bf00      	nop

00006020 <__aeabi_ui2d>:
    6020:	f090 0f00 	teq	r0, #0
    6024:	bf04      	itt	eq
    6026:	2100      	moveq	r1, #0
    6028:	4770      	bxeq	lr
    602a:	b530      	push	{r4, r5, lr}
    602c:	f44f 6480 	mov.w	r4, #1024	; 0x400
    6030:	f104 0432 	add.w	r4, r4, #50	; 0x32
    6034:	f04f 0500 	mov.w	r5, #0
    6038:	f04f 0100 	mov.w	r1, #0
    603c:	e750      	b.n	5ee0 <__adddf3+0x138>
    603e:	bf00      	nop

00006040 <__aeabi_i2d>:
    6040:	f090 0f00 	teq	r0, #0
    6044:	bf04      	itt	eq
    6046:	2100      	moveq	r1, #0
    6048:	4770      	bxeq	lr
    604a:	b530      	push	{r4, r5, lr}
    604c:	f44f 6480 	mov.w	r4, #1024	; 0x400
    6050:	f104 0432 	add.w	r4, r4, #50	; 0x32
    6054:	f010 4500 	ands.w	r5, r0, #2147483648	; 0x80000000
    6058:	bf48      	it	mi
    605a:	4240      	negmi	r0, r0
    605c:	f04f 0100 	mov.w	r1, #0
    6060:	e73e      	b.n	5ee0 <__adddf3+0x138>
    6062:	bf00      	nop

00006064 <__aeabi_f2d>:
    6064:	0042      	lsls	r2, r0, #1
    6066:	ea4f 01e2 	mov.w	r1, r2, asr #3
    606a:	ea4f 0131 	mov.w	r1, r1, rrx
    606e:	ea4f 7002 	mov.w	r0, r2, lsl #28
    6072:	bf1f      	itttt	ne
    6074:	f012 437f 	andsne.w	r3, r2, #4278190080	; 0xff000000
    6078:	f093 4f7f 	teqne	r3, #4278190080	; 0xff000000
    607c:	f081 5160 	eorne.w	r1, r1, #939524096	; 0x38000000
    6080:	4770      	bxne	lr
    6082:	f092 0f00 	teq	r2, #0
    6086:	bf14      	ite	ne
    6088:	f093 4f7f 	teqne	r3, #4278190080	; 0xff000000
    608c:	4770      	bxeq	lr
    608e:	b530      	push	{r4, r5, lr}
    6090:	f44f 7460 	mov.w	r4, #896	; 0x380
    6094:	f001 4500 	and.w	r5, r1, #2147483648	; 0x80000000
    6098:	f021 4100 	bic.w	r1, r1, #2147483648	; 0x80000000
    609c:	e720      	b.n	5ee0 <__adddf3+0x138>
    609e:	bf00      	nop

000060a0 <__aeabi_ul2d>:
    60a0:	ea50 0201 	orrs.w	r2, r0, r1
    60a4:	bf08      	it	eq
    60a6:	4770      	bxeq	lr
    60a8:	b530      	push	{r4, r5, lr}
    60aa:	f04f 0500 	mov.w	r5, #0
    60ae:	e00a      	b.n	60c6 <__aeabi_l2d+0x16>

000060b0 <__aeabi_l2d>:
    60b0:	ea50 0201 	orrs.w	r2, r0, r1
    60b4:	bf08      	it	eq
    60b6:	4770      	bxeq	lr
    60b8:	b530      	push	{r4, r5, lr}
    60ba:	f011 4500 	ands.w	r5, r1, #2147483648	; 0x80000000
    60be:	d502      	bpl.n	60c6 <__aeabi_l2d+0x16>
    60c0:	4240      	negs	r0, r0
    60c2:	eb61 0141 	sbc.w	r1, r1, r1, lsl #1
    60c6:	f44f 6480 	mov.w	r4, #1024	; 0x400
    60ca:	f104 0432 	add.w	r4, r4, #50	; 0x32
    60ce:	ea5f 5c91 	movs.w	ip, r1, lsr #22
    60d2:	f43f aedc 	beq.w	5e8e <__adddf3+0xe6>
    60d6:	f04f 0203 	mov.w	r2, #3
    60da:	ea5f 0cdc 	movs.w	ip, ip, lsr #3
    60de:	bf18      	it	ne
    60e0:	3203      	addne	r2, #3
    60e2:	ea5f 0cdc 	movs.w	ip, ip, lsr #3
    60e6:	bf18      	it	ne
    60e8:	3203      	addne	r2, #3
    60ea:	eb02 02dc 	add.w	r2, r2, ip, lsr #3
    60ee:	f1c2 0320 	rsb	r3, r2, #32
    60f2:	fa00 fc03 	lsl.w	ip, r0, r3
    60f6:	fa20 f002 	lsr.w	r0, r0, r2
    60fa:	fa01 fe03 	lsl.w	lr, r1, r3
    60fe:	ea40 000e 	orr.w	r0, r0, lr
    6102:	fa21 f102 	lsr.w	r1, r1, r2
    6106:	4414      	add	r4, r2
    6108:	e6c1      	b.n	5e8e <__adddf3+0xe6>
    610a:	bf00      	nop

0000610c <__aeabi_dmul>:
    610c:	b570      	push	{r4, r5, r6, lr}
    610e:	f04f 0cff 	mov.w	ip, #255	; 0xff
    6112:	f44c 6ce0 	orr.w	ip, ip, #1792	; 0x700
    6116:	ea1c 5411 	ands.w	r4, ip, r1, lsr #20
    611a:	bf1d      	ittte	ne
    611c:	ea1c 5513 	andsne.w	r5, ip, r3, lsr #20
    6120:	ea94 0f0c 	teqne	r4, ip
    6124:	ea95 0f0c 	teqne	r5, ip
    6128:	f000 f8de 	bleq	62e8 <__aeabi_dmul+0x1dc>
    612c:	442c      	add	r4, r5
    612e:	ea81 0603 	eor.w	r6, r1, r3
    6132:	ea21 514c 	bic.w	r1, r1, ip, lsl #21
    6136:	ea23 534c 	bic.w	r3, r3, ip, lsl #21
    613a:	ea50 3501 	orrs.w	r5, r0, r1, lsl #12
    613e:	bf18      	it	ne
    6140:	ea52 3503 	orrsne.w	r5, r2, r3, lsl #12
    6144:	f441 1180 	orr.w	r1, r1, #1048576	; 0x100000
    6148:	f443 1380 	orr.w	r3, r3, #1048576	; 0x100000
    614c:	d038      	beq.n	61c0 <__aeabi_dmul+0xb4>
    614e:	fba0 ce02 	umull	ip, lr, r0, r2
    6152:	f04f 0500 	mov.w	r5, #0
    6156:	fbe1 e502 	umlal	lr, r5, r1, r2
    615a:	f006 4200 	and.w	r2, r6, #2147483648	; 0x80000000
    615e:	fbe0 e503 	umlal	lr, r5, r0, r3
    6162:	f04f 0600 	mov.w	r6, #0
    6166:	fbe1 5603 	umlal	r5, r6, r1, r3
    616a:	f09c 0f00 	teq	ip, #0
    616e:	bf18      	it	ne
    6170:	f04e 0e01 	orrne.w	lr, lr, #1
    6174:	f1a4 04ff 	sub.w	r4, r4, #255	; 0xff
    6178:	f5b6 7f00 	cmp.w	r6, #512	; 0x200
    617c:	f564 7440 	sbc.w	r4, r4, #768	; 0x300
    6180:	d204      	bcs.n	618c <__aeabi_dmul+0x80>
    6182:	ea5f 0e4e 	movs.w	lr, lr, lsl #1
    6186:	416d      	adcs	r5, r5
    6188:	eb46 0606 	adc.w	r6, r6, r6
    618c:	ea42 21c6 	orr.w	r1, r2, r6, lsl #11
    6190:	ea41 5155 	orr.w	r1, r1, r5, lsr #21
    6194:	ea4f 20c5 	mov.w	r0, r5, lsl #11
    6198:	ea40 505e 	orr.w	r0, r0, lr, lsr #21
    619c:	ea4f 2ece 	mov.w	lr, lr, lsl #11
    61a0:	f1b4 0cfd 	subs.w	ip, r4, #253	; 0xfd
    61a4:	bf88      	it	hi
    61a6:	f5bc 6fe0 	cmphi.w	ip, #1792	; 0x700
    61aa:	d81e      	bhi.n	61ea <__aeabi_dmul+0xde>
    61ac:	f1be 4f00 	cmp.w	lr, #2147483648	; 0x80000000
    61b0:	bf08      	it	eq
    61b2:	ea5f 0e50 	movseq.w	lr, r0, lsr #1
    61b6:	f150 0000 	adcs.w	r0, r0, #0
    61ba:	eb41 5104 	adc.w	r1, r1, r4, lsl #20
    61be:	bd70      	pop	{r4, r5, r6, pc}
    61c0:	f006 4600 	and.w	r6, r6, #2147483648	; 0x80000000
    61c4:	ea46 0101 	orr.w	r1, r6, r1
    61c8:	ea40 0002 	orr.w	r0, r0, r2
    61cc:	ea81 0103 	eor.w	r1, r1, r3
    61d0:	ebb4 045c 	subs.w	r4, r4, ip, lsr #1
    61d4:	bfc2      	ittt	gt
    61d6:	ebd4 050c 	rsbsgt	r5, r4, ip
    61da:	ea41 5104 	orrgt.w	r1, r1, r4, lsl #20
    61de:	bd70      	popgt	{r4, r5, r6, pc}
    61e0:	f441 1180 	orr.w	r1, r1, #1048576	; 0x100000
    61e4:	f04f 0e00 	mov.w	lr, #0
    61e8:	3c01      	subs	r4, #1
    61ea:	f300 80ab 	bgt.w	6344 <__aeabi_dmul+0x238>
    61ee:	f114 0f36 	cmn.w	r4, #54	; 0x36
    61f2:	bfde      	ittt	le
    61f4:	2000      	movle	r0, #0
    61f6:	f001 4100 	andle.w	r1, r1, #2147483648	; 0x80000000
    61fa:	bd70      	pople	{r4, r5, r6, pc}
    61fc:	f1c4 0400 	rsb	r4, r4, #0
    6200:	3c20      	subs	r4, #32
    6202:	da35      	bge.n	6270 <__aeabi_dmul+0x164>
    6204:	340c      	adds	r4, #12
    6206:	dc1b      	bgt.n	6240 <__aeabi_dmul+0x134>
    6208:	f104 0414 	add.w	r4, r4, #20
    620c:	f1c4 0520 	rsb	r5, r4, #32
    6210:	fa00 f305 	lsl.w	r3, r0, r5
    6214:	fa20 f004 	lsr.w	r0, r0, r4
    6218:	fa01 f205 	lsl.w	r2, r1, r5
    621c:	ea40 0002 	orr.w	r0, r0, r2
    6220:	f001 4200 	and.w	r2, r1, #2147483648	; 0x80000000
    6224:	f021 4100 	bic.w	r1, r1, #2147483648	; 0x80000000
    6228:	eb10 70d3 	adds.w	r0, r0, r3, lsr #31
    622c:	fa21 f604 	lsr.w	r6, r1, r4
    6230:	eb42 0106 	adc.w	r1, r2, r6
    6234:	ea5e 0e43 	orrs.w	lr, lr, r3, lsl #1
    6238:	bf08      	it	eq
    623a:	ea20 70d3 	biceq.w	r0, r0, r3, lsr #31
    623e:	bd70      	pop	{r4, r5, r6, pc}
    6240:	f1c4 040c 	rsb	r4, r4, #12
    6244:	f1c4 0520 	rsb	r5, r4, #32
    6248:	fa00 f304 	lsl.w	r3, r0, r4
    624c:	fa20 f005 	lsr.w	r0, r0, r5
    6250:	fa01 f204 	lsl.w	r2, r1, r4
    6254:	ea40 0002 	orr.w	r0, r0, r2
    6258:	f001 4100 	and.w	r1, r1, #2147483648	; 0x80000000
    625c:	eb10 70d3 	adds.w	r0, r0, r3, lsr #31
    6260:	f141 0100 	adc.w	r1, r1, #0
    6264:	ea5e 0e43 	orrs.w	lr, lr, r3, lsl #1
    6268:	bf08      	it	eq
    626a:	ea20 70d3 	biceq.w	r0, r0, r3, lsr #31
    626e:	bd70      	pop	{r4, r5, r6, pc}
    6270:	f1c4 0520 	rsb	r5, r4, #32
    6274:	fa00 f205 	lsl.w	r2, r0, r5
    6278:	ea4e 0e02 	orr.w	lr, lr, r2
    627c:	fa20 f304 	lsr.w	r3, r0, r4
    6280:	fa01 f205 	lsl.w	r2, r1, r5
    6284:	ea43 0302 	orr.w	r3, r3, r2
    6288:	fa21 f004 	lsr.w	r0, r1, r4
    628c:	f001 4100 	and.w	r1, r1, #2147483648	; 0x80000000
    6290:	fa21 f204 	lsr.w	r2, r1, r4
    6294:	ea20 0002 	bic.w	r0, r0, r2
    6298:	eb00 70d3 	add.w	r0, r0, r3, lsr #31
    629c:	ea5e 0e43 	orrs.w	lr, lr, r3, lsl #1
    62a0:	bf08      	it	eq
    62a2:	ea20 70d3 	biceq.w	r0, r0, r3, lsr #31
    62a6:	bd70      	pop	{r4, r5, r6, pc}
    62a8:	f094 0f00 	teq	r4, #0
    62ac:	d10f      	bne.n	62ce <__aeabi_dmul+0x1c2>
    62ae:	f001 4600 	and.w	r6, r1, #2147483648	; 0x80000000
    62b2:	0040      	lsls	r0, r0, #1
    62b4:	eb41 0101 	adc.w	r1, r1, r1
    62b8:	f411 1f80 	tst.w	r1, #1048576	; 0x100000
    62bc:	bf08      	it	eq
    62be:	3c01      	subeq	r4, #1
    62c0:	d0f7      	beq.n	62b2 <__aeabi_dmul+0x1a6>
    62c2:	ea41 0106 	orr.w	r1, r1, r6
    62c6:	f095 0f00 	teq	r5, #0
    62ca:	bf18      	it	ne
    62cc:	4770      	bxne	lr
    62ce:	f003 4600 	and.w	r6, r3, #2147483648	; 0x80000000
    62d2:	0052      	lsls	r2, r2, #1
    62d4:	eb43 0303 	adc.w	r3, r3, r3
    62d8:	f413 1f80 	tst.w	r3, #1048576	; 0x100000
    62dc:	bf08      	it	eq
    62de:	3d01      	subeq	r5, #1
    62e0:	d0f7      	beq.n	62d2 <__aeabi_dmul+0x1c6>
    62e2:	ea43 0306 	orr.w	r3, r3, r6
    62e6:	4770      	bx	lr
    62e8:	ea94 0f0c 	teq	r4, ip
    62ec:	ea0c 5513 	and.w	r5, ip, r3, lsr #20
    62f0:	bf18      	it	ne
    62f2:	ea95 0f0c 	teqne	r5, ip
    62f6:	d00c      	beq.n	6312 <__aeabi_dmul+0x206>
    62f8:	ea50 0641 	orrs.w	r6, r0, r1, lsl #1
    62fc:	bf18      	it	ne
    62fe:	ea52 0643 	orrsne.w	r6, r2, r3, lsl #1
    6302:	d1d1      	bne.n	62a8 <__aeabi_dmul+0x19c>
    6304:	ea81 0103 	eor.w	r1, r1, r3
    6308:	f001 4100 	and.w	r1, r1, #2147483648	; 0x80000000
    630c:	f04f 0000 	mov.w	r0, #0
    6310:	bd70      	pop	{r4, r5, r6, pc}
    6312:	ea50 0641 	orrs.w	r6, r0, r1, lsl #1
    6316:	bf06      	itte	eq
    6318:	4610      	moveq	r0, r2
    631a:	4619      	moveq	r1, r3
    631c:	ea52 0643 	orrsne.w	r6, r2, r3, lsl #1
    6320:	d019      	beq.n	6356 <__aeabi_dmul+0x24a>
    6322:	ea94 0f0c 	teq	r4, ip
    6326:	d102      	bne.n	632e <__aeabi_dmul+0x222>
    6328:	ea50 3601 	orrs.w	r6, r0, r1, lsl #12
    632c:	d113      	bne.n	6356 <__aeabi_dmul+0x24a>
    632e:	ea95 0f0c 	teq	r5, ip
    6332:	d105      	bne.n	6340 <__aeabi_dmul+0x234>
    6334:	ea52 3603 	orrs.w	r6, r2, r3, lsl #12
    6338:	bf1c      	itt	ne
    633a:	4610      	movne	r0, r2
    633c:	4619      	movne	r1, r3
    633e:	d10a      	bne.n	6356 <__aeabi_dmul+0x24a>
    6340:	ea81 0103 	eor.w	r1, r1, r3
    6344:	f001 4100 	and.w	r1, r1, #2147483648	; 0x80000000
    6348:	f041 41fe 	orr.w	r1, r1, #2130706432	; 0x7f000000
    634c:	f441 0170 	orr.w	r1, r1, #15728640	; 0xf00000
    6350:	f04f 0000 	mov.w	r0, #0
    6354:	bd70      	pop	{r4, r5, r6, pc}
    6356:	f041 41fe 	orr.w	r1, r1, #2130706432	; 0x7f000000
    635a:	f441 0178 	orr.w	r1, r1, #16252928	; 0xf80000
    635e:	bd70      	pop	{r4, r5, r6, pc}

00006360 <__aeabi_ddiv>:
    6360:	b570      	push	{r4, r5, r6, lr}
    6362:	f04f 0cff 	mov.w	ip, #255	; 0xff
    6366:	f44c 6ce0 	orr.w	ip, ip, #1792	; 0x700
    636a:	ea1c 5411 	ands.w	r4, ip, r1, lsr #20
    636e:	bf1d      	ittte	ne
    6370:	ea1c 5513 	andsne.w	r5, ip, r3, lsr #20
    6374:	ea94 0f0c 	teqne	r4, ip
    6378:	ea95 0f0c 	teqne	r5, ip
    637c:	f000 f8a7 	bleq	64ce <__aeabi_ddiv+0x16e>
    6380:	eba4 0405 	sub.w	r4, r4, r5
    6384:	ea81 0e03 	eor.w	lr, r1, r3
    6388:	ea52 3503 	orrs.w	r5, r2, r3, lsl #12
    638c:	ea4f 3101 	mov.w	r1, r1, lsl #12
    6390:	f000 8088 	beq.w	64a4 <__aeabi_ddiv+0x144>
    6394:	ea4f 3303 	mov.w	r3, r3, lsl #12
    6398:	f04f 5580 	mov.w	r5, #268435456	; 0x10000000
    639c:	ea45 1313 	orr.w	r3, r5, r3, lsr #4
    63a0:	ea43 6312 	orr.w	r3, r3, r2, lsr #24
    63a4:	ea4f 2202 	mov.w	r2, r2, lsl #8
    63a8:	ea45 1511 	orr.w	r5, r5, r1, lsr #4
    63ac:	ea45 6510 	orr.w	r5, r5, r0, lsr #24
    63b0:	ea4f 2600 	mov.w	r6, r0, lsl #8
    63b4:	f00e 4100 	and.w	r1, lr, #2147483648	; 0x80000000
    63b8:	429d      	cmp	r5, r3
    63ba:	bf08      	it	eq
    63bc:	4296      	cmpeq	r6, r2
    63be:	f144 04fd 	adc.w	r4, r4, #253	; 0xfd
    63c2:	f504 7440 	add.w	r4, r4, #768	; 0x300
    63c6:	d202      	bcs.n	63ce <__aeabi_ddiv+0x6e>
    63c8:	085b      	lsrs	r3, r3, #1
    63ca:	ea4f 0232 	mov.w	r2, r2, rrx
    63ce:	1ab6      	subs	r6, r6, r2
    63d0:	eb65 0503 	sbc.w	r5, r5, r3
    63d4:	085b      	lsrs	r3, r3, #1
    63d6:	ea4f 0232 	mov.w	r2, r2, rrx
    63da:	f44f 1080 	mov.w	r0, #1048576	; 0x100000
    63de:	f44f 2c00 	mov.w	ip, #524288	; 0x80000
    63e2:	ebb6 0e02 	subs.w	lr, r6, r2
    63e6:	eb75 0e03 	sbcs.w	lr, r5, r3
    63ea:	bf22      	ittt	cs
    63ec:	1ab6      	subcs	r6, r6, r2
    63ee:	4675      	movcs	r5, lr
    63f0:	ea40 000c 	orrcs.w	r0, r0, ip
    63f4:	085b      	lsrs	r3, r3, #1
    63f6:	ea4f 0232 	mov.w	r2, r2, rrx
    63fa:	ebb6 0e02 	subs.w	lr, r6, r2
    63fe:	eb75 0e03 	sbcs.w	lr, r5, r3
    6402:	bf22      	ittt	cs
    6404:	1ab6      	subcs	r6, r6, r2
    6406:	4675      	movcs	r5, lr
    6408:	ea40 005c 	orrcs.w	r0, r0, ip, lsr #1
    640c:	085b      	lsrs	r3, r3, #1
    640e:	ea4f 0232 	mov.w	r2, r2, rrx
    6412:	ebb6 0e02 	subs.w	lr, r6, r2
    6416:	eb75 0e03 	sbcs.w	lr, r5, r3
    641a:	bf22      	ittt	cs
    641c:	1ab6      	subcs	r6, r6, r2
    641e:	4675      	movcs	r5, lr
    6420:	ea40 009c 	orrcs.w	r0, r0, ip, lsr #2
    6424:	085b      	lsrs	r3, r3, #1
    6426:	ea4f 0232 	mov.w	r2, r2, rrx
    642a:	ebb6 0e02 	subs.w	lr, r6, r2
    642e:	eb75 0e03 	sbcs.w	lr, r5, r3
    6432:	bf22      	ittt	cs
    6434:	1ab6      	subcs	r6, r6, r2
    6436:	4675      	movcs	r5, lr
    6438:	ea40 00dc 	orrcs.w	r0, r0, ip, lsr #3
    643c:	ea55 0e06 	orrs.w	lr, r5, r6
    6440:	d018      	beq.n	6474 <__aeabi_ddiv+0x114>
    6442:	ea4f 1505 	mov.w	r5, r5, lsl #4
    6446:	ea45 7516 	orr.w	r5, r5, r6, lsr #28
    644a:	ea4f 1606 	mov.w	r6, r6, lsl #4
    644e:	ea4f 03c3 	mov.w	r3, r3, lsl #3
    6452:	ea43 7352 	orr.w	r3, r3, r2, lsr #29
    6456:	ea4f 02c2 	mov.w	r2, r2, lsl #3
    645a:	ea5f 1c1c 	movs.w	ip, ip, lsr #4
    645e:	d1c0      	bne.n	63e2 <__aeabi_ddiv+0x82>
    6460:	f411 1f80 	tst.w	r1, #1048576	; 0x100000
    6464:	d10b      	bne.n	647e <__aeabi_ddiv+0x11e>
    6466:	ea41 0100 	orr.w	r1, r1, r0
    646a:	f04f 0000 	mov.w	r0, #0
    646e:	f04f 4c00 	mov.w	ip, #2147483648	; 0x80000000
    6472:	e7b6      	b.n	63e2 <__aeabi_ddiv+0x82>
    6474:	f411 1f80 	tst.w	r1, #1048576	; 0x100000
    6478:	bf04      	itt	eq
    647a:	4301      	orreq	r1, r0
    647c:	2000      	moveq	r0, #0
    647e:	f1b4 0cfd 	subs.w	ip, r4, #253	; 0xfd
    6482:	bf88      	it	hi
    6484:	f5bc 6fe0 	cmphi.w	ip, #1792	; 0x700
    6488:	f63f aeaf 	bhi.w	61ea <__aeabi_dmul+0xde>
    648c:	ebb5 0c03 	subs.w	ip, r5, r3
    6490:	bf04      	itt	eq
    6492:	ebb6 0c02 	subseq.w	ip, r6, r2
    6496:	ea5f 0c50 	movseq.w	ip, r0, lsr #1
    649a:	f150 0000 	adcs.w	r0, r0, #0
    649e:	eb41 5104 	adc.w	r1, r1, r4, lsl #20
    64a2:	bd70      	pop	{r4, r5, r6, pc}
    64a4:	f00e 4e00 	and.w	lr, lr, #2147483648	; 0x80000000
    64a8:	ea4e 3111 	orr.w	r1, lr, r1, lsr #12
    64ac:	eb14 045c 	adds.w	r4, r4, ip, lsr #1
    64b0:	bfc2      	ittt	gt
    64b2:	ebd4 050c 	rsbsgt	r5, r4, ip
    64b6:	ea41 5104 	orrgt.w	r1, r1, r4, lsl #20
    64ba:	bd70      	popgt	{r4, r5, r6, pc}
    64bc:	f441 1180 	orr.w	r1, r1, #1048576	; 0x100000
    64c0:	f04f 0e00 	mov.w	lr, #0
    64c4:	3c01      	subs	r4, #1
    64c6:	e690      	b.n	61ea <__aeabi_dmul+0xde>
    64c8:	ea45 0e06 	orr.w	lr, r5, r6
    64cc:	e68d      	b.n	61ea <__aeabi_dmul+0xde>
    64ce:	ea0c 5513 	and.w	r5, ip, r3, lsr #20
    64d2:	ea94 0f0c 	teq	r4, ip
    64d6:	bf08      	it	eq
    64d8:	ea95 0f0c 	teqeq	r5, ip
    64dc:	f43f af3b 	beq.w	6356 <__aeabi_dmul+0x24a>
    64e0:	ea94 0f0c 	teq	r4, ip
    64e4:	d10a      	bne.n	64fc <__aeabi_ddiv+0x19c>
    64e6:	ea50 3401 	orrs.w	r4, r0, r1, lsl #12
    64ea:	f47f af34 	bne.w	6356 <__aeabi_dmul+0x24a>
    64ee:	ea95 0f0c 	teq	r5, ip
    64f2:	f47f af25 	bne.w	6340 <__aeabi_dmul+0x234>
    64f6:	4610      	mov	r0, r2
    64f8:	4619      	mov	r1, r3
    64fa:	e72c      	b.n	6356 <__aeabi_dmul+0x24a>
    64fc:	ea95 0f0c 	teq	r5, ip
    6500:	d106      	bne.n	6510 <__aeabi_ddiv+0x1b0>
    6502:	ea52 3503 	orrs.w	r5, r2, r3, lsl #12
    6506:	f43f aefd 	beq.w	6304 <__aeabi_dmul+0x1f8>
    650a:	4610      	mov	r0, r2
    650c:	4619      	mov	r1, r3
    650e:	e722      	b.n	6356 <__aeabi_dmul+0x24a>
    6510:	ea50 0641 	orrs.w	r6, r0, r1, lsl #1
    6514:	bf18      	it	ne
    6516:	ea52 0643 	orrsne.w	r6, r2, r3, lsl #1
    651a:	f47f aec5 	bne.w	62a8 <__aeabi_dmul+0x19c>
    651e:	ea50 0441 	orrs.w	r4, r0, r1, lsl #1
    6522:	f47f af0d 	bne.w	6340 <__aeabi_dmul+0x234>
    6526:	ea52 0543 	orrs.w	r5, r2, r3, lsl #1
    652a:	f47f aeeb 	bne.w	6304 <__aeabi_dmul+0x1f8>
    652e:	e712      	b.n	6356 <__aeabi_dmul+0x24a>

00006530 <__gedf2>:
    6530:	f04f 3cff 	mov.w	ip, #4294967295
    6534:	e006      	b.n	6544 <__cmpdf2+0x4>
    6536:	bf00      	nop

00006538 <__ledf2>:
    6538:	f04f 0c01 	mov.w	ip, #1
    653c:	e002      	b.n	6544 <__cmpdf2+0x4>
    653e:	bf00      	nop

00006540 <__cmpdf2>:
    6540:	f04f 0c01 	mov.w	ip, #1
    6544:	f84d cd04 	str.w	ip, [sp, #-4]!
    6548:	ea4f 0c41 	mov.w	ip, r1, lsl #1
    654c:	ea7f 5c6c 	mvns.w	ip, ip, asr #21
    6550:	ea4f 0c43 	mov.w	ip, r3, lsl #1
    6554:	bf18      	it	ne
    6556:	ea7f 5c6c 	mvnsne.w	ip, ip, asr #21
    655a:	d01b      	beq.n	6594 <__cmpdf2+0x54>
    655c:	b001      	add	sp, #4
    655e:	ea50 0c41 	orrs.w	ip, r0, r1, lsl #1
    6562:	bf0c      	ite	eq
    6564:	ea52 0c43 	orrseq.w	ip, r2, r3, lsl #1
    6568:	ea91 0f03 	teqne	r1, r3
    656c:	bf02      	ittt	eq
    656e:	ea90 0f02 	teqeq	r0, r2
    6572:	2000      	moveq	r0, #0
    6574:	4770      	bxeq	lr
    6576:	f110 0f00 	cmn.w	r0, #0
    657a:	ea91 0f03 	teq	r1, r3
    657e:	bf58      	it	pl
    6580:	4299      	cmppl	r1, r3
    6582:	bf08      	it	eq
    6584:	4290      	cmpeq	r0, r2
    6586:	bf2c      	ite	cs
    6588:	17d8      	asrcs	r0, r3, #31
    658a:	ea6f 70e3 	mvncc.w	r0, r3, asr #31
    658e:	f040 0001 	orr.w	r0, r0, #1
    6592:	4770      	bx	lr
    6594:	ea4f 0c41 	mov.w	ip, r1, lsl #1
    6598:	ea7f 5c6c 	mvns.w	ip, ip, asr #21
    659c:	d102      	bne.n	65a4 <__cmpdf2+0x64>
    659e:	ea50 3c01 	orrs.w	ip, r0, r1, lsl #12
    65a2:	d107      	bne.n	65b4 <__cmpdf2+0x74>
    65a4:	ea4f 0c43 	mov.w	ip, r3, lsl #1
    65a8:	ea7f 5c6c 	mvns.w	ip, ip, asr #21
    65ac:	d1d6      	bne.n	655c <__cmpdf2+0x1c>
    65ae:	ea52 3c03 	orrs.w	ip, r2, r3, lsl #12
    65b2:	d0d3      	beq.n	655c <__cmpdf2+0x1c>
    65b4:	f85d 0b04 	ldr.w	r0, [sp], #4
    65b8:	4770      	bx	lr
    65ba:	bf00      	nop

000065bc <__aeabi_cdrcmple>:
    65bc:	4684      	mov	ip, r0
    65be:	4610      	mov	r0, r2
    65c0:	4662      	mov	r2, ip
    65c2:	468c      	mov	ip, r1
    65c4:	4619      	mov	r1, r3
    65c6:	4663      	mov	r3, ip
    65c8:	e000      	b.n	65cc <__aeabi_cdcmpeq>
    65ca:	bf00      	nop

000065cc <__aeabi_cdcmpeq>:
    65cc:	b501      	push	{r0, lr}
    65ce:	f7ff ffb7 	bl	6540 <__cmpdf2>
    65d2:	2800      	cmp	r0, #0
    65d4:	bf48      	it	mi
    65d6:	f110 0f00 	cmnmi.w	r0, #0
    65da:	bd01      	pop	{r0, pc}

000065dc <__aeabi_dcmpeq>:
    65dc:	f84d ed08 	str.w	lr, [sp, #-8]!
    65e0:	f7ff fff4 	bl	65cc <__aeabi_cdcmpeq>
    65e4:	bf0c      	ite	eq
    65e6:	2001      	moveq	r0, #1
    65e8:	2000      	movne	r0, #0
    65ea:	f85d fb08 	ldr.w	pc, [sp], #8
    65ee:	bf00      	nop

000065f0 <__aeabi_dcmplt>:
    65f0:	f84d ed08 	str.w	lr, [sp, #-8]!
    65f4:	f7ff ffea 	bl	65cc <__aeabi_cdcmpeq>
    65f8:	bf34      	ite	cc
    65fa:	2001      	movcc	r0, #1
    65fc:	2000      	movcs	r0, #0
    65fe:	f85d fb08 	ldr.w	pc, [sp], #8
    6602:	bf00      	nop

00006604 <__aeabi_dcmple>:
    6604:	f84d ed08 	str.w	lr, [sp, #-8]!
    6608:	f7ff ffe0 	bl	65cc <__aeabi_cdcmpeq>
    660c:	bf94      	ite	ls
    660e:	2001      	movls	r0, #1
    6610:	2000      	movhi	r0, #0
    6612:	f85d fb08 	ldr.w	pc, [sp], #8
    6616:	bf00      	nop

00006618 <__aeabi_dcmpge>:
    6618:	f84d ed08 	str.w	lr, [sp, #-8]!
    661c:	f7ff ffce 	bl	65bc <__aeabi_cdrcmple>
    6620:	bf94      	ite	ls
    6622:	2001      	movls	r0, #1
    6624:	2000      	movhi	r0, #0
    6626:	f85d fb08 	ldr.w	pc, [sp], #8
    662a:	bf00      	nop

0000662c <__aeabi_dcmpgt>:
    662c:	f84d ed08 	str.w	lr, [sp, #-8]!
    6630:	f7ff ffc4 	bl	65bc <__aeabi_cdrcmple>
    6634:	bf34      	ite	cc
    6636:	2001      	movcc	r0, #1
    6638:	2000      	movcs	r0, #0
    663a:	f85d fb08 	ldr.w	pc, [sp], #8
    663e:	bf00      	nop

00006640 <__aeabi_d2iz>:
    6640:	ea4f 0241 	mov.w	r2, r1, lsl #1
    6644:	f512 1200 	adds.w	r2, r2, #2097152	; 0x200000
    6648:	d215      	bcs.n	6676 <__aeabi_d2iz+0x36>
    664a:	d511      	bpl.n	6670 <__aeabi_d2iz+0x30>
    664c:	f46f 7378 	mvn.w	r3, #992	; 0x3e0
    6650:	ebb3 5262 	subs.w	r2, r3, r2, asr #21
    6654:	d912      	bls.n	667c <__aeabi_d2iz+0x3c>
    6656:	ea4f 23c1 	mov.w	r3, r1, lsl #11
    665a:	f043 4300 	orr.w	r3, r3, #2147483648	; 0x80000000
    665e:	ea43 5350 	orr.w	r3, r3, r0, lsr #21
    6662:	f011 4f00 	tst.w	r1, #2147483648	; 0x80000000
    6666:	fa23 f002 	lsr.w	r0, r3, r2
    666a:	bf18      	it	ne
    666c:	4240      	negne	r0, r0
    666e:	4770      	bx	lr
    6670:	f04f 0000 	mov.w	r0, #0
    6674:	4770      	bx	lr
    6676:	ea50 3001 	orrs.w	r0, r0, r1, lsl #12
    667a:	d105      	bne.n	6688 <__aeabi_d2iz+0x48>
    667c:	f011 4000 	ands.w	r0, r1, #2147483648	; 0x80000000
    6680:	bf08      	it	eq
    6682:	f06f 4000 	mvneq.w	r0, #2147483648	; 0x80000000
    6686:	4770      	bx	lr
    6688:	f04f 0000 	mov.w	r0, #0
    668c:	4770      	bx	lr
    668e:	bf00      	nop

00006690 <__aeabi_d2uiz>:
    6690:	004a      	lsls	r2, r1, #1
    6692:	d211      	bcs.n	66b8 <__aeabi_d2uiz+0x28>
    6694:	f512 1200 	adds.w	r2, r2, #2097152	; 0x200000
    6698:	d211      	bcs.n	66be <__aeabi_d2uiz+0x2e>
    669a:	d50d      	bpl.n	66b8 <__aeabi_d2uiz+0x28>
    669c:	f46f 7378 	mvn.w	r3, #992	; 0x3e0
    66a0:	ebb3 5262 	subs.w	r2, r3, r2, asr #21
    66a4:	d40e      	bmi.n	66c4 <__aeabi_d2uiz+0x34>
    66a6:	ea4f 23c1 	mov.w	r3, r1, lsl #11
    66aa:	f043 4300 	orr.w	r3, r3, #2147483648	; 0x80000000
    66ae:	ea43 5350 	orr.w	r3, r3, r0, lsr #21
    66b2:	fa23 f002 	lsr.w	r0, r3, r2
    66b6:	4770      	bx	lr
    66b8:	f04f 0000 	mov.w	r0, #0
    66bc:	4770      	bx	lr
    66be:	ea50 3001 	orrs.w	r0, r0, r1, lsl #12
    66c2:	d102      	bne.n	66ca <__aeabi_d2uiz+0x3a>
    66c4:	f04f 30ff 	mov.w	r0, #4294967295
    66c8:	4770      	bx	lr
    66ca:	f04f 0000 	mov.w	r0, #0
    66ce:	4770      	bx	lr

000066d0 <__aeabi_uldivmod>:
    66d0:	b94b      	cbnz	r3, 66e6 <__aeabi_uldivmod+0x16>
    66d2:	b942      	cbnz	r2, 66e6 <__aeabi_uldivmod+0x16>
    66d4:	2900      	cmp	r1, #0
    66d6:	bf08      	it	eq
    66d8:	2800      	cmpeq	r0, #0
    66da:	d002      	beq.n	66e2 <__aeabi_uldivmod+0x12>
    66dc:	f04f 31ff 	mov.w	r1, #4294967295
    66e0:	4608      	mov	r0, r1
    66e2:	f000 b83b 	b.w	675c <__aeabi_idiv0>
    66e6:	b082      	sub	sp, #8
    66e8:	46ec      	mov	ip, sp
    66ea:	e92d 5000 	stmdb	sp!, {ip, lr}
    66ee:	f000 f81d 	bl	672c <__gnu_uldivmod_helper>
    66f2:	f8dd e004 	ldr.w	lr, [sp, #4]
    66f6:	b002      	add	sp, #8
    66f8:	bc0c      	pop	{r2, r3}
    66fa:	4770      	bx	lr

000066fc <__gnu_ldivmod_helper>:
    66fc:	e92d 4370 	stmdb	sp!, {r4, r5, r6, r8, r9, lr}
    6700:	4616      	mov	r6, r2
    6702:	4680      	mov	r8, r0
    6704:	4689      	mov	r9, r1
    6706:	461d      	mov	r5, r3
    6708:	f000 f82a 	bl	6760 <__divdi3>
    670c:	fb00 f305 	mul.w	r3, r0, r5
    6710:	fba0 4506 	umull	r4, r5, r0, r6
    6714:	fb06 3601 	mla	r6, r6, r1, r3
    6718:	9b06      	ldr	r3, [sp, #24]
    671a:	1975      	adds	r5, r6, r5
    671c:	ebb8 0404 	subs.w	r4, r8, r4
    6720:	eb69 0505 	sbc.w	r5, r9, r5
    6724:	e9c3 4500 	strd	r4, r5, [r3]
    6728:	e8bd 8370 	ldmia.w	sp!, {r4, r5, r6, r8, r9, pc}

0000672c <__gnu_uldivmod_helper>:
    672c:	e92d 4370 	stmdb	sp!, {r4, r5, r6, r8, r9, lr}
    6730:	4616      	mov	r6, r2
    6732:	4680      	mov	r8, r0
    6734:	4689      	mov	r9, r1
    6736:	461d      	mov	r5, r3
    6738:	f000 f9c2 	bl	6ac0 <__udivdi3>
    673c:	fb00 f305 	mul.w	r3, r0, r5
    6740:	fba0 4506 	umull	r4, r5, r0, r6
    6744:	fb06 3601 	mla	r6, r6, r1, r3
    6748:	9b06      	ldr	r3, [sp, #24]
    674a:	1975      	adds	r5, r6, r5
    674c:	ebb8 0404 	subs.w	r4, r8, r4
    6750:	eb69 0505 	sbc.w	r5, r9, r5
    6754:	e9c3 4500 	strd	r4, r5, [r3]
    6758:	e8bd 8370 	ldmia.w	sp!, {r4, r5, r6, r8, r9, pc}

0000675c <__aeabi_idiv0>:
    675c:	4770      	bx	lr
    675e:	bf00      	nop

00006760 <__divdi3>:
    6760:	2900      	cmp	r1, #0
    6762:	e92d 4ff0 	stmdb	sp!, {r4, r5, r6, r7, r8, r9, sl, fp, lr}
    6766:	461c      	mov	r4, r3
    6768:	b085      	sub	sp, #20
    676a:	f2c0 80cb 	blt.w	6904 <__divdi3+0x1a4>
    676e:	2600      	movs	r6, #0
    6770:	2c00      	cmp	r4, #0
    6772:	f2c0 80c2 	blt.w	68fa <__divdi3+0x19a>
    6776:	468c      	mov	ip, r1
    6778:	4617      	mov	r7, r2
    677a:	4614      	mov	r4, r2
    677c:	4605      	mov	r5, r0
    677e:	4688      	mov	r8, r1
    6780:	469a      	mov	sl, r3
    6782:	2b00      	cmp	r3, #0
    6784:	d14a      	bne.n	681c <__divdi3+0xbc>
    6786:	428a      	cmp	r2, r1
    6788:	d96e      	bls.n	6868 <__divdi3+0x108>
    678a:	fab2 f382 	clz	r3, r2
    678e:	b15b      	cbz	r3, 67a8 <__divdi3+0x48>
    6790:	f1c3 0420 	rsb	r4, r3, #32
    6794:	fa01 f803 	lsl.w	r8, r1, r3
    6798:	fa30 f204 	lsrs.w	r2, r0, r4
    679c:	fa10 f503 	lsls.w	r5, r0, r3
    67a0:	fa17 f403 	lsls.w	r4, r7, r3
    67a4:	ea42 0808 	orr.w	r8, r2, r8
    67a8:	ea4f 4a14 	mov.w	sl, r4, lsr #16
    67ac:	4640      	mov	r0, r8
    67ae:	4651      	mov	r1, sl
    67b0:	fa1f fb84 	uxth.w	fp, r4
    67b4:	f000 fb08 	bl	6dc8 <__aeabi_uidiv>
    67b8:	4651      	mov	r1, sl
    67ba:	4681      	mov	r9, r0
    67bc:	4640      	mov	r0, r8
    67be:	f000 fc31 	bl	7024 <__aeabi_uidivmod>
    67c2:	0c28      	lsrs	r0, r5, #16
    67c4:	fb0b f309 	mul.w	r3, fp, r9
    67c8:	ea40 4801 	orr.w	r8, r0, r1, lsl #16
    67cc:	4543      	cmp	r3, r8
    67ce:	d909      	bls.n	67e4 <__divdi3+0x84>
    67d0:	eb18 0804 	adds.w	r8, r8, r4
    67d4:	f109 39ff 	add.w	r9, r9, #4294967295
    67d8:	d204      	bcs.n	67e4 <__divdi3+0x84>
    67da:	4543      	cmp	r3, r8
    67dc:	bf84      	itt	hi
    67de:	f109 39ff 	addhi.w	r9, r9, #4294967295
    67e2:	44a0      	addhi	r8, r4
    67e4:	ebc3 0808 	rsb	r8, r3, r8
    67e8:	4651      	mov	r1, sl
    67ea:	4640      	mov	r0, r8
    67ec:	b2ad      	uxth	r5, r5
    67ee:	f000 faeb 	bl	6dc8 <__aeabi_uidiv>
    67f2:	4651      	mov	r1, sl
    67f4:	4607      	mov	r7, r0
    67f6:	4640      	mov	r0, r8
    67f8:	f000 fc14 	bl	7024 <__aeabi_uidivmod>
    67fc:	fb0b fb07 	mul.w	fp, fp, r7
    6800:	ea45 4501 	orr.w	r5, r5, r1, lsl #16
    6804:	45ab      	cmp	fp, r5
    6806:	d905      	bls.n	6814 <__divdi3+0xb4>
    6808:	3f01      	subs	r7, #1
    680a:	192d      	adds	r5, r5, r4
    680c:	d202      	bcs.n	6814 <__divdi3+0xb4>
    680e:	45ab      	cmp	fp, r5
    6810:	bf88      	it	hi
    6812:	3f01      	subhi	r7, #1
    6814:	ea47 4909 	orr.w	r9, r7, r9, lsl #16
    6818:	2400      	movs	r4, #0
    681a:	e003      	b.n	6824 <__divdi3+0xc4>
    681c:	428b      	cmp	r3, r1
    681e:	d90c      	bls.n	683a <__divdi3+0xda>
    6820:	2400      	movs	r4, #0
    6822:	46a1      	mov	r9, r4
    6824:	464a      	mov	r2, r9
    6826:	4623      	mov	r3, r4
    6828:	b116      	cbz	r6, 6830 <__divdi3+0xd0>
    682a:	4252      	negs	r2, r2
    682c:	eb63 0343 	sbc.w	r3, r3, r3, lsl #1
    6830:	4610      	mov	r0, r2
    6832:	4619      	mov	r1, r3
    6834:	b005      	add	sp, #20
    6836:	e8bd 8ff0 	ldmia.w	sp!, {r4, r5, r6, r7, r8, r9, sl, fp, pc}
    683a:	fab3 f483 	clz	r4, r3
    683e:	2c00      	cmp	r4, #0
    6840:	f040 80b3 	bne.w	69aa <__divdi3+0x24a>
    6844:	428b      	cmp	r3, r1
    6846:	f04f 0901 	mov.w	r9, #1
    684a:	bf2c      	ite	cs
    684c:	f04f 0c00 	movcs.w	ip, #0
    6850:	f04f 0c01 	movcc.w	ip, #1
    6854:	4282      	cmp	r2, r0
    6856:	bf8c      	ite	hi
    6858:	4667      	movhi	r7, ip
    685a:	f04c 0701 	orrls.w	r7, ip, #1
    685e:	2f00      	cmp	r7, #0
    6860:	d1e0      	bne.n	6824 <__divdi3+0xc4>
    6862:	463c      	mov	r4, r7
    6864:	46b9      	mov	r9, r7
    6866:	e7dd      	b.n	6824 <__divdi3+0xc4>
    6868:	b922      	cbnz	r2, 6874 <__divdi3+0x114>
    686a:	2001      	movs	r0, #1
    686c:	4611      	mov	r1, r2
    686e:	f000 faab 	bl	6dc8 <__aeabi_uidiv>
    6872:	4604      	mov	r4, r0
    6874:	fab4 f384 	clz	r3, r4
    6878:	2b00      	cmp	r3, #0
    687a:	d149      	bne.n	6910 <__divdi3+0x1b0>
    687c:	ebc4 0808 	rsb	r8, r4, r8
    6880:	0c27      	lsrs	r7, r4, #16
    6882:	fa1f fa84 	uxth.w	sl, r4
    6886:	2101      	movs	r1, #1
    6888:	9102      	str	r1, [sp, #8]
    688a:	4639      	mov	r1, r7
    688c:	4640      	mov	r0, r8
    688e:	f000 fa9b 	bl	6dc8 <__aeabi_uidiv>
    6892:	4639      	mov	r1, r7
    6894:	4681      	mov	r9, r0
    6896:	4640      	mov	r0, r8
    6898:	f000 fbc4 	bl	7024 <__aeabi_uidivmod>
    689c:	0c2a      	lsrs	r2, r5, #16
    689e:	fb0a f309 	mul.w	r3, sl, r9
    68a2:	ea42 4b01 	orr.w	fp, r2, r1, lsl #16
    68a6:	455b      	cmp	r3, fp
    68a8:	d909      	bls.n	68be <__divdi3+0x15e>
    68aa:	eb1b 0b04 	adds.w	fp, fp, r4
    68ae:	f109 39ff 	add.w	r9, r9, #4294967295
    68b2:	d204      	bcs.n	68be <__divdi3+0x15e>
    68b4:	455b      	cmp	r3, fp
    68b6:	bf84      	itt	hi
    68b8:	f109 39ff 	addhi.w	r9, r9, #4294967295
    68bc:	44a3      	addhi	fp, r4
    68be:	ebc3 0b0b 	rsb	fp, r3, fp
    68c2:	4639      	mov	r1, r7
    68c4:	4658      	mov	r0, fp
    68c6:	b2ad      	uxth	r5, r5
    68c8:	f000 fa7e 	bl	6dc8 <__aeabi_uidiv>
    68cc:	4639      	mov	r1, r7
    68ce:	4680      	mov	r8, r0
    68d0:	4658      	mov	r0, fp
    68d2:	f000 fba7 	bl	7024 <__aeabi_uidivmod>
    68d6:	fb0a fa08 	mul.w	sl, sl, r8
    68da:	ea45 4501 	orr.w	r5, r5, r1, lsl #16
    68de:	45aa      	cmp	sl, r5
    68e0:	d907      	bls.n	68f2 <__divdi3+0x192>
    68e2:	192d      	adds	r5, r5, r4
    68e4:	f108 38ff 	add.w	r8, r8, #4294967295
    68e8:	d203      	bcs.n	68f2 <__divdi3+0x192>
    68ea:	45aa      	cmp	sl, r5
    68ec:	bf88      	it	hi
    68ee:	f108 38ff 	addhi.w	r8, r8, #4294967295
    68f2:	ea48 4909 	orr.w	r9, r8, r9, lsl #16
    68f6:	9c02      	ldr	r4, [sp, #8]
    68f8:	e794      	b.n	6824 <__divdi3+0xc4>
    68fa:	43f6      	mvns	r6, r6
    68fc:	4252      	negs	r2, r2
    68fe:	eb63 0343 	sbc.w	r3, r3, r3, lsl #1
    6902:	e738      	b.n	6776 <__divdi3+0x16>
    6904:	4240      	negs	r0, r0
    6906:	eb61 0141 	sbc.w	r1, r1, r1, lsl #1
    690a:	f04f 36ff 	mov.w	r6, #4294967295
    690e:	e72f      	b.n	6770 <__divdi3+0x10>
    6910:	409c      	lsls	r4, r3
    6912:	f1c3 0720 	rsb	r7, r3, #32
    6916:	fa28 fa07 	lsr.w	sl, r8, r7
    691a:	fa35 f207 	lsrs.w	r2, r5, r7
    691e:	0c27      	lsrs	r7, r4, #16
    6920:	fa08 fb03 	lsl.w	fp, r8, r3
    6924:	4639      	mov	r1, r7
    6926:	4650      	mov	r0, sl
    6928:	ea42 020b 	orr.w	r2, r2, fp
    692c:	409d      	lsls	r5, r3
    692e:	9202      	str	r2, [sp, #8]
    6930:	f000 fa4a 	bl	6dc8 <__aeabi_uidiv>
    6934:	4639      	mov	r1, r7
    6936:	4683      	mov	fp, r0
    6938:	4650      	mov	r0, sl
    693a:	f000 fb73 	bl	7024 <__aeabi_uidivmod>
    693e:	9b02      	ldr	r3, [sp, #8]
    6940:	fa1f fa84 	uxth.w	sl, r4
    6944:	ea4f 4913 	mov.w	r9, r3, lsr #16
    6948:	fb0a f30b 	mul.w	r3, sl, fp
    694c:	ea49 4801 	orr.w	r8, r9, r1, lsl #16
    6950:	4543      	cmp	r3, r8
    6952:	d905      	bls.n	6960 <__divdi3+0x200>
    6954:	eb18 0804 	adds.w	r8, r8, r4
    6958:	f10b 3bff 	add.w	fp, fp, #4294967295
    695c:	f0c0 80aa 	bcc.w	6ab4 <__divdi3+0x354>
    6960:	ebc3 0808 	rsb	r8, r3, r8
    6964:	4639      	mov	r1, r7
    6966:	4640      	mov	r0, r8
    6968:	f000 fa2e 	bl	6dc8 <__aeabi_uidiv>
    696c:	4639      	mov	r1, r7
    696e:	4681      	mov	r9, r0
    6970:	4640      	mov	r0, r8
    6972:	f000 fb57 	bl	7024 <__aeabi_uidivmod>
    6976:	9802      	ldr	r0, [sp, #8]
    6978:	fb0a f309 	mul.w	r3, sl, r9
    697c:	fa1f fc80 	uxth.w	ip, r0
    6980:	ea4c 4801 	orr.w	r8, ip, r1, lsl #16
    6984:	4543      	cmp	r3, r8
    6986:	d909      	bls.n	699c <__divdi3+0x23c>
    6988:	eb18 0804 	adds.w	r8, r8, r4
    698c:	f109 39ff 	add.w	r9, r9, #4294967295
    6990:	d204      	bcs.n	699c <__divdi3+0x23c>
    6992:	4543      	cmp	r3, r8
    6994:	bf84      	itt	hi
    6996:	f109 39ff 	addhi.w	r9, r9, #4294967295
    699a:	44a0      	addhi	r8, r4
    699c:	ea49 4e0b 	orr.w	lr, r9, fp, lsl #16
    69a0:	ebc3 0808 	rsb	r8, r3, r8
    69a4:	f8cd e008 	str.w	lr, [sp, #8]
    69a8:	e76f      	b.n	688a <__divdi3+0x12a>
    69aa:	f1c4 0320 	rsb	r3, r4, #32
    69ae:	fa0a fa04 	lsl.w	sl, sl, r4
    69b2:	40da      	lsrs	r2, r3
    69b4:	fa21 f803 	lsr.w	r8, r1, r3
    69b8:	ea42 0a0a 	orr.w	sl, r2, sl
    69bc:	fa01 f904 	lsl.w	r9, r1, r4
    69c0:	fa30 f203 	lsrs.w	r2, r0, r3
    69c4:	4640      	mov	r0, r8
    69c6:	ea4f 4b1a 	mov.w	fp, sl, lsr #16
    69ca:	ea42 0109 	orr.w	r1, r2, r9
    69ce:	9103      	str	r1, [sp, #12]
    69d0:	4659      	mov	r1, fp
    69d2:	fa17 f304 	lsls.w	r3, r7, r4
    69d6:	9302      	str	r3, [sp, #8]
    69d8:	f000 f9f6 	bl	6dc8 <__aeabi_uidiv>
    69dc:	4659      	mov	r1, fp
    69de:	4681      	mov	r9, r0
    69e0:	4640      	mov	r0, r8
    69e2:	f000 fb1f 	bl	7024 <__aeabi_uidivmod>
    69e6:	fa1f f38a 	uxth.w	r3, sl
    69ea:	9803      	ldr	r0, [sp, #12]
    69ec:	fb03 f209 	mul.w	r2, r3, r9
    69f0:	0c07      	lsrs	r7, r0, #16
    69f2:	ea47 4801 	orr.w	r8, r7, r1, lsl #16
    69f6:	4542      	cmp	r2, r8
    69f8:	d904      	bls.n	6a04 <__divdi3+0x2a4>
    69fa:	eb18 080a 	adds.w	r8, r8, sl
    69fe:	f109 39ff 	add.w	r9, r9, #4294967295
    6a02:	d351      	bcc.n	6aa8 <__divdi3+0x348>
    6a04:	ebc2 0808 	rsb	r8, r2, r8
    6a08:	4659      	mov	r1, fp
    6a0a:	4640      	mov	r0, r8
    6a0c:	9301      	str	r3, [sp, #4]
    6a0e:	f000 f9db 	bl	6dc8 <__aeabi_uidiv>
    6a12:	4659      	mov	r1, fp
    6a14:	4607      	mov	r7, r0
    6a16:	4640      	mov	r0, r8
    6a18:	f000 fb04 	bl	7024 <__aeabi_uidivmod>
    6a1c:	9b01      	ldr	r3, [sp, #4]
    6a1e:	9803      	ldr	r0, [sp, #12]
    6a20:	fb03 f307 	mul.w	r3, r3, r7
    6a24:	fa1f fc80 	uxth.w	ip, r0
    6a28:	ea4c 4c01 	orr.w	ip, ip, r1, lsl #16
    6a2c:	4563      	cmp	r3, ip
    6a2e:	d907      	bls.n	6a40 <__divdi3+0x2e0>
    6a30:	3f01      	subs	r7, #1
    6a32:	eb1c 0c0a 	adds.w	ip, ip, sl
    6a36:	d203      	bcs.n	6a40 <__divdi3+0x2e0>
    6a38:	4563      	cmp	r3, ip
    6a3a:	d901      	bls.n	6a40 <__divdi3+0x2e0>
    6a3c:	3f01      	subs	r7, #1
    6a3e:	44d4      	add	ip, sl
    6a40:	ea47 4909 	orr.w	r9, r7, r9, lsl #16
    6a44:	9f02      	ldr	r7, [sp, #8]
    6a46:	ebc3 0c0c 	rsb	ip, r3, ip
    6a4a:	fa1f fe89 	uxth.w	lr, r9
    6a4e:	ea4f 4319 	mov.w	r3, r9, lsr #16
    6a52:	b2b8      	uxth	r0, r7
    6a54:	0c3f      	lsrs	r7, r7, #16
    6a56:	fb00 f80e 	mul.w	r8, r0, lr
    6a5a:	fb00 f103 	mul.w	r1, r0, r3
    6a5e:	fb07 120e 	mla	r2, r7, lr, r1
    6a62:	fb07 f003 	mul.w	r0, r7, r3
    6a66:	eb02 4218 	add.w	r2, r2, r8, lsr #16
    6a6a:	4291      	cmp	r1, r2
    6a6c:	bf88      	it	hi
    6a6e:	f500 3080 	addhi.w	r0, r0, #65536	; 0x10000
    6a72:	eb00 4e12 	add.w	lr, r0, r2, lsr #16
    6a76:	45f4      	cmp	ip, lr
    6a78:	d312      	bcc.n	6aa0 <__divdi3+0x340>
    6a7a:	ea4f 4202 	mov.w	r2, r2, lsl #16
    6a7e:	fa1f f888 	uxth.w	r8, r8
    6a82:	bf14      	ite	ne
    6a84:	2100      	movne	r1, #0
    6a86:	2101      	moveq	r1, #1
    6a88:	eb02 0c08 	add.w	ip, r2, r8
    6a8c:	fa15 f404 	lsls.w	r4, r5, r4
    6a90:	4564      	cmp	r4, ip
    6a92:	bf2c      	ite	cs
    6a94:	2400      	movcs	r4, #0
    6a96:	f001 0401 	andcc.w	r4, r1, #1
    6a9a:	2c00      	cmp	r4, #0
    6a9c:	f43f aec2 	beq.w	6824 <__divdi3+0xc4>
    6aa0:	f109 39ff 	add.w	r9, r9, #4294967295
    6aa4:	2400      	movs	r4, #0
    6aa6:	e6bd      	b.n	6824 <__divdi3+0xc4>
    6aa8:	4542      	cmp	r2, r8
    6aaa:	bf84      	itt	hi
    6aac:	f109 39ff 	addhi.w	r9, r9, #4294967295
    6ab0:	44d0      	addhi	r8, sl
    6ab2:	e7a7      	b.n	6a04 <__divdi3+0x2a4>
    6ab4:	4543      	cmp	r3, r8
    6ab6:	bf84      	itt	hi
    6ab8:	f10b 3bff 	addhi.w	fp, fp, #4294967295
    6abc:	44a0      	addhi	r8, r4
    6abe:	e74f      	b.n	6960 <__divdi3+0x200>

00006ac0 <__udivdi3>:
    6ac0:	e92d 4ff0 	stmdb	sp!, {r4, r5, r6, r7, r8, r9, sl, fp, lr}
    6ac4:	4605      	mov	r5, r0
    6ac6:	b083      	sub	sp, #12
    6ac8:	460c      	mov	r4, r1
    6aca:	4617      	mov	r7, r2
    6acc:	4680      	mov	r8, r0
    6ace:	460e      	mov	r6, r1
    6ad0:	2b00      	cmp	r3, #0
    6ad2:	d14d      	bne.n	6b70 <__udivdi3+0xb0>
    6ad4:	428a      	cmp	r2, r1
    6ad6:	d961      	bls.n	6b9c <__udivdi3+0xdc>
    6ad8:	fab2 f382 	clz	r3, r2
    6adc:	b153      	cbz	r3, 6af4 <__udivdi3+0x34>
    6ade:	f1c3 0420 	rsb	r4, r3, #32
    6ae2:	fa11 f603 	lsls.w	r6, r1, r3
    6ae6:	fa30 f204 	lsrs.w	r2, r0, r4
    6aea:	409f      	lsls	r7, r3
    6aec:	ea42 0606 	orr.w	r6, r2, r6
    6af0:	fa00 f803 	lsl.w	r8, r0, r3
    6af4:	0c3c      	lsrs	r4, r7, #16
    6af6:	4630      	mov	r0, r6
    6af8:	4621      	mov	r1, r4
    6afa:	fa1f fa87 	uxth.w	sl, r7
    6afe:	f000 f963 	bl	6dc8 <__aeabi_uidiv>
    6b02:	4621      	mov	r1, r4
    6b04:	4681      	mov	r9, r0
    6b06:	4630      	mov	r0, r6
    6b08:	f000 fa8c 	bl	7024 <__aeabi_uidivmod>
    6b0c:	ea4f 4018 	mov.w	r0, r8, lsr #16
    6b10:	fb0a f309 	mul.w	r3, sl, r9
    6b14:	ea40 4601 	orr.w	r6, r0, r1, lsl #16
    6b18:	42b3      	cmp	r3, r6
    6b1a:	d908      	bls.n	6b2e <__udivdi3+0x6e>
    6b1c:	19f6      	adds	r6, r6, r7
    6b1e:	f109 39ff 	add.w	r9, r9, #4294967295
    6b22:	d204      	bcs.n	6b2e <__udivdi3+0x6e>
    6b24:	42b3      	cmp	r3, r6
    6b26:	bf84      	itt	hi
    6b28:	f109 39ff 	addhi.w	r9, r9, #4294967295
    6b2c:	19f6      	addhi	r6, r6, r7
    6b2e:	1af6      	subs	r6, r6, r3
    6b30:	4621      	mov	r1, r4
    6b32:	4630      	mov	r0, r6
    6b34:	fa1f f888 	uxth.w	r8, r8
    6b38:	f000 f946 	bl	6dc8 <__aeabi_uidiv>
    6b3c:	4621      	mov	r1, r4
    6b3e:	4605      	mov	r5, r0
    6b40:	4630      	mov	r0, r6
    6b42:	f000 fa6f 	bl	7024 <__aeabi_uidivmod>
    6b46:	fb0a fa05 	mul.w	sl, sl, r5
    6b4a:	ea48 4801 	orr.w	r8, r8, r1, lsl #16
    6b4e:	45c2      	cmp	sl, r8
    6b50:	d906      	bls.n	6b60 <__udivdi3+0xa0>
    6b52:	3d01      	subs	r5, #1
    6b54:	eb18 0807 	adds.w	r8, r8, r7
    6b58:	d202      	bcs.n	6b60 <__udivdi3+0xa0>
    6b5a:	45c2      	cmp	sl, r8
    6b5c:	bf88      	it	hi
    6b5e:	3d01      	subhi	r5, #1
    6b60:	ea45 4a09 	orr.w	sl, r5, r9, lsl #16
    6b64:	2600      	movs	r6, #0
    6b66:	4631      	mov	r1, r6
    6b68:	4650      	mov	r0, sl
    6b6a:	b003      	add	sp, #12
    6b6c:	e8bd 8ff0 	ldmia.w	sp!, {r4, r5, r6, r7, r8, r9, sl, fp, pc}
    6b70:	428b      	cmp	r3, r1
    6b72:	d85b      	bhi.n	6c2c <__udivdi3+0x16c>
    6b74:	fab3 f683 	clz	r6, r3
    6b78:	2e00      	cmp	r6, #0
    6b7a:	d15a      	bne.n	6c32 <__udivdi3+0x172>
    6b7c:	428b      	cmp	r3, r1
    6b7e:	f04f 0a01 	mov.w	sl, #1
    6b82:	bf2c      	ite	cs
    6b84:	2400      	movcs	r4, #0
    6b86:	2401      	movcc	r4, #1
    6b88:	4282      	cmp	r2, r0
    6b8a:	bf8c      	ite	hi
    6b8c:	4625      	movhi	r5, r4
    6b8e:	f044 0501 	orrls.w	r5, r4, #1
    6b92:	2d00      	cmp	r5, #0
    6b94:	d1e7      	bne.n	6b66 <__udivdi3+0xa6>
    6b96:	462e      	mov	r6, r5
    6b98:	46aa      	mov	sl, r5
    6b9a:	e7e4      	b.n	6b66 <__udivdi3+0xa6>
    6b9c:	b922      	cbnz	r2, 6ba8 <__udivdi3+0xe8>
    6b9e:	2001      	movs	r0, #1
    6ba0:	4611      	mov	r1, r2
    6ba2:	f000 f911 	bl	6dc8 <__aeabi_uidiv>
    6ba6:	4607      	mov	r7, r0
    6ba8:	fab7 f387 	clz	r3, r7
    6bac:	2b00      	cmp	r3, #0
    6bae:	f040 80b6 	bne.w	6d1e <__udivdi3+0x25e>
    6bb2:	1be4      	subs	r4, r4, r7
    6bb4:	ea4f 4b17 	mov.w	fp, r7, lsr #16
    6bb8:	b2bd      	uxth	r5, r7
    6bba:	2601      	movs	r6, #1
    6bbc:	4659      	mov	r1, fp
    6bbe:	4620      	mov	r0, r4
    6bc0:	f000 f902 	bl	6dc8 <__aeabi_uidiv>
    6bc4:	4659      	mov	r1, fp
    6bc6:	ea4f 4918 	mov.w	r9, r8, lsr #16
    6bca:	4682      	mov	sl, r0
    6bcc:	4620      	mov	r0, r4
    6bce:	f000 fa29 	bl	7024 <__aeabi_uidivmod>
    6bd2:	fb05 f30a 	mul.w	r3, r5, sl
    6bd6:	ea49 4401 	orr.w	r4, r9, r1, lsl #16
    6bda:	42a3      	cmp	r3, r4
    6bdc:	d908      	bls.n	6bf0 <__udivdi3+0x130>
    6bde:	19e4      	adds	r4, r4, r7
    6be0:	f10a 3aff 	add.w	sl, sl, #4294967295
    6be4:	d204      	bcs.n	6bf0 <__udivdi3+0x130>
    6be6:	42a3      	cmp	r3, r4
    6be8:	bf84      	itt	hi
    6bea:	f10a 3aff 	addhi.w	sl, sl, #4294967295
    6bee:	19e4      	addhi	r4, r4, r7
    6bf0:	1ae4      	subs	r4, r4, r3
    6bf2:	4659      	mov	r1, fp
    6bf4:	4620      	mov	r0, r4
    6bf6:	f000 f8e7 	bl	6dc8 <__aeabi_uidiv>
    6bfa:	4659      	mov	r1, fp
    6bfc:	4681      	mov	r9, r0
    6bfe:	4620      	mov	r0, r4
    6c00:	f000 fa10 	bl	7024 <__aeabi_uidivmod>
    6c04:	fa1f f388 	uxth.w	r3, r8
    6c08:	fb05 f509 	mul.w	r5, r5, r9
    6c0c:	ea43 4801 	orr.w	r8, r3, r1, lsl #16
    6c10:	4545      	cmp	r5, r8
    6c12:	d908      	bls.n	6c26 <__udivdi3+0x166>
    6c14:	eb18 0807 	adds.w	r8, r8, r7
    6c18:	f109 39ff 	add.w	r9, r9, #4294967295
    6c1c:	d203      	bcs.n	6c26 <__udivdi3+0x166>
    6c1e:	4545      	cmp	r5, r8
    6c20:	bf88      	it	hi
    6c22:	f109 39ff 	addhi.w	r9, r9, #4294967295
    6c26:	ea49 4a0a 	orr.w	sl, r9, sl, lsl #16
    6c2a:	e79c      	b.n	6b66 <__udivdi3+0xa6>
    6c2c:	2600      	movs	r6, #0
    6c2e:	46b2      	mov	sl, r6
    6c30:	e799      	b.n	6b66 <__udivdi3+0xa6>
    6c32:	f1c6 0120 	rsb	r1, r6, #32
    6c36:	40b3      	lsls	r3, r6
    6c38:	fa32 f701 	lsrs.w	r7, r2, r1
    6c3c:	fa24 f901 	lsr.w	r9, r4, r1
    6c40:	431f      	orrs	r7, r3
    6c42:	40b4      	lsls	r4, r6
    6c44:	fa30 f301 	lsrs.w	r3, r0, r1
    6c48:	4648      	mov	r0, r9
    6c4a:	ea4f 4817 	mov.w	r8, r7, lsr #16
    6c4e:	ea43 0104 	orr.w	r1, r3, r4
    6c52:	9101      	str	r1, [sp, #4]
    6c54:	4641      	mov	r1, r8
    6c56:	40b2      	lsls	r2, r6
    6c58:	9200      	str	r2, [sp, #0]
    6c5a:	f000 f8b5 	bl	6dc8 <__aeabi_uidiv>
    6c5e:	4641      	mov	r1, r8
    6c60:	b2bc      	uxth	r4, r7
    6c62:	4682      	mov	sl, r0
    6c64:	4648      	mov	r0, r9
    6c66:	f000 f9dd 	bl	7024 <__aeabi_uidivmod>
    6c6a:	9801      	ldr	r0, [sp, #4]
    6c6c:	fb04 f30a 	mul.w	r3, r4, sl
    6c70:	ea4f 4b10 	mov.w	fp, r0, lsr #16
    6c74:	ea4b 4b01 	orr.w	fp, fp, r1, lsl #16
    6c78:	455b      	cmp	r3, fp
    6c7a:	d905      	bls.n	6c88 <__udivdi3+0x1c8>
    6c7c:	eb1b 0b07 	adds.w	fp, fp, r7
    6c80:	f10a 3aff 	add.w	sl, sl, #4294967295
    6c84:	f0c0 8093 	bcc.w	6dae <__udivdi3+0x2ee>
    6c88:	ebc3 0b0b 	rsb	fp, r3, fp
    6c8c:	4641      	mov	r1, r8
    6c8e:	4658      	mov	r0, fp
    6c90:	f000 f89a 	bl	6dc8 <__aeabi_uidiv>
    6c94:	4641      	mov	r1, r8
    6c96:	4681      	mov	r9, r0
    6c98:	4658      	mov	r0, fp
    6c9a:	f000 f9c3 	bl	7024 <__aeabi_uidivmod>
    6c9e:	9801      	ldr	r0, [sp, #4]
    6ca0:	fb04 f409 	mul.w	r4, r4, r9
    6ca4:	fa1f fc80 	uxth.w	ip, r0
    6ca8:	ea4c 4301 	orr.w	r3, ip, r1, lsl #16
    6cac:	429c      	cmp	r4, r3
    6cae:	d903      	bls.n	6cb8 <__udivdi3+0x1f8>
    6cb0:	19db      	adds	r3, r3, r7
    6cb2:	f109 39ff 	add.w	r9, r9, #4294967295
    6cb6:	d374      	bcc.n	6da2 <__udivdi3+0x2e2>
    6cb8:	9f00      	ldr	r7, [sp, #0]
    6cba:	ea49 4a0a 	orr.w	sl, r9, sl, lsl #16
    6cbe:	1b1c      	subs	r4, r3, r4
    6cc0:	fa1f fe8a 	uxth.w	lr, sl
    6cc4:	b2b8      	uxth	r0, r7
    6cc6:	0c3a      	lsrs	r2, r7, #16
    6cc8:	ea4f 471a 	mov.w	r7, sl, lsr #16
    6ccc:	fb00 fc0e 	mul.w	ip, r0, lr
    6cd0:	fb00 f307 	mul.w	r3, r0, r7
    6cd4:	fb02 310e 	mla	r1, r2, lr, r3
    6cd8:	fb02 f207 	mul.w	r2, r2, r7
    6cdc:	eb01 411c 	add.w	r1, r1, ip, lsr #16
    6ce0:	428b      	cmp	r3, r1
    6ce2:	bf88      	it	hi
    6ce4:	f502 3280 	addhi.w	r2, r2, #65536	; 0x10000
    6ce8:	eb02 4e11 	add.w	lr, r2, r1, lsr #16
    6cec:	4574      	cmp	r4, lr
    6cee:	d312      	bcc.n	6d16 <__udivdi3+0x256>
    6cf0:	ea4f 4101 	mov.w	r1, r1, lsl #16
    6cf4:	fa1f f28c 	uxth.w	r2, ip
    6cf8:	bf14      	ite	ne
    6cfa:	2300      	movne	r3, #0
    6cfc:	2301      	moveq	r3, #1
    6cfe:	eb01 0c02 	add.w	ip, r1, r2
    6d02:	fa15 f606 	lsls.w	r6, r5, r6
    6d06:	4566      	cmp	r6, ip
    6d08:	bf2c      	ite	cs
    6d0a:	2600      	movcs	r6, #0
    6d0c:	f003 0601 	andcc.w	r6, r3, #1
    6d10:	2e00      	cmp	r6, #0
    6d12:	f43f af28 	beq.w	6b66 <__udivdi3+0xa6>
    6d16:	f10a 3aff 	add.w	sl, sl, #4294967295
    6d1a:	2600      	movs	r6, #0
    6d1c:	e723      	b.n	6b66 <__udivdi3+0xa6>
    6d1e:	409f      	lsls	r7, r3
    6d20:	f1c3 0120 	rsb	r1, r3, #32
    6d24:	fa34 f601 	lsrs.w	r6, r4, r1
    6d28:	fa14 f203 	lsls.w	r2, r4, r3
    6d2c:	ea4f 4b17 	mov.w	fp, r7, lsr #16
    6d30:	fa25 fa01 	lsr.w	sl, r5, r1
    6d34:	4630      	mov	r0, r6
    6d36:	4659      	mov	r1, fp
    6d38:	fa05 f803 	lsl.w	r8, r5, r3
    6d3c:	ea4a 0a02 	orr.w	sl, sl, r2
    6d40:	f000 f842 	bl	6dc8 <__aeabi_uidiv>
    6d44:	4659      	mov	r1, fp
    6d46:	b2bd      	uxth	r5, r7
    6d48:	4681      	mov	r9, r0
    6d4a:	4630      	mov	r0, r6
    6d4c:	f000 f96a 	bl	7024 <__aeabi_uidivmod>
    6d50:	ea4f 4c1a 	mov.w	ip, sl, lsr #16
    6d54:	fb05 f309 	mul.w	r3, r5, r9
    6d58:	ea4c 4401 	orr.w	r4, ip, r1, lsl #16
    6d5c:	42a3      	cmp	r3, r4
    6d5e:	d903      	bls.n	6d68 <__udivdi3+0x2a8>
    6d60:	19e4      	adds	r4, r4, r7
    6d62:	f109 39ff 	add.w	r9, r9, #4294967295
    6d66:	d328      	bcc.n	6dba <__udivdi3+0x2fa>
    6d68:	1ae4      	subs	r4, r4, r3
    6d6a:	4659      	mov	r1, fp
    6d6c:	4620      	mov	r0, r4
    6d6e:	f000 f82b 	bl	6dc8 <__aeabi_uidiv>
    6d72:	4659      	mov	r1, fp
    6d74:	4606      	mov	r6, r0
    6d76:	4620      	mov	r0, r4
    6d78:	f000 f954 	bl	7024 <__aeabi_uidivmod>
    6d7c:	fa1f f48a 	uxth.w	r4, sl
    6d80:	fb05 f306 	mul.w	r3, r5, r6
    6d84:	ea44 4401 	orr.w	r4, r4, r1, lsl #16
    6d88:	42a3      	cmp	r3, r4
    6d8a:	d906      	bls.n	6d9a <__udivdi3+0x2da>
    6d8c:	3e01      	subs	r6, #1
    6d8e:	19e4      	adds	r4, r4, r7
    6d90:	d203      	bcs.n	6d9a <__udivdi3+0x2da>
    6d92:	42a3      	cmp	r3, r4
    6d94:	d901      	bls.n	6d9a <__udivdi3+0x2da>
    6d96:	3e01      	subs	r6, #1
    6d98:	19e4      	adds	r4, r4, r7
    6d9a:	1ae4      	subs	r4, r4, r3
    6d9c:	ea46 4609 	orr.w	r6, r6, r9, lsl #16
    6da0:	e70c      	b.n	6bbc <__udivdi3+0xfc>
    6da2:	429c      	cmp	r4, r3
    6da4:	bf84      	itt	hi
    6da6:	f109 39ff 	addhi.w	r9, r9, #4294967295
    6daa:	19db      	addhi	r3, r3, r7
    6dac:	e784      	b.n	6cb8 <__udivdi3+0x1f8>
    6dae:	455b      	cmp	r3, fp
    6db0:	bf84      	itt	hi
    6db2:	f10a 3aff 	addhi.w	sl, sl, #4294967295
    6db6:	44bb      	addhi	fp, r7
    6db8:	e766      	b.n	6c88 <__udivdi3+0x1c8>
    6dba:	42a3      	cmp	r3, r4
    6dbc:	bf84      	itt	hi
    6dbe:	f109 39ff 	addhi.w	r9, r9, #4294967295
    6dc2:	19e4      	addhi	r4, r4, r7
    6dc4:	e7d0      	b.n	6d68 <__udivdi3+0x2a8>
    6dc6:	bf00      	nop

00006dc8 <__aeabi_uidiv>:
    6dc8:	1e4a      	subs	r2, r1, #1
    6dca:	bf08      	it	eq
    6dcc:	4770      	bxeq	lr
    6dce:	f0c0 8124 	bcc.w	701a <__aeabi_uidiv+0x252>
    6dd2:	4288      	cmp	r0, r1
    6dd4:	f240 8116 	bls.w	7004 <__aeabi_uidiv+0x23c>
    6dd8:	4211      	tst	r1, r2
    6dda:	f000 8117 	beq.w	700c <__aeabi_uidiv+0x244>
    6dde:	fab0 f380 	clz	r3, r0
    6de2:	fab1 f281 	clz	r2, r1
    6de6:	eba2 0303 	sub.w	r3, r2, r3
    6dea:	f1c3 031f 	rsb	r3, r3, #31
    6dee:	a204      	add	r2, pc, #16	; (adr r2, 6e00 <__aeabi_uidiv+0x38>)
    6df0:	eb02 1303 	add.w	r3, r2, r3, lsl #4
    6df4:	f04f 0200 	mov.w	r2, #0
    6df8:	469f      	mov	pc, r3
    6dfa:	bf00      	nop
    6dfc:	f3af 8000 	nop.w
    6e00:	ebb0 7fc1 	cmp.w	r0, r1, lsl #31
    6e04:	bf00      	nop
    6e06:	eb42 0202 	adc.w	r2, r2, r2
    6e0a:	bf28      	it	cs
    6e0c:	eba0 70c1 	subcs.w	r0, r0, r1, lsl #31
    6e10:	ebb0 7f81 	cmp.w	r0, r1, lsl #30
    6e14:	bf00      	nop
    6e16:	eb42 0202 	adc.w	r2, r2, r2
    6e1a:	bf28      	it	cs
    6e1c:	eba0 7081 	subcs.w	r0, r0, r1, lsl #30
    6e20:	ebb0 7f41 	cmp.w	r0, r1, lsl #29
    6e24:	bf00      	nop
    6e26:	eb42 0202 	adc.w	r2, r2, r2
    6e2a:	bf28      	it	cs
    6e2c:	eba0 7041 	subcs.w	r0, r0, r1, lsl #29
    6e30:	ebb0 7f01 	cmp.w	r0, r1, lsl #28
    6e34:	bf00      	nop
    6e36:	eb42 0202 	adc.w	r2, r2, r2
    6e3a:	bf28      	it	cs
    6e3c:	eba0 7001 	subcs.w	r0, r0, r1, lsl #28
    6e40:	ebb0 6fc1 	cmp.w	r0, r1, lsl #27
    6e44:	bf00      	nop
    6e46:	eb42 0202 	adc.w	r2, r2, r2
    6e4a:	bf28      	it	cs
    6e4c:	eba0 60c1 	subcs.w	r0, r0, r1, lsl #27
    6e50:	ebb0 6f81 	cmp.w	r0, r1, lsl #26
    6e54:	bf00      	nop
    6e56:	eb42 0202 	adc.w	r2, r2, r2
    6e5a:	bf28      	it	cs
    6e5c:	eba0 6081 	subcs.w	r0, r0, r1, lsl #26
    6e60:	ebb0 6f41 	cmp.w	r0, r1, lsl #25
    6e64:	bf00      	nop
    6e66:	eb42 0202 	adc.w	r2, r2, r2
    6e6a:	bf28      	it	cs
    6e6c:	eba0 6041 	subcs.w	r0, r0, r1, lsl #25
    6e70:	ebb0 6f01 	cmp.w	r0, r1, lsl #24
    6e74:	bf00      	nop
    6e76:	eb42 0202 	adc.w	r2, r2, r2
    6e7a:	bf28      	it	cs
    6e7c:	eba0 6001 	subcs.w	r0, r0, r1, lsl #24
    6e80:	ebb0 5fc1 	cmp.w	r0, r1, lsl #23
    6e84:	bf00      	nop
    6e86:	eb42 0202 	adc.w	r2, r2, r2
    6e8a:	bf28      	it	cs
    6e8c:	eba0 50c1 	subcs.w	r0, r0, r1, lsl #23
    6e90:	ebb0 5f81 	cmp.w	r0, r1, lsl #22
    6e94:	bf00      	nop
    6e96:	eb42 0202 	adc.w	r2, r2, r2
    6e9a:	bf28      	it	cs
    6e9c:	eba0 5081 	subcs.w	r0, r0, r1, lsl #22
    6ea0:	ebb0 5f41 	cmp.w	r0, r1, lsl #21
    6ea4:	bf00      	nop
    6ea6:	eb42 0202 	adc.w	r2, r2, r2
    6eaa:	bf28      	it	cs
    6eac:	eba0 5041 	subcs.w	r0, r0, r1, lsl #21
    6eb0:	ebb0 5f01 	cmp.w	r0, r1, lsl #20
    6eb4:	bf00      	nop
    6eb6:	eb42 0202 	adc.w	r2, r2, r2
    6eba:	bf28      	it	cs
    6ebc:	eba0 5001 	subcs.w	r0, r0, r1, lsl #20
    6ec0:	ebb0 4fc1 	cmp.w	r0, r1, lsl #19
    6ec4:	bf00      	nop
    6ec6:	eb42 0202 	adc.w	r2, r2, r2
    6eca:	bf28      	it	cs
    6ecc:	eba0 40c1 	subcs.w	r0, r0, r1, lsl #19
    6ed0:	ebb0 4f81 	cmp.w	r0, r1, lsl #18
    6ed4:	bf00      	nop
    6ed6:	eb42 0202 	adc.w	r2, r2, r2
    6eda:	bf28      	it	cs
    6edc:	eba0 4081 	subcs.w	r0, r0, r1, lsl #18
    6ee0:	ebb0 4f41 	cmp.w	r0, r1, lsl #17
    6ee4:	bf00      	nop
    6ee6:	eb42 0202 	adc.w	r2, r2, r2
    6eea:	bf28      	it	cs
    6eec:	eba0 4041 	subcs.w	r0, r0, r1, lsl #17
    6ef0:	ebb0 4f01 	cmp.w	r0, r1, lsl #16
    6ef4:	bf00      	nop
    6ef6:	eb42 0202 	adc.w	r2, r2, r2
    6efa:	bf28      	it	cs
    6efc:	eba0 4001 	subcs.w	r0, r0, r1, lsl #16
    6f00:	ebb0 3fc1 	cmp.w	r0, r1, lsl #15
    6f04:	bf00      	nop
    6f06:	eb42 0202 	adc.w	r2, r2, r2
    6f0a:	bf28      	it	cs
    6f0c:	eba0 30c1 	subcs.w	r0, r0, r1, lsl #15
    6f10:	ebb0 3f81 	cmp.w	r0, r1, lsl #14
    6f14:	bf00      	nop
    6f16:	eb42 0202 	adc.w	r2, r2, r2
    6f1a:	bf28      	it	cs
    6f1c:	eba0 3081 	subcs.w	r0, r0, r1, lsl #14
    6f20:	ebb0 3f41 	cmp.w	r0, r1, lsl #13
    6f24:	bf00      	nop
    6f26:	eb42 0202 	adc.w	r2, r2, r2
    6f2a:	bf28      	it	cs
    6f2c:	eba0 3041 	subcs.w	r0, r0, r1, lsl #13
    6f30:	ebb0 3f01 	cmp.w	r0, r1, lsl #12
    6f34:	bf00      	nop
    6f36:	eb42 0202 	adc.w	r2, r2, r2
    6f3a:	bf28      	it	cs
    6f3c:	eba0 3001 	subcs.w	r0, r0, r1, lsl #12
    6f40:	ebb0 2fc1 	cmp.w	r0, r1, lsl #11
    6f44:	bf00      	nop
    6f46:	eb42 0202 	adc.w	r2, r2, r2
    6f4a:	bf28      	it	cs
    6f4c:	eba0 20c1 	subcs.w	r0, r0, r1, lsl #11
    6f50:	ebb0 2f81 	cmp.w	r0, r1, lsl #10
    6f54:	bf00      	nop
    6f56:	eb42 0202 	adc.w	r2, r2, r2
    6f5a:	bf28      	it	cs
    6f5c:	eba0 2081 	subcs.w	r0, r0, r1, lsl #10
    6f60:	ebb0 2f41 	cmp.w	r0, r1, lsl #9
    6f64:	bf00      	nop
    6f66:	eb42 0202 	adc.w	r2, r2, r2
    6f6a:	bf28      	it	cs
    6f6c:	eba0 2041 	subcs.w	r0, r0, r1, lsl #9
    6f70:	ebb0 2f01 	cmp.w	r0, r1, lsl #8
    6f74:	bf00      	nop
    6f76:	eb42 0202 	adc.w	r2, r2, r2
    6f7a:	bf28      	it	cs
    6f7c:	eba0 2001 	subcs.w	r0, r0, r1, lsl #8
    6f80:	ebb0 1fc1 	cmp.w	r0, r1, lsl #7
    6f84:	bf00      	nop
    6f86:	eb42 0202 	adc.w	r2, r2, r2
    6f8a:	bf28      	it	cs
    6f8c:	eba0 10c1 	subcs.w	r0, r0, r1, lsl #7
    6f90:	ebb0 1f81 	cmp.w	r0, r1, lsl #6
    6f94:	bf00      	nop
    6f96:	eb42 0202 	adc.w	r2, r2, r2
    6f9a:	bf28      	it	cs
    6f9c:	eba0 1081 	subcs.w	r0, r0, r1, lsl #6
    6fa0:	ebb0 1f41 	cmp.w	r0, r1, lsl #5
    6fa4:	bf00      	nop
    6fa6:	eb42 0202 	adc.w	r2, r2, r2
    6faa:	bf28      	it	cs
    6fac:	eba0 1041 	subcs.w	r0, r0, r1, lsl #5
    6fb0:	ebb0 1f01 	cmp.w	r0, r1, lsl #4
    6fb4:	bf00      	nop
    6fb6:	eb42 0202 	adc.w	r2, r2, r2
    6fba:	bf28      	it	cs
    6fbc:	eba0 1001 	subcs.w	r0, r0, r1, lsl #4
    6fc0:	ebb0 0fc1 	cmp.w	r0, r1, lsl #3
    6fc4:	bf00      	nop
    6fc6:	eb42 0202 	adc.w	r2, r2, r2
    6fca:	bf28      	it	cs
    6fcc:	eba0 00c1 	subcs.w	r0, r0, r1, lsl #3
    6fd0:	ebb0 0f81 	cmp.w	r0, r1, lsl #2
    6fd4:	bf00      	nop
    6fd6:	eb42 0202 	adc.w	r2, r2, r2
    6fda:	bf28      	it	cs
    6fdc:	eba0 0081 	subcs.w	r0, r0, r1, lsl #2
    6fe0:	ebb0 0f41 	cmp.w	r0, r1, lsl #1
    6fe4:	bf00      	nop
    6fe6:	eb42 0202 	adc.w	r2, r2, r2
    6fea:	bf28      	it	cs
    6fec:	eba0 0041 	subcs.w	r0, r0, r1, lsl #1
    6ff0:	ebb0 0f01 	cmp.w	r0, r1
    6ff4:	bf00      	nop
    6ff6:	eb42 0202 	adc.w	r2, r2, r2
    6ffa:	bf28      	it	cs
    6ffc:	eba0 0001 	subcs.w	r0, r0, r1
    7000:	4610      	mov	r0, r2
    7002:	4770      	bx	lr
    7004:	bf0c      	ite	eq
    7006:	2001      	moveq	r0, #1
    7008:	2000      	movne	r0, #0
    700a:	4770      	bx	lr
    700c:	fab1 f281 	clz	r2, r1
    7010:	f1c2 021f 	rsb	r2, r2, #31
    7014:	fa20 f002 	lsr.w	r0, r0, r2
    7018:	4770      	bx	lr
    701a:	b108      	cbz	r0, 7020 <__aeabi_uidiv+0x258>
    701c:	f04f 30ff 	mov.w	r0, #4294967295
    7020:	f7ff bb9c 	b.w	675c <__aeabi_idiv0>

00007024 <__aeabi_uidivmod>:
    7024:	2900      	cmp	r1, #0
    7026:	d0f8      	beq.n	701a <__aeabi_uidiv+0x252>
    7028:	e92d 4003 	stmdb	sp!, {r0, r1, lr}
    702c:	f7ff fecc 	bl	6dc8 <__aeabi_uidiv>
    7030:	e8bd 4006 	ldmia.w	sp!, {r1, r2, lr}
    7034:	fb02 f300 	mul.w	r3, r2, r0
    7038:	eba1 0103 	sub.w	r1, r1, r3
    703c:	4770      	bx	lr
    703e:	bf00      	nop

00007040 <__errno>:
    7040:	f240 036c 	movw	r3, #108	; 0x6c
    7044:	f2c1 0300 	movt	r3, #4096	; 0x1000
    7048:	6818      	ldr	r0, [r3, #0]
    704a:	4770      	bx	lr

0000704c <memcpy>:
    704c:	2a03      	cmp	r2, #3
    704e:	e92d 01f0 	stmdb	sp!, {r4, r5, r6, r7, r8}
    7052:	d809      	bhi.n	7068 <memcpy+0x1c>
    7054:	b12a      	cbz	r2, 7062 <memcpy+0x16>
    7056:	2300      	movs	r3, #0
    7058:	5ccc      	ldrb	r4, [r1, r3]
    705a:	54c4      	strb	r4, [r0, r3]
    705c:	3301      	adds	r3, #1
    705e:	4293      	cmp	r3, r2
    7060:	d1fa      	bne.n	7058 <memcpy+0xc>
    7062:	e8bd 01f0 	ldmia.w	sp!, {r4, r5, r6, r7, r8}
    7066:	4770      	bx	lr
    7068:	460b      	mov	r3, r1
    706a:	1882      	adds	r2, r0, r2
    706c:	4601      	mov	r1, r0
    706e:	e003      	b.n	7078 <memcpy+0x2c>
    7070:	7824      	ldrb	r4, [r4, #0]
    7072:	3301      	adds	r3, #1
    7074:	f801 4b01 	strb.w	r4, [r1], #1
    7078:	f011 0f03 	tst.w	r1, #3
    707c:	461c      	mov	r4, r3
    707e:	d1f7      	bne.n	7070 <memcpy+0x24>
    7080:	f013 0503 	ands.w	r5, r3, #3
    7084:	d05d      	beq.n	7142 <memcpy+0xf6>
    7086:	426e      	negs	r6, r5
    7088:	f1c5 0c04 	rsb	ip, r5, #4
    708c:	00ed      	lsls	r5, r5, #3
    708e:	599b      	ldr	r3, [r3, r6]
    7090:	ea4f 0ccc 	mov.w	ip, ip, lsl #3
    7094:	e008      	b.n	70a8 <memcpy+0x5c>
    7096:	3404      	adds	r4, #4
    7098:	59a7      	ldr	r7, [r4, r6]
    709a:	463b      	mov	r3, r7
    709c:	fa07 f70c 	lsl.w	r7, r7, ip
    70a0:	ea48 0707 	orr.w	r7, r8, r7
    70a4:	f841 7b04 	str.w	r7, [r1], #4
    70a8:	1a57      	subs	r7, r2, r1
    70aa:	fa23 f805 	lsr.w	r8, r3, r5
    70ae:	2f03      	cmp	r7, #3
    70b0:	dcf1      	bgt.n	7096 <memcpy+0x4a>
    70b2:	e003      	b.n	70bc <memcpy+0x70>
    70b4:	f814 3b01 	ldrb.w	r3, [r4], #1
    70b8:	f801 3b01 	strb.w	r3, [r1], #1
    70bc:	428a      	cmp	r2, r1
    70be:	d8f9      	bhi.n	70b4 <memcpy+0x68>
    70c0:	e7cf      	b.n	7062 <memcpy+0x16>
    70c2:	f853 4c40 	ldr.w	r4, [r3, #-64]
    70c6:	f841 4c40 	str.w	r4, [r1, #-64]
    70ca:	f853 4c3c 	ldr.w	r4, [r3, #-60]
    70ce:	f841 4c3c 	str.w	r4, [r1, #-60]
    70d2:	f853 4c38 	ldr.w	r4, [r3, #-56]
    70d6:	f841 4c38 	str.w	r4, [r1, #-56]
    70da:	f853 4c34 	ldr.w	r4, [r3, #-52]
    70de:	f841 4c34 	str.w	r4, [r1, #-52]
    70e2:	f853 4c30 	ldr.w	r4, [r3, #-48]
    70e6:	f841 4c30 	str.w	r4, [r1, #-48]
    70ea:	f853 4c2c 	ldr.w	r4, [r3, #-44]
    70ee:	f841 4c2c 	str.w	r4, [r1, #-44]
    70f2:	f853 4c28 	ldr.w	r4, [r3, #-40]
    70f6:	f841 4c28 	str.w	r4, [r1, #-40]
    70fa:	f853 4c24 	ldr.w	r4, [r3, #-36]
    70fe:	f841 4c24 	str.w	r4, [r1, #-36]
    7102:	f853 4c20 	ldr.w	r4, [r3, #-32]
    7106:	f841 4c20 	str.w	r4, [r1, #-32]
    710a:	f853 4c1c 	ldr.w	r4, [r3, #-28]
    710e:	f841 4c1c 	str.w	r4, [r1, #-28]
    7112:	f853 4c18 	ldr.w	r4, [r3, #-24]
    7116:	f841 4c18 	str.w	r4, [r1, #-24]
    711a:	f853 4c14 	ldr.w	r4, [r3, #-20]
    711e:	f841 4c14 	str.w	r4, [r1, #-20]
    7122:	f853 4c10 	ldr.w	r4, [r3, #-16]
    7126:	f841 4c10 	str.w	r4, [r1, #-16]
    712a:	f853 4c0c 	ldr.w	r4, [r3, #-12]
    712e:	f841 4c0c 	str.w	r4, [r1, #-12]
    7132:	f853 4c08 	ldr.w	r4, [r3, #-8]
    7136:	f841 4c08 	str.w	r4, [r1, #-8]
    713a:	f853 4c04 	ldr.w	r4, [r3, #-4]
    713e:	f841 4c04 	str.w	r4, [r1, #-4]
    7142:	1a56      	subs	r6, r2, r1
    7144:	461d      	mov	r5, r3
    7146:	460c      	mov	r4, r1
    7148:	3340      	adds	r3, #64	; 0x40
    714a:	3140      	adds	r1, #64	; 0x40
    714c:	2e3f      	cmp	r6, #63	; 0x3f
    714e:	dcb8      	bgt.n	70c2 <memcpy+0x76>
    7150:	462b      	mov	r3, r5
    7152:	e00f      	b.n	7174 <memcpy+0x128>
    7154:	f853 1c10 	ldr.w	r1, [r3, #-16]
    7158:	f844 1c10 	str.w	r1, [r4, #-16]
    715c:	f853 1c0c 	ldr.w	r1, [r3, #-12]
    7160:	f844 1c0c 	str.w	r1, [r4, #-12]
    7164:	f853 1c08 	ldr.w	r1, [r3, #-8]
    7168:	f844 1c08 	str.w	r1, [r4, #-8]
    716c:	f853 1c04 	ldr.w	r1, [r3, #-4]
    7170:	f844 1c04 	str.w	r1, [r4, #-4]
    7174:	1b16      	subs	r6, r2, r4
    7176:	4621      	mov	r1, r4
    7178:	461d      	mov	r5, r3
    717a:	3410      	adds	r4, #16
    717c:	3310      	adds	r3, #16
    717e:	2e0f      	cmp	r6, #15
    7180:	dce8      	bgt.n	7154 <memcpy+0x108>
    7182:	462b      	mov	r3, r5
    7184:	e002      	b.n	718c <memcpy+0x140>
    7186:	6824      	ldr	r4, [r4, #0]
    7188:	f841 4b04 	str.w	r4, [r1], #4
    718c:	1a55      	subs	r5, r2, r1
    718e:	461c      	mov	r4, r3
    7190:	2d03      	cmp	r5, #3
    7192:	f103 0304 	add.w	r3, r3, #4
    7196:	dcf6      	bgt.n	7186 <memcpy+0x13a>
    7198:	e790      	b.n	70bc <memcpy+0x70>
    719a:	bf00      	nop

0000719c <strlen>:
    719c:	f020 0103 	bic.w	r1, r0, #3
    71a0:	f010 0003 	ands.w	r0, r0, #3
    71a4:	f1c0 0000 	rsb	r0, r0, #0
    71a8:	f851 3b04 	ldr.w	r3, [r1], #4
    71ac:	f100 0c04 	add.w	ip, r0, #4
    71b0:	ea4f 0ccc 	mov.w	ip, ip, lsl #3
    71b4:	f06f 0200 	mvn.w	r2, #0
    71b8:	bf1c      	itt	ne
    71ba:	fa22 f20c 	lsrne.w	r2, r2, ip
    71be:	4313      	orrne	r3, r2
    71c0:	f04f 0c01 	mov.w	ip, #1
    71c4:	ea4c 2c0c 	orr.w	ip, ip, ip, lsl #8
    71c8:	ea4c 4c0c 	orr.w	ip, ip, ip, lsl #16
    71cc:	eba3 020c 	sub.w	r2, r3, ip
    71d0:	ea22 0203 	bic.w	r2, r2, r3
    71d4:	ea12 12cc 	ands.w	r2, r2, ip, lsl #7
    71d8:	bf04      	itt	eq
    71da:	f851 3b04 	ldreq.w	r3, [r1], #4
    71de:	3004      	addeq	r0, #4
    71e0:	d0f4      	beq.n	71cc <strlen+0x30>
    71e2:	f013 0fff 	tst.w	r3, #255	; 0xff
    71e6:	bf1f      	itttt	ne
    71e8:	3001      	addne	r0, #1
    71ea:	f413 4f7f 	tstne.w	r3, #65280	; 0xff00
    71ee:	3001      	addne	r0, #1
    71f0:	f413 0f7f 	tstne.w	r3, #16711680	; 0xff0000
    71f4:	bf18      	it	ne
    71f6:	3001      	addne	r0, #1
    71f8:	4770      	bx	lr
    71fa:	bf00      	nop
    71fc:	555c3a43 	.word	0x555c3a43
    7200:	73726573 	.word	0x73726573
    7204:	74616d5c 	.word	0x74616d5c
    7208:	6f445c69 	.word	0x6f445c69
    720c:	656d7563 	.word	0x656d7563
    7210:	5c73746e 	.word	0x5c73746e
    7214:	5c746947 	.word	0x5c746947
    7218:	6a6f7270 	.word	0x6a6f7270
    721c:	5c746365 	.word	0x5c746365
    7220:	3163706c 	.word	0x3163706c
    7224:	5f787837 	.word	0x5f787837
    7228:	5c62696c 	.word	0x5c62696c
    722c:	72756f73 	.word	0x72756f73
    7230:	6c5c6563 	.word	0x6c5c6563
    7234:	37316370 	.word	0x37316370
    7238:	745f7878 	.word	0x745f7878
    723c:	72656d69 	.word	0x72656d69
    7240:	0000632e 	.word	0x0000632e
    7244:	61657243 	.word	0x61657243
    7248:	4d206574 	.word	0x4d206574
    724c:	78657475 	.word	0x78657475
    7250:	72726520 	.word	0x72726520
    7254:	0000726f 	.word	0x0000726f
    7258:	656c6544 	.word	0x656c6544
    725c:	54206574 	.word	0x54206574
    7260:	206b7361 	.word	0x206b7361
    7264:	6f727265 	.word	0x6f727265
    7268:	00000072 	.word	0x00000072
    726c:	74697773 	.word	0x74697773
    7270:	63206863 	.word	0x63206863
    7274:	20657361 	.word	0x20657361
    7278:	61666564 	.word	0x61666564
    727c:	21746c75 	.word	0x21746c75
    7280:	00000000 	.word	0x00000000

00007284 <__func__.6346>:
    7284:	5f64656c 6b736174 00000000              led_task....

00007290 <__func__.6315>:
    7290:	5f767264 5f64656c 706f7473 00000000     drv_led_stop....

000072a0 <__func__.6304>:
    72a0:	5f767264 5f64656c 6e65706f 00000000     drv_led_open....
    72b0:	555c3a43 73726573 74616d5c 6f445c69     C:\Users\mati\Do
    72c0:	656d7563 5c73746e 5c746947 6a6f7270     cuments\Git\proj
    72d0:	5c746365 3163706c 5f787837 5c62696c     ect\lpc17xx_lib\
    72e0:	72756f73 6c5c6563 37316370 615f7878     source\lpc17xx_a
    72f0:	632e6364 00000000 61657243 54206574     dc.c....Create T
    7300:	206b7361 6f727265 00000072 69207449     ask error...It i
    7310:	6f772073 6e696b72 65772067 3b206c6c     s working well ;
    7320:	65772029 64206c6c 20656e6f 00000000     ) well done ....

00007330 <__func__.5341>:
    7330:	6e69616d 00000000                       main....

00007338 <ascii_7x11>:
	...
    7344:	00001f00 e0dfc007 c007e0df 1f000000     ................
    7354:	e0000000 0000e000 e000e000 00001f00     ................
    7364:	c07f001b c07f001b 1f00001b 80270013     ..............'.
    7374:	c07f8024 80388024 80301f19 402d4019     $...$.8...0..@-@
    7384:	00538056 1f008021 807d0038 405ec047     V.S.!...8.}.G.^@
    7394:	8021c07b 00001f58 e0000000 0000e000     {.!.X...........
    73a4:	1f000000 00000000 c07f803f 208060c0     ........?....`. 
    73b4:	00001f00 60c02080 803fc07f 1f000000     ..... .`..?.....
    73c4:	80240000 000e803f 8024803f 00041f00     ..$.?...?.$.....
    73d4:	001f0004 0004001f 1f000004 00800000     ................
    73e4:	006000e0 00000000 00041f00 00040004     ..`.............
    73f4:	00040004 1f000004 00000000 00c000c0     ................
    7404:	00000000 00c01f00 003c00f0 c003000f     ..........<.....
    7414:	3f00e000 e0ffc07f 20802080 e0ff2080     ...?..... . . ..
    7424:	0000df7f c0808080 e0ffe0ff 1f000080     ................
    7434:	e0f0c0e0 208c2098 e0872084 c060df83     ..... . . ....`.
    7444:	2084e0e0 20842084 df7be0ff 003e0038     ... . . ..{.8.>.
    7454:	e0218027 e0ffe0ff e0831f20 2082e083     '.!..... ...... 
    7464:	20c22082 3f3c207e c0ff007f 20826082     . . ~ <?.....`. 
    7474:	20fe2082 20003f7c 20e02000 201f20fc     . . |?. . . . . 
    7484:	ff00e003 e0ffc07b 20862086 e0ff208c     ....{.... . . ..
    7494:	c003df7b 2084e087 206420c4 df1fe03f     {...... . d ?...
    74a4:	00000000 80318031 00008031 00001f00     ....1.1.1.......
    74b4:	80b10000 807180f1 1f000000 000e0004     ......q.........
    74c4:	8031001b 60c0c060 000a3f80 000a000a     ..1.`..`.?......
    74d4:	000a000a 1f0a000a 60c02080 8031c060     ......... .``.1.
    74e4:	000e001b c0011f04 2000e001 20dc20d8     ........... . . 
    74f4:	df03e007 2083407f 20ff2083 e0ff6080     .....@. . . .`..
    7504:	00ffdf7f c00880ff c0086008 1fff80ff     .........`......
    7514:	e0ffe0ff 20842084 e0ff2084 c07fdf7b     ..... . . ..{...
    7524:	2080e0ff 20802080 df60e0e0 e0ffe0ff     ... . . ..`.....
    7534:	20802080 c07f60c0 e0ff9f3f 2084e0ff     . . .`..?...... 
    7544:	20842084 3f802084 e0ffe0ff 20042004     . . . .?..... . 
    7554:	20042004 c07f3f00 2080e0ff 20882080     . . .?..... . . 
    7564:	dff8e0f8 e0ffe0ff 00040004 e0ff0004     ................
    7574:	0000ffff e0ff2080 2080e0ff 1f000000     ..... ..... ....
    7584:	00e00060 00800080 e0ff0080 e0ffff7f     `...............
    7594:	0004e0ff c07b001f 3f80e0e0 e0ffe0ff     ......{....?....
    75a4:	00800080 00800080 e0ff1f80 8000e0ff     ................
    75b4:	80000007 ffffe0ff e0ffe0ff 000e8003     ................
    75c4:	e0ff0038 c07fffff 2080e0ff 20802080     8.......... . . 
    75d4:	df7fe0ff e0ffe0ff 20042004 e0072004     ......... . . ..
    75e4:	c07fdf03 2090e0ff 20e020b0 dfffe07f     ....... . . ....
    75f4:	e0ffe0ff 20042004 e0ff200c c043dff3     ..... . . ....C.
    7604:	2086e0c7 208c2084 5f7860fc 20002000     ... . . .`x_. . 
    7614:	e0ffe0ff 20002000 e07f1f00 0080e0ff     ..... . ........
    7624:	00800080 ff7fe0ff e03fe01f 00c00060     ..........?.`...
    7634:	e03f0060 e01fff1f 00e0e0ff 00e0001c     `.?.............
    7644:	ff1fe0ff e0f160c0 000e803f e0f1803f     .....`..?...?...
    7654:	e0037fc0 00fce007 e00700fc 1f00e003     ................
    7664:	20f020c0 208f20bc e080a083 00007f80     . . . . ........
    7674:	e0ffe0ff 20802080 1f002080 e0002000     ..... . . ... ..
    7684:	000fc003 00f0003c 00001fc0 20802080     ....<........ . 
    7694:	e0ff2080 1f00e0ff c0008000 60006000     . ...........`.`
    76a4:	8000c000 00801f00 00800080 00800080     ................
    76b4:	1f800080 00000000 60002000 8000e000     ......... .`....
    76c4:	00701f00 008900f9 00890089 1ffe00ff     ..p.............
    76d4:	e0ffe0ff 00810081 00ff0081 007e1f7e     ............~.~.
    76e4:	008100ff 00810081 1f4200c3 00ff007e     ..........B.~...
    76f4:	00810081 e0ff0081 007effff 009100ff     ..........~.....
    7704:	00910091 1f5e009f c0ff0004 2004e0ff     ......^........ 
    7714:	20042004 009e1f00 00a100bf 00a100a1     . . ............
    7724:	1f7f00ff e0ffe0ff 00010001 00ff0001     ................
    7734:	00811ffe 60ff0081 008060ff 1f000080     .......`.`......
    7744:	00810080 00810081 607f60ff e0ff1f00     .........`.`....
    7754:	0018e0ff 0066003c 1fc100c3 20802080     ....<.f...... . 
    7764:	e0ffe0ff 00800080 00ff1f00 000100ff     ................
    7774:	0001003f 1ffe00ff 00ff00ff 00010001     ?...............
    7784:	00ff0001 007e1ffe 008100ff 00810081     ......~.........
    7794:	1f7e00ff 00ff00ff 00210021 003f0021     ..~.....!.!.!.?.
    77a4:	001e1f1e 0021003f 00210021 1ffe00ff     ....?.!.!.!.....
    77b4:	00ff0001 000400ff 00030002 008e1f03     ................
    77c4:	0099009f 00990099 1f7100f9 00010001     ..........q.....
    77d4:	c0ffc07f 00810081 007f1f81 008000ff     ................
    77e4:	00800080 1fff00ff 003f001f 00c00060     ..........?.`...
    77f4:	003f0060 003f1f1f 00c000ff 00c0003c     `.?...?.....<...
    7804:	1f3f00ff 00f700e3 001c001c 00f7001c     ..?.............
    7814:	008f1fe3 0090009f 00900090 1f7f00ff     ................
    7824:	00e100c1 009900b1 0087008d 00001f83     ................
    7834:	c07f0004 2080e0e0 1f000080 00000000     ....... ........
    7844:	e0ffe0ff 00000000 00001f00 e0e02080     ............. ..
    7854:	0004c07f 5f000000 20006000 c0006000     ......._.`. .`..
    7864:	c0008000 00005f00 61657243 46206574     ....._..Create F
    7874:	2067616c 6f727265 00000072              lag error...

00007880 <__func__.5323>:
    7880:	5f767264 5f746f70 6e65706f 00000000     drv_pot_open....

00007890 <k_xTouchMargin>:
    7890:	0000012c                                ,...

00007894 <k_yTouchMargin>:
    7894:	00000190                                ....

00007898 <k_xButtonLine>:
    7898:	00000f0a                                ....

0000789c <k_yButtonLine1>:
    789c:	000011bc                                ....

000078a0 <k_yButtonLine2>:
    78a0:	00001434                                4...

000078a4 <k_yButtonLine3>:
    78a4:	0000172a                                *...

000078a8 <k_yButtonLine4>:
    78a8:	000019e5                                ....

000078ac <k_yButtonLine5>:
    78ac:	00001c72 61657243 54206574 206b7361     r...Create Task 
    78bc:	6f727265 00000072 6f6f6e53 56207970     error...Snoopy V
    78cc:	00312e30 20676f4c 736e6f63 00656c6f     0.1.Log console.
    78dc:	74747542 3a206e6f 00003120 74747542     Button : 1..Butt
    78ec:	3a206e6f 00003220 74747542 3a206e6f     on : 2..Button :
    78fc:	00003320 74747542 3a206e6f 00003420      3..Button : 4..
    790c:	74747542 3a206e6f 00003520              Button : 5..

00007918 <__func__.5616>:
    7918:	5f77646d 5f676f6c 6e65706f 00000000     mdw_log_open....

00007928 <image>:
    7928:	ffffffff ffffffff ffffffff ffffffff     ................
    7938:	ffffffff ffffffff ffffffff ffffffff     ................
    7948:	ffffffff ffffffff ffffffff ffffffff     ................
    7958:	ffffffff ffffffff ffffffff ffffffff     ................
    7968:	ffffffff ffffffff ffffffff ffffffff     ................
    7978:	ffffffff ffffffff ffffffff ffffffff     ................
    7988:	ffffffff ffffffff ffffffff ffffffff     ................
    7998:	ffffffff ffffffff ffffffff ffffffff     ................
    79a8:	ffffffff ffffffff ffffffff ffffffff     ................
    79b8:	ffffffff ffffffff ffffffff ffffffff     ................
    79c8:	ffffffff ffffffff ffffffff ffffffff     ................
    79d8:	ffffffff ffffffff ffffffff ffffffff     ................
    79e8:	ffffffff ffffffff ffffffff ffffffff     ................
    79f8:	ffffffff ffffffff ffffffff ffffffff     ................
    7a08:	ffffffff ffffffff ffffffff ffffffff     ................
    7a18:	ffffffff ffffffff ffffffff ffffffff     ................
    7a28:	ffffffff ffffffff ffffffff ffffffff     ................
    7a38:	ffffffff ffffffff ffffffff ffffffff     ................
    7a48:	ffffffff ffffffff ffffffff ffffffff     ................
    7a58:	ffffffff ffffffff ffffffff ffffffff     ................
    7a68:	ffffffff ffffffff ffffffff ffffffff     ................
    7a78:	ffffffff ffffffff ffffffff ffffffff     ................
    7a88:	ffffffff ffffffff ffffffff ffffffff     ................
    7a98:	ffffffff ef5dffdf f79eef5d ffffffff     ......].].......
    7aa8:	ffffffff ffffffff e71cffff b596738e     .............s..
    7ab8:	ffffffff ffffffff ffffffff ffffffff     ................
    7ac8:	ffffffff ffffffff ffffffff ffffffff     ................
    7ad8:	ffffffff ffffffff ffffffff ffffffff     ................
    7ae8:	ffffffff ffffffff ffffffff ffffffff     ................
    7af8:	ffffffff ffffffff ffffffff ffffffff     ................
    7b08:	ffffffff ffffffff ffffffff ffffffff     ................
    7b18:	ffffffff ffffffff ffffffff ffffffff     ................
    7b28:	ffffffff ffffffff ffffffff f79effff     ................
    7b38:	42088c71 086110a2 10820861 7bcf3186     q..B..a.a....1.{
    7b48:	ffffd69a ffffffff 8410ffff 08410841     ............A.A.
    7b58:	ffffd6ba ffffffff ffffffff ffffffff     ................
    7b68:	ffffffff ffffffff ffffffff ffffffff     ................
    7b78:	ffffffff ffffffff ffffffff ffffffff     ................
    7b88:	ffffffff ffffffff ffffffff ffffffff     ................
    7b98:	ffffffff ffffffff ffffffff ffffffff     ................
    7ba8:	ffffffff ffffffff ffffffff ffffffff     ................
    7bb8:	ffffffff ffffffff ffffffff ffffffff     ................
    7bc8:	ffffffff ffffffff c638f79e 18e3738e     ..........8..s..
    7bd8:	4a492124 949273ae 7bef94b2 3186528a     $!IJ.s.....{.R.1
    7be8:	31a618c3 c6188c51 4208ce79 00000000     ...1Q...y..B....
    7bf8:	ffff6b4d ffffffff ffffffff ffffffff     Mk..............
    7c08:	ffffffff ffffffff ffffffff ffffffff     ................
    7c18:	ffffffff ffffffff ffffffff ffffffff     ................
    7c28:	ffffffff ffffffff ffffffff ffffffff     ................
    7c38:	ffffffff ffffffff ffffffff ffffffff     ................
    7c48:	ffffffff ffffffff ffffffff ffffffff     ................
    7c58:	ffffffff ffffffff ffffffff ffffffff     ................
    7c68:	ffffffff bdf7ffff 4a695acb b5968430     .........ZiJ0...
    7c78:	ffdfdefb ffffffff ffffffff ef7dffff     ..............}.
    7c88:	738ebdf7 10a218e3 08412945 00000000     ...s....E)A.....
    7c98:	ef7d3186 ffffffff ffffffff ffffffff     .1}.............
    7ca8:	ffffffff ffffffff ffffffff ffffffff     ................
    7cb8:	ffffffff ffffffff ffffffff ffffffff     ................
    7cc8:	ffffffff ffffffff ffffffff ffffffff     ................
    7cd8:	ffffffff ffffffff ffffffff ffffffff     ................
    7ce8:	ffffffff ffffffff ffffffff ffffffff     ................
    7cf8:	ffffffff ffffffff ffffffff ffffffff     ................
    7d08:	ffffffff 2104a514 defb73ae ffffffdf     .......!.s......
    7d18:	ffffffff ffffffff ffffffff ffffffff     ................
    7d28:	f79effff ce59d69a 08417bef 00000000     ......Y..{A.....
    7d38:	84300861 9cd3ad55 738e8430 4a695aeb     a.0.U...0..s.ZiJ
    7d48:	42284a49 6b6d4a69 ce599492 fffff7be     IJ(BiJmk..Y.....
    7d58:	ffffffff ffffffff ffffffff ffffffff     ................
    7d68:	ffffffff ffffffff ffffffff ffffffff     ................
    7d78:	ffffffff ffffffff ffffffff ffffffff     ................
    7d88:	ffffffff ffffffff ffffffff ffffffff     ................
    7d98:	ffffffff ffffffff ffffffff ffffffff     ................
    7da8:	f7beffff 39c739e7 ffffffdf ffffffff     .....9.9........
    7db8:	ffffffff ffffffff ffffffff ffffffff     ................
    7dc8:	ffffffff ffffffff 18c3d6ba 00000000     ................
    7dd8:	21040000 52aa4228 73ae632c 8c717bef     ...!(B.R,c.s.{q.
    7de8:	9cf394b2 8c719cf3 2104632c 94922965     ......q.,c.!e)..
    7df8:	fffff7be ffffffff ffffffff ffffffff     ................
    7e08:	ffffffff ffffffff ffffffff ffffffff     ................
    7e18:	ffffffff ffffffff ffffffff ffffffff     ................
    7e28:	ffffffff ffffffff ffffffff ffffffff     ................
    7e38:	ffffffff ffffffff ffffffff ffffffff     ................
    7e48:	a534ffdf c61839e7 ffffffff ffffffff     ..4..9..........
    7e58:	ffffffff ffffffff ffffffff ffffffff     ................
    7e68:	ffffffff ffffffff 18e3dedb 00000000     ................
    7e78:	8c510000 ffffffdf ffffffff ffffffff     ..Q.............
    7e88:	ffffffff ffffffff ef7dffff 39e79cf3     ..........}....9
    7e98:	ad5531a6 fffff79e ffffffff ffffffff     .1U.............
    7ea8:	ffffffff ffffffff ffffffff ffffffff     ................
    7eb8:	ffffffff ffffffff ffffffff ffffffff     ................
    7ec8:	ffffffff ffffffff ffffffff ffffffff     ................
    7ed8:	ffffffff ffffffff ffffffff ffffffff     ................
    7ee8:	6b4da534 ffffd69a ffffffff ffffffff     4.Mk............
    7ef8:	ffffffff ffffffff ffffffff ffffffff     ................
    7f08:	ffffffff ffffffff 18c3d6ba 00000000     ................
    7f18:	738e0000 fffff7be ffffffff ffffffff     ...s............
    7f28:	ffffffff ffffffff ffffffff f79effff     ................
    7f38:	39c79cf3 defb630c ffffffff ffffffff     ...9.c..........
    7f48:	ffffffff ffffffff ffffffff ffffffff     ................
    7f58:	ffffffff ffffffff ffffffff ffffffff     ................
    7f68:	ffffffff ffffffff ffffffff ffffffff     ................
    7f78:	ffffffff ffffffff ffffffff ef5dffff     ..............].
    7f88:	c61831a6 ffffffff ffffffff ffffffff     .1..............
    7f98:	ffffffff ffffffff ffffffff ffffffff     ................
    7fa8:	ffffffff ffffffff 00206b4d 00000000     ........Mk .....
    7fb8:	5acb0000 ffffef7d ffffffff ffffffff     ...Z}...........
    7fc8:	ffffffff ffffffff ffffffff ffffffff     ................
    7fd8:	bdf7ffdf 39c72945 ffffef7d ffffffff     ....E).9}.......
    7fe8:	ffffffff ffffffff ffffffff ffffffff     ................
    7ff8:	ffffffff ffffffff ffffffff ffffffff     ................
    8008:	ffffffff ffffffff ffffffff ffffffff     ................
    8018:	ffffffff ffffffff ffffffff 9492ffff     ................
    8028:	ffdf528a ffffffff ffffffff ffffffff     .R..............
    8038:	ffffffff ffffffff ffffffff ffffffff     ................
    8048:	ffffffff 6b4dffdf 00000020 00000000     ......Mk .......
    8058:	4a490000 ffffe73c ffffffff ffffffff     ..IJ<...........
    8068:	ffffffff ffffffff ffffffff ffffffff     ................
    8078:	ffffffff 0841b596 ffff7bef ffffffff     ......A..{......
    8088:	ffffffff ffffffff ffffffff ffffffff     ................
    8098:	ffffffff ffffffff ffffffff ffffffff     ................
    80a8:	ffffffff ffffffff ffffffff ffffffff     ................
    80b8:	ffffffff ffffffff ffffffff 2945e73c     ............<.E)
    80c8:	ffffbdf7 ffffffff ffffffff ffffffff     ................
    80d8:	ffffffff ffffffff ffffffff ffffffff     ................
    80e8:	ce59f7be 18c352aa 10825acb 00000000     ..Y..R...Z......
    80f8:	42280000 ffffe73c ffffffff ffffffff     ..(B<...........
    8108:	ffffffff ffffffff ffffffff ffffffff     ................
    8118:	ffffffff 8430ffff ce792965 8c51c618     ......0.e)y...Q.
    8128:	ef7da534 ffffffff ffffffff ffffffff     4.}.............
    8138:	ffffffff ffffffff ffffffff ffffffff     ................
    8148:	ffffffff ffffffff ffffffff ffffffff     ................
    8158:	ffffffff ffffffff ffffffff 528a8c51     ............Q..R
    8168:	ffffffff ffffffff ffffffff ffffffff     ................
    8178:	ffffffff ffffffff ffffffff bdd7f7be     ................
    8188:	18e3630c bdd7528a 3186e71c 00000000     .c...R.....1....
    8198:	5acb0000 ffffef7d ffffffff ffffffff     ...Z}...........
    81a8:	ffffffff ffffffff ffffffff ffffffff     ................
    81b8:	ffffffff ffdfffff 39c74a49 a5348c51     ........IJ.9Q.4.
    81c8:	84106b6d ffffef7d ffffffff ffffffff     mk..}...........
    81d8:	ffffffff ffffffff ffffffff ffffffff     ................
    81e8:	ffffffff ffffffff ffffffff ffffffff     ................
    81f8:	ffffffff ffffffff ffffffff b59673ae     .............s..
    8208:	ffffffff ffffffff ffffffff ffffffff     ................
    8218:	ffffffff ffffffff ffdfffff 18e373ae     .............s..
    8228:	949218c3 ffffe73c 5acbf79e 00000000     ....<......Z....
    8238:	7bef0000 ffffffdf ffffffff ffffffff     ...{............
    8248:	ffffffff ffffffff ffffffff ffffffff     ................
    8258:	ffffffff ffffffff 738ead75 fffff79e     ........u..s....
    8268:	5aebe73c ffffbdf7 ffffffff ffffffff     <..Z............
    8278:	ffffffff ffffffff ffffffff ffffffff     ................
    8288:	ffffffff ffffffff ffffffff ffffffff     ................
    8298:	ffffffff ffffffff ffffffff defb630c     .............c..
    82a8:	ffffffff ffffffff ffffffff ffffffff     ................
    82b8:	ffffffff ffffffff 7bcfef7d 31a60861     ........}..{a..1
    82c8:	ffdfd69a ffffffff 9492ffff 00000861     ............a...
    82d8:	a5140841 ffffffff ffffffff ffffffff     A...............
    82e8:	ffffffff ffffffff ffffffff ffffffff     ................
    82f8:	ffffffff ffffffff 5aebdedb 18c3528a     ...........Z.R..
    8308:	8410a534 ffdf7bcf ffffffff ffffffff     4....{..........
    8318:	ffffffff ffffffff ffffffff ffffffff     ................
    8328:	ffffffff ffffffff ffffffff ffffffff     ................
    8338:	ffffffff ffffffff ef5dffff ef7d39c7     ..........]..9}.
    8348:	ffffffff ffffffff ffffffff ffffffff     ................
    8358:	ffffffff 7befe71c 294510a2 ffdf94b2     .......{..E)....
    8368:	ffffffff ffffffff f79effff 21046b6d     ............mk.!
    8378:	defb4228 ffffffff ffffffff ffffffff     (B..............
    8388:	ffffffff ffffffff ffffffff ffffffff     ................
    8398:	ffffffff ffffffff 4208ef5d 00000000     ........]..B....
    83a8:	841039c7 ffdf8410 ffffffff ffffffff     .9..............
    83b8:	ffffffff ffffffff ffffffff ffffffff     ................
    83c8:	ffffffff ffffffff ffffffff ffffffff     ................
    83d8:	ffffffff ffffffff ad55ffff f7be5aeb     ..........U..Z..
    83e8:	ef5de71c ffffffff d6baef5d ffffffdf     ..].....].......
    83f8:	c618ffff 002039e7 d69a630c ffffffff     .....9 ..c......
    8408:	ffffffff ffffffff ffffffff d6baffdf     ................
    8418:	ffffe71c ffffffff ffffffff ffffffff     ................
    8428:	ffffffff ffffffff ffffffff ffffffff     ................
    8438:	ffffffff ffffffff 5acbf7be 00000000     ...........Z....
    8448:	4a691082 ffffce59 ffffffff ffffffff     ..iJY...........
    8458:	ffffffff ffffffff ffffffff ffffffff     ................
    8468:	ffffffff ffffffff ffffffff ffffffff     ................
    8478:	ffffffff ffffffff 738ef7be dedbbdf7     ...........s....
    8488:	31a62965 ffdfa514 632ce73c ffffc638     e).1....<.,c8...
    8498:	2965b596 94b210a2 ffffef5d ffffffff     ..e)....].......
    84a8:	ffffffff ffffffff ffffffff ffffffff     ................
    84b8:	ffffffff ffffffff ffffffff ffffffff     ................
    84c8:	ffffffff ffffffff ffffffff ffffffff     ................
    84d8:	ffffffff ffffffff 630cffdf 08410000     ...........c..A.
    84e8:	b5b639e7 ffffffdf ffffffff ffffffff     .9..............
    84f8:	ffffffff ffffffff ffffffff ffffffff     ................
    8508:	ffffffff ffffffff ffffffff ffffffff     ................
    8518:	ffffffff ffffffff 738ededb 6b4def5d     ...........s].Mk
    8528:	00000000 6b4d0841 9492ffdf 39c72965     ....A.Mk....e).9
    8538:	21040841 ffdfbdf7 ffffffff ffffffff     A..!............
    8548:	ffffffff ffffffff ffffffff ffffffff     ................
    8558:	ffffffff ffffffff ffffffff ffffffff     ................
    8568:	ffffffff ffffffff ffffffff ffffffff     ................
    8578:	ffffffff ffffffff 630cf7be ef5d5acb     ...........c.Z].
    8588:	fffff7be ffffffff ffffffff ffffffff     ................
    8598:	ffffffff ffffffff ffffffff ffffffff     ................
    85a8:	ffffffff ffffffff ffffffff ffffffff     ................
    85b8:	ffffffff ffffffff 94929cd3 0861d6ba     ..............a.
	...
    85d0:	ef7d8430 00004a69 c6383186 ffffffff     0.}.iJ...18.....
    85e0:	ffffffff ffffffff ffffffff ffffffff     ................
    85f0:	ffffffff ffffffff ffffffff ffffffff     ................
    8600:	ffffffff ffffffff ffffffff ffffffff     ................
    8610:	ffffffff ffffffff ffffffff ffffffff     ................
    8620:	4228ef5d ffdf73ae ffffffff ffffffff     ].(B.s..........
    8630:	ffffffff ffffffff ffffffff ffffffff     ................
    8640:	ffffffff ffffffff ffffffff ffffffff     ................
    8650:	ffffffff ffffffff ffffffff ffffffff     ................
    8660:	c6184228 002094b2 00000000 00000000     (B.... .........
    8670:	d6ba2965 2965dedb ffffa514 ffffffff     e)....e)........
    8680:	ffffffff ffffffff ffffffff ffffffff     ................
    8690:	ffffffff ffffffff ffffffff ffffffff     ................
    86a0:	ffffffff ffffffff ffffffff ffffffff     ................
    86b0:	ffffffff ffffffff ffffffff ffffffff     ................
    86c0:	2945d69a ffffbdd7 ffffffff ffffffff     ..E)............
    86d0:	ffffffff ffffffff ffffffff ffffffff     ................
    86e0:	ffffffff ffffffff ffffffff ffffffff     ................
    86f0:	ffffffff ffffffff ffffffff ef7dffff     ..............}.
    8700:	e73c3186 002073ae 00000000 00000000     .1<..s .........
    8710:	42080020 bdd7d6ba f79e4a69 ffffffff      ..B....iJ......
    8720:	ffffffff ffffffff ffffffff ffffffff     ................
    8730:	ffffffff ffffffff ffffffff ffffffff     ................
    8740:	ffffffff ffffffff ffffffff ffffffff     ................
    8750:	ffffffff ffffffff ffffffff ffffffff     ................
    8760:	528a8c71 ffffef5d ffffffff ffffffff     q..R]...........
    8770:	ffffffff ffffffff ffffffff ffffffff     ................
    8780:	ffffffff ffffffff ffffffff ffffffff     ................
    8790:	ffffffff ffffffff ffffffff e73cffff     ..............<.
    87a0:	f7be4208 00004208 00000000 00000000     .B...B..........
    87b0:	00000000 f7be6b4d c6185aeb ffffffff     ....Mk...Z......
    87c0:	ffffffff ffffffff ffffffff ffffffff     ................
    87d0:	ffffffff ffffffff ffffffff ffffffff     ................
    87e0:	ffffffff ffffffff ffffffff ffffffff     ................
    87f0:	ffffffff ffffffff ffffffff ef7dffff     ..............}.
    8800:	a5142124 ffffffff ffffffff ffffffff     $!..............
    8810:	ffffffff ffffffff ffffffff ffffffff     ................
    8820:	ffffffff ffffffff ffffffff ffffffff     ................
    8830:	ffffffff ffffffff ffffffff 5aebf7be     ...............Z
    8840:	bdd7632c 000018c3 00000000 00000000     ,c..............
    8850:	00000000 ef7d10a2 9492ad75 ffffffdf     ......}.u.......
    8860:	ffffffff ffffffff ffffffff ffffffff     ................
    8870:	ffffffff ffffffff ffffffff ffffffff     ................
    8880:	ffffffff ffffffff ffffffff ffffffff     ................
    8890:	ffffffff ffffffff ffffffff 4228e71c     ..............(B
    88a0:	f79e5acb ffffffff ffffffff ffffffff     .Z..............
    88b0:	ffffffff ffffffff ffffffff ffffffff     ................
    88c0:	ffffffff ffffffff ffffffff ffffffff     ................
    88d0:	ffffffff ffffffff ffffffff 0841a514     ..............A.
    88e0:	8c717bef 00000841 00000000 00000000     .{q.A...........
    88f0:	00000000 ce590000 738ededb ffffef5d     ......Y....s]...
    8900:	ffffffff ffffffff ffffffff ffffffff     ................
    8910:	ffffffff ffffffff ffffffff ffffffff     ................
    8920:	ffffffff ffffffff ffffffff ffffffff     ................
    8930:	ffffffff ffffffff c638ffff 5aeb4a49     ..........8.IJ.Z
    8940:	ffffe73c ffffffff ffffffff ffffffff     <...............
    8950:	ffffffff ffffffff ffffffff ffffffff     ................
    8960:	ffffffff ffffffff ffffffff ffffffff     ................
    8970:	ffffffff ffffffff b596ffff 00002124     ............$!..
    8980:	b5b68430 000018c3 00000000 00000000     0...............
    8990:	00000000 738e0000 632cef7d ffffd69a     .......s}.,c....
    89a0:	ffffffff ffffffff ffffffff ffffffff     ................
    89b0:	d6baf7be fffff7be ffffffff ffffffff     ................
    89c0:	ffffffff ffffffff ffffffff ffffffff     ................
    89d0:	ffffffff ffffffff 39c7c618 ef5d73ae     ...........9.s].
    89e0:	ffffffff ffffffff ffffffff ffffffff     ................
    89f0:	ffffffff ffffffff ffffffff ffffffff     ................
    8a00:	ffffffff ffffffff ffffffff ffffffff     ................
    8a10:	ffffffff ffffffff 2965defb 00000020     ..........e) ...
    8a20:	b5967bcf 000010a2 00000000 00000000     .{..............
    8a30:	00000000 08410000 6b4dce79 ffffb596     ......A.y.Mk....
    8a40:	ffffffff ffffffff ffffffff ffffffff     ................
    8a50:	10829cf3 ffffb596 ffffffff ffffffff     ................
    8a60:	ffffffff ffffffff ffffffff ffffffff     ................
    8a70:	ffffffff 94b2ffdf 94b218e3 fffff7be     ................
    8a80:	ffffffff ffffffff ffffffff ffffffff     ................
    8a90:	ffffffff ffffffff ffffffff ffffffff     ................
    8aa0:	ffffffff ffffffff ffffffff ffffffff     ................
    8ab0:	ffffffff ffffffff 0000ad75 420873ae     ........u....s.B
    8ac0:	c61852aa 00002104 00000000 00000000     .R...!..........
	...
    8ad8:	7bcf6b4d ffdf6b6d ffffffff ffffffff     Mk.{mk..........
    8ae8:	ffffffff ffffffff 10824208 52aa39e7     .........B...9.R
    8af8:	ffffce59 ffffffff ffffffff ffffffff     Y...............
    8b08:	ffffffff ffffffff c638ffdf 42085acb     ..........8..Z.B
    8b18:	ffffc618 ffffffff ffffffff ffffffff     ................
    8b28:	ffffffff ffffffff ffffffff ffffffff     ................
    8b38:	ffffffff ffffffff ffffffff ffffffff     ................
    8b48:	ffffffff ffffffff ffffffff ffffffff     ................
    8b58:	00008c71 a5349cf3 f79e31a6 00005aeb     q.....4..1...Z..
	...
    8b74:	21240841 8410630c f7be52aa ffffffff     A.$!.c...R......
    8b84:	ffffffff ffffffff ffffffff 94924228     ............(B..
    8b94:	2945ad55 b59639e7 f79effdf ffdfef7d     U.E).9......}...
    8ba4:	ffffffff dedbef5d c618e71c 630c73ae     ....]........s.c
    8bb4:	f79ead75 ffffffff ffffffff ffffffff     u...............
    8bc4:	ffffffff ffffffff ffffffff ffffffff     ................
    8bd4:	ffffffff ffffffff ffffffff ffffffff     ................
    8be4:	ffffffff ffffffff ffffffff ffffffff     ................
    8bf4:	ffffffff 3186c638 f79ece59 ce793186     ....8..1Y....1y.
    8c04:	00209492 00200000 00000000 00000000     .. ... .........
    8c14:	738e0841 84106b6d ffdf5aeb ffffffff     A..smk...Z......
    8c24:	ffffffff ffffffff ffffffff 94b28c51     ............Q...
    8c34:	b596b596 3186ad75 632c39e7 7bef738e     ....u..1.9,c.s.{
    8c44:	defbe71c 212439e7 21242945 e71c7bef     .....9$!E)$!.{..
    8c54:	ffffffff ffffffff ffffffff ffffffff     ................
    8c64:	ffffffff ffffffff ffffffff ffffffff     ................
    8c74:	ffffffff ffffffff ffffffff ffffffff     ................
    8c84:	ffffffff ffffffff ffffffff ffffffff     ................
    8c94:	ffffffff f7beffff ffffffff 9cd36b6d     ............mk..
    8ca4:	4a49f79e 29650861 00000020 00000000     ..IJa.e) .......
    8cb4:	94920861 73ae7bef ffdf738e ffffffff     a....{.s.s......
    8cc4:	ffffffff ffffffff ffffffff 31a6d69a     ...............1
    8cd4:	f79e39e7 b5b6ffdf e73c2945 ad75f7be     .9......E)<...u.
    8ce4:	10823186 00000000 c6382965 ffffffdf     .1......e)8.....
    8cf4:	ffffffff ffffffff ffffffff ffffffff     ................
    8d04:	ffffffff ffffffff ffffffff ffffffff     ................
    8d14:	ffffffff ffffffff ffffffff ffffffff     ................
    8d24:	ffffffff ffffffff ffffffff ffffffff     ................
    8d34:	ffffffff ffffffff ffffffff 5aebce59     ............Y..Z
    8d44:	ef7de71c 422839c7 00000841 00000000     ..}..9(BA.......
    8d54:	52aa2945 4a499492 d6ba52aa fffff7be     E).R..IJ.R......
    8d64:	ffffffff ffffffff ffffffff 9cd3ffdf     ................
    8d74:	42282124 d6baad75 a53439e7 ce59dedb     $!(Bu....94...Y.
    8d84:	00207bef 841018e3 ffffef7d ffffffff     .{ .....}.......
    8d94:	ffffffff ffffffff ffffffff ffffffff     ................
    8da4:	ffffffff ffffffff ffffffff ffffffff     ................
    8db4:	ffffffff ffffffff ffffffff ffffffff     ................
    8dc4:	ffffffff ffffffff ffffffff ffffffff     ................
    8dd4:	ffffffff ffffffff ffffffff 6b4df79e     ..............Mk
    8de4:	e73c632c 52aaad55 000018c3 00000000     ,c<.U..R........
    8df4:	52aa10a2 3186a534 630c6b4d 8430738e     ...R4..1Mk.c.s0.
    8e04:	e71cb596 ffffffff ffffffff ffffffff     ................
    8e14:	8410ce79 6b4d52aa 8410630c 0861632c     y....RMk.c..,ca.
    8e24:	6b6d18c3 ffdfce59 ffffffff ffffffff     ..mkY...........
    8e34:	ffffffff ffffffff ffffffff ffffffff     ................
    8e44:	ffffffff ffffffff ffffffff ffffffff     ................
    8e54:	ffffffff ffffffff ffffffff ffffffff     ................
    8e64:	ffffffff ffffffff ffffffff ffffffff     ................
    8e74:	ffffffff ffffffff ffffffff d6baffff     ................
    8e84:	39c731a6 3186a514 00000020 31860020     .1.9...1 ... ..1
    8e94:	d69a8c71 73ae31a6 e73cef7d 8430ce59     q....1.s}.<.Y.0.
    8ea4:	296539c7 e73c738e ffffffff ffffffff     .9e).s<.........
    8eb4:	ffdfffff e73cef5d b5b6ef5d 42282124     ....].<.]...$!(B
    8ec4:	f79ec618 ffffffff ffffffff ffffffff     ................
    8ed4:	ffffffff ffffffff ffffffff ffffffff     ................
    8ee4:	ffffffff ffffffff ffffffff ffffffff     ................
    8ef4:	ffffffff ffffffff ffffffff ffffffff     ................
    8f04:	ffffffff ffffffff ffffffff ffffffff     ................
    8f14:	ffffffff ffffffff ffffffff ffffffff     ................
    8f24:	18c3ce59 10a20861 ad55632c f79ee73c     Y...a...,cU.<...
    8f34:	2965ce79 c63818e3 ffffffff ffdfffff     y.e)..8.........
    8f44:	ad75f79e 420839c7 ffffdedb ffffffff     ..u..9.B........
    8f54:	ffffffff ffffffff 10a2ad75 ef5d632c     ........u...,c].
    8f64:	ffffffff ffffffff ffffffff ffffffff     ................
    8f74:	ffffffff ffffffff ffffffff ffffffff     ................
    8f84:	ffffffff ffffffff ffffffff ffffffff     ................
    8f94:	ffffffff ffffffff ffffffff ffffffff     ................
    8fa4:	ffffffff ffffffff ffffffff ffffffff     ................
    8fb4:	ffffffff ffffffff ffffffff ffffffff     ................
    8fc4:	defbffff 10824a49 4a691082 4a496b4d     ....IJ....iJMkIJ
    8fd4:	294510a2 ffffad55 ffffffff ffffffff     ..E)U...........
    8fe4:	ffffffff 5aebef7d d6ba3186 ffffffff     ....}..Z.1......
    8ff4:	ffffffff defbffff 8c512965 ffffffff     ........e)Q.....
    9004:	ffffffff ffffffff ffffffff ffffffff     ................
    9014:	ffffffff ffffffff ffffffff ffffffff     ................
    9024:	ffffffff ffffffff ffffffff ffffffff     ................
    9034:	ffffffff ffffffff ffffffff ffffffff     ................
    9044:	ffffffff ffffffff ffffffff ffffffff     ................
    9054:	ffffffff ffffffff ffffffff ffffffff     ................
    9064:	ffffffff b596f79e 5aeb8410 73ae5acb     ...........Z.Z.s
    9074:	defba514 ffffffff ffffffff ffffffff     ................
    9084:	ffffffff d69affff 39c72124 ffffffff     ........$!.9....
    9094:	ffffffff bdf7ffff c63818e3 ffffffff     ..........8.....
    90a4:	ffffffff ffffffff ffffffff ffffffff     ................
    90b4:	ffffffff ffffffff ffffffff ffffffff     ................
    90c4:	ffffffff ffffffff ffffffff ffffffff     ................
    90d4:	ffffffff ffffffff ffffffff ffffffff     ................
    90e4:	ffffffff ffffffff ffffffff ffffffff     ................
    90f4:	ffffffff ffffffff ffffffff ffffffff     ................
    9104:	ffffffff ffffffff ef7dffdf f7beef7d     ..........}.}...
    9114:	ffffffff ffffffff ffffffff ffffffff     ................
    9124:	ffffffff ffdfffff 00205acb ffffe73c     .........Z .<...
    9134:	ffffffff e71cffff 29452965 ffffc638     ........e)E)8...
    9144:	ffffffff ffffffff ffffffff ffffffff     ................
    9154:	ffffffff ffffffff ffffffff ffffffff     ................
    9164:	ffffffff ffffffff ffffffff ffffffff     ................
    9174:	ffffffff ffffffff ffffffff ffffffff     ................
    9184:	ffffffff ffffffff ffffffff ffffffff     ................
    9194:	ffffffff ffffffff ffffffff ffffffff     ................
    91a4:	ffffffff ffffffff ffffffff ffffffff     ................
    91b4:	ffffffff ffffffff ffffffff ffffffff     ................
    91c4:	ffffffff ffffffff 0841a514 ffffc638     ..........A.8...
    91d4:	bdf7dedb 39c79cd3 00000020 ffdf4208     .......9 ....B..
    91e4:	ffffffff ffffffff ffffffff ffffffff     ................
    91f4:	ffffffff ffffffff ffffffff ffffffff     ................
    9204:	ffffffff ffffffff ffffffff ffffffff     ................
    9214:	ffffffff ffffffff ffffffff ffffffff     ................
    9224:	ffffffff ffffffff ffffffff ffffffff     ................
    9234:	ffffffff ffffffff ffffffff ffffffff     ................
    9244:	ffffffff ffffffff ffffffff ffffffff     ................
    9254:	ffffffff ffffffff ffffffff ffffffff     ................
    9264:	ffffffff ffdfffff 0841ad75 39c7738e     ........u.A..s.9
    9274:	8c5152aa 52aa5acb 31a6528a dedb31a6     .RQ..Z.R.R.1.1..
    9284:	ffffffff ffffffff ffffffff ffffffff     ................
    9294:	ffffffff ffffffff ffffffff ffffffff     ................
    92a4:	ffffffff ffffffff ffffffff ffffffff     ................
    92b4:	ffffffff ffffffff ffffffff ffffffff     ................
    92c4:	ffffffff ffffffff ffffffff ffffffff     ................
    92d4:	ffffffff ffffffff ffffffff ffffffff     ................
    92e4:	ffffffff ffffffff ffffffff ffffffff     ................
    92f4:	ffffffff ffffffff ffffffff ffffffff     ................
    9304:	ffffffff b5b6ffff 00002124 39c710a2     ........$!.....9
    9314:	94b26b4d ffffdefb f79effff 4a497bef     Mk...........{IJ
    9324:	ffffce79 ffffffff ffffffff ffffffff     y...............
    9334:	ffffffff ffffffff ffffffff ffffffff     ................
    9344:	ffffffff ffffffff ffffffff ffffffff     ................
    9354:	ffffffff ffffffff ffffffff ffffffff     ................
    9364:	ffffffff ffffffff ffffffff ffffffff     ................
    9374:	ffffffff ffffffff ffffffff ffffffff     ................
    9384:	ffffffff ffffffff ffffffff ffffffff     ................
    9394:	ffffffff ffffffff ffffffff ffffffff     ................
    93a4:	ffffffff dedbffff 000039c7 e71cad55     .........9..U...
    93b4:	fffff79e ffffffff ffffffff 528aef5d     ............]..R
    93c4:	e71c31a6 ffffffff ffffffff ffffffff     .1..............
    93d4:	ffffffff ffffffff ffffffff ffffffff     ................
    93e4:	ffffffff ffffffff ffffffff ffffffff     ................
    93f4:	ffffffff ffffffff ffffffff ffffffff     ................
    9404:	ffffffff ffffffff ffffffff ffffffff     ................
    9414:	ffffffff ffffffff ffffffff ffffffff     ................
    9424:	ffffffff ffffffff ffffffff ffffffff     ................
    9434:	ffffffff ffffffff ffffffff ffffffff     ................
    9444:	ffffffff ffffffff 08617bef fffff7be     .........{a.....
    9454:	ffffffff ffffffff ffffffff c618ffff     ................
    9464:	39e72104 ffffffdf ffffffff ffffffff     .!.9............
    9474:	ffffffff ffffffff ffffffff ffffffff     ................
    9484:	ffffffff ffffffff ffffffff ffffffff     ................
    9494:	ffffffff ffffffff ffffffff ffffffff     ................
    94a4:	ffffffff ffffffff ffffffff ffffffff     ................
    94b4:	ffffffff ffffffff ffffffff ffffffff     ................
    94c4:	ffffffff ffffffff ffffffff ffffffff     ................
    94d4:	ffffffff ffffffff ffffffff ffffffff     ................
    94e4:	ffffffff ffffffff 528a528a ffffffff     .........R.R....
    94f4:	ffffffff ffffffff ffffffff ffffffff     ................
    9504:	08619492 ffdf8430 ffffffff ffffffff     ..a.0...........
    9514:	ffffffff ffffffff ffffffff ffffffff     ................
    9524:	ffffffff ffffffff ffffffff ffffffff     ................
    9534:	ffffffff ffffffff ffffffff ffffffff     ................
    9544:	ffffffff ffffffff ffffffff ffffffff     ................
    9554:	ffffffff ffffffff ffffffff ffffffff     ................
    9564:	ffffffff ffffffff ffffffff ffffffff     ................
    9574:	ffffffff ffffffff ffffffff ffffffff     ................
    9584:	ffffffff dedbffff bdf72965 ffffffff     ........e)......
    9594:	ffffffff ffffffff ffffffff ffffffff     ................
    95a4:	8430ffdf c6382104 ffffffff ffffffff     ..0..!8.........
    95b4:	ffffffff ffffffff ffffffff ffffffff     ................
    95c4:	ffffffff ffffffff ffffffff ffffffff     ................
    95d4:	ffffffff ffffffff ffffffff ffffffff     ................
    95e4:	ffffffff ffffffff ffffffff ffffffff     ................
    95f4:	ffffffff ffffffff ffffffff ffffffff     ................
    9604:	ffffffff ffffffff ffffffff ffffffff     ................
    9614:	ffffffff ffffffff ffffffff ffffffff     ................
    9624:	ffffffff 9cd3ffff f79e4a69 ffffffff     ........iJ......
    9634:	ffffffff ffffffff ffffffff ffffffff     ................
    9644:	f79effff 632c4228 ffffef7d ffffffff     ....(B,c}.......
    9654:	ffffffff ffffffff ffffffff ffffffff     ................
    9664:	ffffffff ffffffff ffffffff ffffffff     ................
    9674:	ffffffff ffffffff ffffffff ffffffff     ................
    9684:	ffffffff ffffffff ffffffff ffffffff     ................
    9694:	ffffffff ffffffff ffffffff ffffffff     ................
    96a4:	ffffffff ffffffff ffffffff ffffffff     ................
    96b4:	ffffffff ffffffff ffffffff ffffffff     ................
    96c4:	ffffffff 630cf7be ffffad55 ffffffff     .......cU.......
    96d4:	ffffffff ffffffff ffffffff ffffffff     ................
    96e4:	ffffffff 18c3bdd7 ffffce59 ffffffff     ........Y.......
    96f4:	ffffffff ffffffff ffffffff ffffffff     ................
    9704:	ffffffff ffffffff ffffffff ffffffff     ................
    9714:	ffffffff ffffffff ffffffff ffffffff     ................
    9724:	ffffffff ffffffff ffffffff ffffffff     ................
    9734:	ffffffff ffffffff ffffffff ffffffff     ................
    9744:	ffffffff ffffffff ffffffff ffffffff     ................
    9754:	ffffffff ffffffff ffffffff ffffffff     ................
    9764:	ffffffff 4a69c618 ffffdefb ffffffff     ......iJ........
    9774:	ffffffff ffffffff ffffffff ffffffff     ................
    9784:	ffffffff 4a49ef5d ffdf5aeb ffffffff     ....].IJ.Z......
    9794:	ffffffff ffffffff ffffffff ffffffff     ................
    97a4:	ffffffff ffffffff ffffffff ffffffff     ................
    97b4:	ffffffff ffffffff ffffffff ffffffff     ................
    97c4:	ffffffff ffffffff ffffffff ffffffff     ................
    97d4:	ffffffff ffffffff ffffffff ffffffff     ................
    97e4:	ffffffff ffffffff ffffffff ffffffff     ................
    97f4:	ffffffff ffffffff ffffffff ffffffff     ................
    9804:	f7beffff 84304208 ffffffdf ffffffff     .....B0.........
    9814:	ffffffff defbef5d ffffffff ffffffff     ....]...........
    9824:	ffffffff 9492ffff e71c18e3 ffffffff     ................
    9834:	ffffffff ffffffff ffffffff ffffffff     ................
    9844:	ffffffff ffffffff ffffffff ffffffff     ................
    9854:	ffffffff ffffffff ffffffff ffffffff     ................
    9864:	ffffffff ffffffff ffffffff ffffffff     ................
    9874:	ffffffff ffffffff ffffffff ffffffff     ................
    9884:	ffffffff ffffffff ffffffff ffffffff     ................
    9894:	ffffffff ffffffff ffffffff ffffffff     ................
    98a4:	9cf3ffff a53418c3 ffdfa534 ffffffff     ......4.4.......
    98b4:	ffffffff ad55ce59 ffffffff ffffffff     ....Y.U.........
    98c4:	ffffffff ce59ffff 9cd32104 ffffffff     ......Y..!......
    98d4:	ffffffff ffffffff ffffffff ffffffff     ................
    98e4:	ffffffff ffffffff ffffffff ffffffff     ................
    98f4:	ffffffff ffffffff ffffffff ffffffff     ................
    9904:	ffffffff ffffffff ffffffff ffffffff     ................
    9914:	ffffffff ffffffff ffffffff ffffffff     ................
    9924:	ffffffff ffffffff ffffffff ffffffff     ................
    9934:	ffffffff ffffffff ffffffff ffffffff     ................
    9944:	39e7ffff b5b62965 ffdf7bef ffffffff     ...9e)...{......
    9954:	ffffffff 8c51bdd7 ffffffff ffffffff     ......Q.........
    9964:	ffffffff e71cffff 632c2945 ffffffff     ........E),c....
    9974:	ffffffff ffffffff ffffffff ffffffff     ................
    9984:	ffffffff ffffffff ffffffff ffffffff     ................
    9994:	ffffffff ffffffff ffffffff ffffffff     ................
    99a4:	ffffffff ffffffff ffffffff ffffffff     ................
    99b4:	ffffffff ffffffff ffffffff ffffffff     ................
    99c4:	ffffffff ffffffff ffffffff ffffffff     ................
    99d4:	ffffffff ffffffff ffffffff ffffffff     ................
    99e4:	0861e71c bdd74228 defb39e7 ffffffff     ..a.(B...9......
    99f4:	ffffffff 5acbc618 ffffef5d ffffffff     .......Z].......
    9a04:	ffffffff ef7dffff 42283186 ffffffff     ......}..1(B....
    9a14:	ffffffff ffffffff ffffffff ffffffff     ................
    9a24:	ffffffff ffffffff ffffffff ffffffff     ................
    9a34:	ffffffff ffffffff ffffffff ffffffff     ................
    9a44:	ffffffff ffffffff ffffffff ffffffff     ................
    9a54:	ffffffff ffffffff ffffffff ffffffff     ................
    9a64:	ffffffff ffffffff ffffffff ffffffff     ................
    9a74:	ffffffff ffffffff ffffffff ffffffff     ................
    9a84:	0841b596 bdf75acb 9cf318e3 ffffffff     ..A..Z..........
    9a94:	ffffffff 2945d69a ffffc618 ffffffff     ......E)........
    9aa4:	ffffffff f7beffff 31a639c7 ffffffff     .........9.1....
    9ab4:	ffffffff ffffffff ffffffff ffffffff     ................
    9ac4:	ffffffff ffffffff ffffffff ffffffff     ................
    9ad4:	ffffffff ffffffff ffffffff ffffffff     ................
    9ae4:	ffffffff ffffffff ffffffff ffffffff     ................
    9af4:	ffffffff ffffffff ffffffff ffffffff     ................
    9b04:	ffffffff ffffffff ffffffff ffffffff     ................
    9b14:	ffffffff ffffffff ffffffff ffffffff     ................
    9b24:	00208410 ce796b6d 738e2104 ffffffff     .. .mky..!.s....
    9b34:	ffffffff 39c7e73c f7be5aeb ffffffff     ....<..9.Z......
    9b44:	ffffffff f7beffff 420831a6 ffffffff     .........1.B....
    9b54:	ffffffff ffffffff ffffffff ffffffff     ................
    9b64:	ffffffff ffffffff ffffffff ffffffff     ................
    9b74:	ffffffff ffffffff ffffffff ffffffff     ................
    9b84:	ffffffff ffffffff ffffffff ffffffff     ................
    9b94:	ffffffff ffffffff ffffffff ffffffff     ................
    9ba4:	ffffffff ffffffff ffffffff ffffffff     ................
    9bb4:	ffffffff ffffffff ffffffff ffffffff     ................
    9bc4:	0000528a e71c9492 08612945 fffff7be     .R......E)a.....
    9bd4:	ffffffff 5aebf7be e73c0861 ffffffff     .......Za.<.....
    9be4:	ffffffff ef7dffff 630c3186 ffffffff     ......}..1.c....
    9bf4:	ffffffff ffffffff ffffffff ffffffff     ................
    9c04:	ffffffff ffffffff ffffffff ffffffff     ................
    9c14:	ffffffff ffffffff ffffffff ffffffff     ................
    9c24:	ffffffff ffffffff ffffffff ffffffff     ................
    9c34:	ffffffff ffffffff ffffffff ffffffff     ................
    9c44:	ffffffff ffffffff ffffffff ffffffff     ................
    9c54:	ffffffff ffffffff ffffffff e73cffff     ..............<.
    9c64:	39c73186 ad75f7be 632c39c7 ffffffdf     .1.9..u..9,c....
    9c74:	ffffffff 8c71ffff 94920841 ffffffff     ......q.A.......
    9c84:	ffffffff dedbffff a5142124 ffffffff     ........$!......
    9c94:	ffffffff ffffffff ffffffff ffffffff     ................
    9ca4:	ffffffff ffffffff ffffffff ffffffff     ................
    9cb4:	ffffffff ffffffff ffffffff ffffffff     ................
    9cc4:	ffffffff ffffffff ffffffff ffffffff     ................
    9cd4:	ffffffff ffffffff ffffffff ffffffff     ................
    9ce4:	ffffffff ffffffff ffffffff ffffffff     ................
    9cf4:	ffffffff ffffffff e71cffdf 9492bdd7     ................
    9d04:	31a618c3 4228ef5d ffffa534 d69ad69a     ...1].(B4.......
    9d14:	c638ffff ad75ffff 7bcf10a2 ffffffff     ..8...u....{....
    9d24:	ffffffff 9cf3ffff e73c2945 ffffffff     ........E)<.....
    9d34:	ffffffff ffffffff ffffffff ffffffff     ................
    9d44:	ffffffff ffffffff ffffffff ffffffff     ................
    9d54:	ffffffff ffffffff ffffffff ffffffff     ................
    9d64:	ffffffff ffffffff ffffffff ffffffff     ................
    9d74:	ffffffff ffffffff ffffffff ffffffff     ................
    9d84:	ffffffff ffffffff ffffffff ffffffff     ................
    9d94:	ffffffff a514ef7d a534738e 7befdefb     ....}....s4....{
    9da4:	00200861 4208b596 ffdf6b6d bdf78c51     a. ....Bmk..Q...
    9db4:	528affff 8c51ffff bdd70861 ffffffff     ...R..Q.a.......
    9dc4:	ffffffff 5acbf79e ffdf7bef ffffffff     .......Z.{......
    9dd4:	ffffffff ffffffff ffffffff ffffffff     ................
    9de4:	ffffffff ffffffff ffffffff ffffffff     ................
    9df4:	ffffffff ffffffff ffffffff ffffffff     ................
    9e04:	ffffffff ffffffff ffffffff ffffffff     ................
    9e14:	ffffffff ffffffff ffffffff ffffffff     ................
    9e24:	ffffffff ffffffff ffffffff ffffffff     ................
    9e34:	7bcfd6ba a51431a6 ffdfef7d 18c3c638     ...{.1..}...8...
    9e44:	00000000 7bcf4a69 c6181082 defb8410     ....iJ.{........
    9e54:	18c3ffff 210494b2 f79e4208 ffffffff     .......!.B......
    9e64:	ffffffff 3186c638 ffffd69a ffffffff     ....8..1........
    9e74:	ffffffff ffffffff ffffffff ffffffff     ................
    9e84:	ffffffff ffffffff ffffffff ffffffff     ................
    9e94:	ffffffff ffffffff ffffffff ffffffff     ................
    9ea4:	ffffffff ffffffff ffffffff ffffffff     ................
    9eb4:	ffffffff ffffffff ffffffff ffffffff     ................
    9ec4:	ffffffff ffffffff ffffffff 632cef5d     ............].,c
    9ed4:	a53431a6 ffdff7be b596e71c 294539e7     .14..........9E)
    9ee4:	6b6d4a49 7bef2104 21045aeb b596738e     IJmk.!.{.Z.!.s..
    9ef4:	0861c638 31860000 ffffd69a ffffffff     8.a....1........
    9f04:	d69affff 949231a6 ffffffdf ffffffff     .....1..........
    9f14:	ffffffff ffffffff ffffffff ffffffff     ................
    9f24:	ffffffff ffffffff ffffffff ffffffff     ................
    9f34:	ffffffff ffffffff ffffffff ffffffff     ................
    9f44:	ffffffff ffffffff ffffffff ffffffff     ................
    9f54:	ffffffff ffffffff ffffffff ffffffff     ................
    9f64:	ffffffff ffffffff ffffffff 2945d6ba     ..............E)
    9f74:	841018e3 84308430 b5b69cf3 e73ce71c     ....0.0.......<.
    9f84:	ffffffdf 31a6b596 5acb4a69 29655aeb     .......1iJ.Z.Ze)
    9f94:	29452104 d69a6b6d ffffffff ffffffff     .!E)mk..........
    9fa4:	4a69ffff ef5d3186 ffffffff ffffffff     ..iJ.1].........
    9fb4:	ffffffff ffffffff ffffffff ffffffff     ................
    9fc4:	ffffffff ffffffff ffffffff ffffffff     ................
    9fd4:	ffffffff ffffffff ffffffff ffffffff     ................
    9fe4:	ffffffff ffffffff ffffffff ffffffff     ................
    9ff4:	ffffffff ffffffff ffffffff ffffffff     ................
    a004:	ffffffff ffffffff ffffffff d6baffdf     ................
    a014:	8c51ad55 ce798c71 fffff79e ffffffff     U.Q.q.y.........
    a024:	ffffffff ce59ffdf 39e7632c c6384a49     ......Y.,c.9IJ8.
    a034:	dedbd69a fffff79e ffffffff ffffffff     ................
    a044:	4a69ffff ffff4a69 ffffffff ffffffff     ..iJiJ..........
    a054:	ffffffff ffffffff ffffffff ffffffff     ................
    a064:	ffffffff ffffffff ffffffff ffffffff     ................
    a074:	ffffffff ffffffff ffffffff ffffffff     ................
    a084:	ffffffff ffffffff ffffffff ffffffff     ................
    a094:	ffffffff ffffffff ffffffff ffffffff     ................
    a0a4:	ffffffff ffffffff ffffffff ffffffff     ................
    a0b4:	ffdfffff ffffffdf ffffffff ffffffff     ................
    a0c4:	ffffffff ffffffff f79effdf b5964208     .............B..
    a0d4:	ffffffff ffffffff bdd7e73c ffffffff     ........<.......
    a0e4:	5aebffff ffff4228 ffffffff ffffffff     ...Z(B..........
    a0f4:	ffffffff ffffffff ffffffff ffffffff     ................
    a104:	ffffffff ffffffff ffffffff ffffffff     ................
    a114:	ffffffff ffffffff ffffffff ffffffff     ................
    a124:	ffffffff ffffffff ffffffff ffffffff     ................
    a134:	ffffffff ffffffff ffffffff ffffffff     ................
    a144:	ffffffff ffffffff ffffffff ffffffff     ................
    a154:	ffffffff ffffffff ffffffff ffffffff     ................
    a164:	ffffffff ffffffff f7beffff bdd739c7     .............9..
    a174:	ffffffff ffffffff 39c79cf3 ffffffff     ...........9....
    a184:	738effff ffdf39c7 ffffffff ffffffff     ...s.9..........
    a194:	ffffffff ffffffff ffffffff ffffffff     ................
    a1a4:	ffffffff ffffffff ffffffff ffffffff     ................
    a1b4:	ffffffff ffffffff ffffffff ffffffff     ................
    a1c4:	ffffffff ffffffff ffffffff ffffffff     ................
    a1d4:	ffffffff ffffffff ffffffff ffffffff     ................
    a1e4:	ffffffff ffffffff ffffffff ffffffff     ................
    a1f4:	ffffffff ffffffff ffffffff ffffffff     ................
    a204:	ffffffff ffffffff ad55ffff e71c2945     ..........U.E)..
    a214:	ffffffff ffffffff 10828c71 ffffffff     ........q.......
    a224:	9cd3ffff ef5d2965 ffffffff ffffffff     ....e)].........
    a234:	ffffffff ffffffff ffffffff ffffffff     ................
    a244:	ffffffff ffffffff ffffffff ffffffff     ................
    a254:	ffffffff ffffffff ffffffff ffffffff     ................
    a264:	ffffffff ffffffff ffffffff ffffffff     ................
    a274:	ffffffff ffffffff ffffffff ffffffff     ................
    a284:	ffffffff ffffffff ffffffff ffffffff     ................
    a294:	ffffffff ffffffff ffffffff ffffffff     ................
    a2a4:	ffffffff ffffffff 5acbffff ffdf4228     ...........Z(B..
    a2b4:	ffffffff ffffffff 08419cf3 ffffef5d     ..........A.]...
    a2c4:	e71cffff 31a618e3 5aeb4228 c6188c51     .......1(B.ZQ...
    a2d4:	fffff79e ffffffff ffffffff ffffffff     ................
    a2e4:	ffffffff ffffffff ffffffff ffffffff     ................
    a2f4:	ffffffff ffffffff ffffffff ffffffff     ................
    a304:	ffffffff ffffffff ffffffff ffffffff     ................
    a314:	ffffffff ffffffff ffffffff ffffffff     ................
    a324:	ffffffff ffffffff ffffffff ffffffff     ................
    a334:	ffffffff ffffffff ffffffff ffffffff     ................
    a344:	ffffffff ffffffff 39c7ffff ffff73ae     ...........9.s..
    a354:	ffffffff ffffffff 0841bdf7 ffffd69a     ..........A.....
    a364:	ffffffff 9cd3defb 4a696b6d 08612104     ........mkiJ.!a.
    a374:	52aa10a2 ffdfb5b6 ffffffff ffffffff     ...R............
    a384:	ffffffff ffffffff ffffffff ffffffff     ................
    a394:	ffffffff ffffffff ffffffff ffffffff     ................
    a3a4:	ffffffff ffffffff ffffffff ffffffff     ................
    a3b4:	ffffffff ffffffff ffffffff ffffffff     ................
    a3c4:	ffffffff ffffffff ffffffff ffffffff     ................
    a3d4:	ffffffff ffffffff ffffffff ffffffff     ................
    a3e4:	ffffffff f79effdf 18e3e71c ffffb596     ................
    a3f4:	ffffffff ffffffff 39c7e73c 8c516b4d     ........<..9MkQ.
    a404:	ad759cd3 ce79c618 defbd6ba defbe71c     ..u...y.........
    a414:	6b6dad75 4a493186 f79eb596 ffffffff     u.mk.1IJ........
    a424:	ffffffff ffffffff ffffffff ffffffff     ................
    a434:	ffffffff ffffffff ffffffff ffffffff     ................
    a444:	ffffffff ffffffff ffffffff ffffffff     ................
    a454:	ffffffff ffffffff ffffffff ffffffff     ................
    a464:	ffffffff ffffffff ffffffff ffffffff     ................
    a474:	ffffffff ffffffff ffffffff ffffffff     ................
    a484:	ad55ef5d 5acb738e 31a639c7 ffffef7d     ].U..s.Z.9.1}...
    a494:	ffffffff ffffffff ef7dffff ce79defb     ..........}...y.
    a4a4:	ad55bdf7 94929cd3 632c8410 6b4d4a49     ..U.......,cIJMk
    a4b4:	ffdfbdf7 a514ef5d 632c4228 fffff79e     ....]...(B,c....
    a4c4:	ffffffff ffffffff ffffffff ffffffff     ................
    a4d4:	ffffffff ffffffff ffffffff ffffffff     ................
    a4e4:	ffffffff ffffffff ffffffff ffffffff     ................
    a4f4:	ffffffff ffffffff ffffffff ffffffff     ................
    a504:	ffffffff ffffffff ffffffff ffffffff     ................
    a514:	ffffffff ffffffff ffffffff a514ffdf     ................
    a524:	10a239c7 9cf339e7 defbbdf7 ffffffff     .9...9..........
    a534:	ffffffff ffffffff ffffffff ffffffff     ................
    a544:	ffffffff ffdfffff e73cf79e 528ac618     ..........<....R
    a554:	7bcf2104 ffffffdf 4208defb ffff94b2     .!.{.......B....
    a564:	ffffffff ffffffff ffffffff ffffffff     ................
    a574:	ffffffff ffffffff ffffffff ffffffff     ................
    a584:	ffffffff ffffffff ffffffff ffffffff     ................
    a594:	ffffffff ffffffff ffffffff ffffffff     ................
    a5a4:	ffffffff ffffffff ffffffff ffffffff     ................
    a5b4:	ffffffff ffffffff ffffffff 08619cd3     ..............a.
    a5c4:	bdd731a6 fffff7be ffffffff ffffffff     .1..............
    a5d4:	ffffffff ffffffff ffffffff ffffffff     ................
    a5e4:	ffffffff ffffffff ffffffdf f79effff     ................
    a5f4:	084173ae ffffa534 bdf7ffff ffff4a49     .sA.4.......IJ..
    a604:	ffffffff ffffffff ffffffff ffffffff     ................
    a614:	ffffffff ffffffff ffffffff ffffffff     ................
    a624:	ffffffff ffffffff ffffffff ffffffff     ................
    a634:	ffffffff ffffffff ffffffff ffffffff     ................
    a644:	ffffffff ffffffff ffffffff ffffffff     ................
    a654:	ffffffff ffffffff 94b2ffff 7bcf0861     ............a..{
    a664:	ffffef7d ffffffff ffffffff ffffffff     }...............
    a674:	ffffffff ffffffff ffffffff ffffffff     ................
    a684:	ef7dffff ffffffff 632cc638 ffffbdf7     ..}.....8.,c....
    a694:	8410ffff ffdf52aa 9cd3ffff ffff52aa     .....R.......R..
    a6a4:	ffffffff ffffffff ffffffff ffffffff     ................
    a6b4:	ffffffff ffffffff ffffffff ffffffff     ................
    a6c4:	ffffffff ffffffff ffffffff ffffffff     ................
    a6d4:	ffffffff ffffffff ffffffff ffffffff     ................
    a6e4:	ffffffff ffffffff ffffffff ffffffff     ................
    a6f4:	ffffffff ffffffff 10a2ef5d ef5d2965     ........]...e)].
    a704:	ffffffff ffffffff ffffffff ffffffff     ................
    a714:	ffffffff ffffffff ffffffff ffffffff     ................
    a724:	630cf79e ffffdefb e73cffff defb632c     ...c......<.,c..
    a734:	ce79ffff 7bef10a2 42088410 ffffc638     ..y....{...B8...
    a744:	ffffffff ffffffff ffffffff ffffffff     ................
    a754:	ffffffff ffffffff ffffffff ffffffff     ................
    a764:	ffffffff ffffffff ffffffff ffffffff     ................
    a774:	ffffffff ffffffff ffffffff ffffffff     ................
    a784:	ffffffff ffffffff ffffffff ffffffff     ................
    a794:	ffffffff ffffffff 3186f7be 7bef1082     ...........1...{
    a7a4:	f79ece79 ffffffff ffffffff ffffffff     y...............
    a7b4:	ffffffff ffffffff ffffffff ffffffff     ................
    a7c4:	c618ffdf ffffc618 ffffffff ad7594b2     ..............u.
    a7d4:	5aebc638 528a632c d6ba8c51 ffffffff     8..Z,c.RQ.......
    a7e4:	ffffffff ffffffff ffffffff ffffffff     ................
    a7f4:	ffffffff ffffffff ffffffff ffffffff     ................
    a804:	ffffffff ffffffff ffffffff ffffffff     ................
    a814:	ffffffff ffffffff ffffffff ffffffff     ................
    a824:	ffffffff ffffffff ffffffff ffffffff     ................
    a834:	ffffffff ffffffff ef5dffff 08415acb     ..........]..ZA.
    a844:	08610841 5aeb2945 b5968c71 f7bed6ba     A.a.E).Zq.......
    a854:	ffffffff ffffffff ffffffff ffffffff     ................
    a864:	f7beffff e73c6b6d e73cf79e 18e352aa     ....mk<...<..R..
    a874:	d6ba39e7 f7beffdf ffffffdf ffffffff     .9..............
    a884:	ffffffff ffffffff ffffffff ffffffff     ................
    a894:	ffffffff ffffffff ffffffff ffffffff     ................
    a8a4:	ffffffff ffffffff ffffffff ffffffff     ................
    a8b4:	ffffffff ffffffff ffffffff ffffffff     ................
    a8c4:	ffffffff ffffffff ffffffff ffffffff     ................
    a8d4:	ffffffff ffffffff ffffffff dedbffff     ................
    a8e4:	738e9cf3 39c74a69 29453186 21242104     ...siJ.9.1E).!$!
    a8f4:	52aa39c7 7bef6b6d 7bef8410 73ae73ae     .9.Rmk.{...{.s.s
    a904:	422873ae 10a21082 29652104 a5144a69     .s(B.....!e)iJ..
    a914:	fffff79e ffffffff ffffffff ffffffff     ................
    a924:	ffffffff ffffffff ffffffff ffffffff     ................
    a934:	ffffffff ffffffff ffffffff ffffffff     ................
    a944:	ffffffff ffffffff ffffffff ffffffff     ................
    a954:	ffffffff ffffffff ffffffff ffffffff     ................
    a964:	ffffffff ffffffff ffffffff ffffffff     ................
    a974:	ffffffff ffffffff ffffffff ffffffff     ................
    a984:	ffffffff ffdfffff e73cef7d ce79dedb     ........}.<...y.
    a994:	c618c638 b5b6bdd7 ad75ad75 a534a534     8.......u.u.4.4.
    a9a4:	ad55a534 bdf7b596 ef7dd69a ffffffff     4.U.......}.....
    a9b4:	ffffffff ffffffff ffffffff ffffffff     ................
    a9c4:	ffffffff ffffffff ffffffff ffffffff     ................
    a9d4:	ffffffff ffffffff ffffffff ffffffff     ................
    a9e4:	ffffffff ffffffff ffffffff ffffffff     ................
    a9f4:	ffffffff ffffffff ffffffff ffffffff     ................
    aa04:	ffffffff ffffffff ffffffff ffffffff     ................
    aa14:	ffffffff ffffffff ffffffff ffffffff     ................
    aa24:	ffffffff ffffffff ffffffff ffffffff     ................
    aa34:	ffffffff ffffffff ffffffff ffffffff     ................
    aa44:	ffffffff ffffffff ffffffff ffffffff     ................
    aa54:	ffffffff ffffffff ffffffff ffffffff     ................
    aa64:	ffffffff ffffffff ffffffff ffffffff     ................
    aa74:	ffffffff ffffffff ffffffff ffffffff     ................
    aa84:	ffffffff ffffffff ffffffff ffffffff     ................
    aa94:	ffffffff ffffffff ffffffff ffffffff     ................
    aaa4:	ffffffff ffffffff ffffffff ffffffff     ................
    aab4:	ffffffff ffffffff ffffffff ffffffff     ................
    aac4:	ffffffff ffffffff ffffffff ffffffff     ................
    aad4:	ffffffff ffffffff ffffffff ffffffff     ................
    aae4:	ffffffff ffffffff ffffffff ffffffff     ................
    aaf4:	ffffffff ffffffff ffffffff ffffffff     ................
    ab04:	ffffffff ffffffff ffffffff ffffffff     ................
    ab14:	ffffffff ffffffff ffffffff ffffffff     ................
    ab24:	ffffffff 00776f70 00000000              ....pow.....

0000ab30 <bp>:
    ab30:	00000000 3ff00000 00000000 3ff80000     .......?.......?

0000ab40 <dp_l>:
	...
    ab48:	43cfd006 3e4cfdeb                       ...C..L>

0000ab50 <dp_h>:
	...
    ab58:	40000000 3fe2b803 00000000 00000000     ...@...?........

0000ab68 <TWO52>:
    ab68:	00000000 43300000 00000000 c3300000     ......0C......0.
    ab78:	00000043                                C...
